---
triple:          'arm64-apple-darwin'
binary-path:     '/Users/aoy3/Documents/GitHub/HayyGov/build/ios/Profile-iphoneos/abseil/absl.framework/absl'
relocations:
  - { offset: 0x33, size: 0x8, addend: 0x0, symName: _abslVersionString, symObjAddr: 0x0, symBinAddr: 0x6BBA0, symSize: 0x0 }
  - { offset: 0x67, size: 0x8, addend: 0x0, symName: _abslVersionNumber, symObjAddr: 0x28, symBinAddr: 0x6BBC8, symSize: 0x0 }
  - { offset: 0xA2, size: 0x8, addend: 0x0, symName: __ZN4absl12lts_2024072218debugging_internal17AddressIsReadableEPKv, symObjAddr: 0x0, symBinAddr: 0x4000, symSize: 0x8 }
  - { offset: 0xBE, size: 0x8, addend: 0x0, symName: __ZN4absl12lts_2024072218debugging_internal17AddressIsReadableEPKv, symObjAddr: 0x0, symBinAddr: 0x4000, symSize: 0x8 }
  - { offset: 0x18B, size: 0x8, addend: 0x0, symName: __ZN4absl12lts_2024072219str_format_internal13ConvertIntArgIcEEbT_NS1_24FormatConversionSpecImplEPNS1_14FormatSinkImplE, symObjAddr: 0x0, symBinAddr: 0x4008, symSize: 0x234 }
  - { offset: 0xBE4, size: 0x8, addend: 0x0, symName: __ZN4absl12lts_2024072219str_format_internal13ConvertIntArgIcEEbT_NS1_24FormatConversionSpecImplEPNS1_14FormatSinkImplE, symObjAddr: 0x0, symBinAddr: 0x4008, symSize: 0x234 }
  - { offset: 0xECA, size: 0x8, addend: 0x0, symName: __ZN4absl12lts_2024072219str_format_internal12_GLOBAL__N_117ConvertWCharTImplEwNS1_24FormatConversionSpecImplEPNS1_14FormatSinkImplE, symObjAddr: 0x234, symBinAddr: 0x423C, symSize: 0x118 }
  - { offset: 0xEDD, size: 0x8, addend: 0x0, symName: __ZN4absl12lts_2024072219str_format_internal13ConvertIntArgIaEEbT_NS1_24FormatConversionSpecImplEPNS1_14FormatSinkImplE, symObjAddr: 0x688, symBinAddr: 0x4690, symSize: 0x234 }
  - { offset: 0x11C3, size: 0x8, addend: 0x0, symName: __ZN4absl12lts_2024072219str_format_internal13ConvertIntArgIhEEbT_NS1_24FormatConversionSpecImplEPNS1_14FormatSinkImplE, symObjAddr: 0x8BC, symBinAddr: 0x48C4, symSize: 0x220 }
  - { offset: 0x11D6, size: 0x8, addend: 0x0, symName: __ZN4absl12lts_2024072219str_format_internal13ConvertIntArgIhEEbT_NS1_24FormatConversionSpecImplEPNS1_14FormatSinkImplE, symObjAddr: 0x8BC, symBinAddr: 0x48C4, symSize: 0x220 }
  - { offset: 0x143A, size: 0x8, addend: 0x0, symName: __ZN4absl12lts_2024072219str_format_internal13ConvertIntArgIwEEbT_NS1_24FormatConversionSpecImplEPNS1_14FormatSinkImplE, symObjAddr: 0xADC, symBinAddr: 0x4AE4, symSize: 0x22C }
  - { offset: 0x144D, size: 0x8, addend: 0x0, symName: __ZN4absl12lts_2024072219str_format_internal13ConvertIntArgIwEEbT_NS1_24FormatConversionSpecImplEPNS1_14FormatSinkImplE, symObjAddr: 0xADC, symBinAddr: 0x4AE4, symSize: 0x22C }
  - { offset: 0x1702, size: 0x8, addend: 0x0, symName: __ZN4absl12lts_2024072219str_format_internal13ConvertIntArgIsEEbT_NS1_24FormatConversionSpecImplEPNS1_14FormatSinkImplE, symObjAddr: 0xD08, symBinAddr: 0x4D10, symSize: 0x248 }
  - { offset: 0x1715, size: 0x8, addend: 0x0, symName: __ZN4absl12lts_2024072219str_format_internal13ConvertIntArgIsEEbT_NS1_24FormatConversionSpecImplEPNS1_14FormatSinkImplE, symObjAddr: 0xD08, symBinAddr: 0x4D10, symSize: 0x248 }
  - { offset: 0x19F5, size: 0x8, addend: 0x0, symName: __ZN4absl12lts_2024072219str_format_internal13ConvertIntArgItEEbT_NS1_24FormatConversionSpecImplEPNS1_14FormatSinkImplE, symObjAddr: 0xF50, symBinAddr: 0x4F58, symSize: 0x234 }
  - { offset: 0x1A08, size: 0x8, addend: 0x0, symName: __ZN4absl12lts_2024072219str_format_internal13ConvertIntArgItEEbT_NS1_24FormatConversionSpecImplEPNS1_14FormatSinkImplE, symObjAddr: 0xF50, symBinAddr: 0x4F58, symSize: 0x234 }
  - { offset: 0x1C66, size: 0x8, addend: 0x0, symName: __ZN4absl12lts_2024072219str_format_internal13ConvertIntArgIiEEbT_NS1_24FormatConversionSpecImplEPNS1_14FormatSinkImplE, symObjAddr: 0x1184, symBinAddr: 0x518C, symSize: 0x250 }
  - { offset: 0x1C79, size: 0x8, addend: 0x0, symName: __ZN4absl12lts_2024072219str_format_internal13ConvertIntArgIiEEbT_NS1_24FormatConversionSpecImplEPNS1_14FormatSinkImplE, symObjAddr: 0x1184, symBinAddr: 0x518C, symSize: 0x250 }
  - { offset: 0x1F1D, size: 0x8, addend: 0x0, symName: __ZN4absl12lts_2024072219str_format_internal13ConvertIntArgIjEEbT_NS1_24FormatConversionSpecImplEPNS1_14FormatSinkImplE, symObjAddr: 0x13D4, symBinAddr: 0x53DC, symSize: 0x238 }
  - { offset: 0x1F30, size: 0x8, addend: 0x0, symName: __ZN4absl12lts_2024072219str_format_internal13ConvertIntArgIjEEbT_NS1_24FormatConversionSpecImplEPNS1_14FormatSinkImplE, symObjAddr: 0x13D4, symBinAddr: 0x53DC, symSize: 0x238 }
  - { offset: 0x2185, size: 0x8, addend: 0x0, symName: __ZN4absl12lts_2024072219str_format_internal13ConvertIntArgIlEEbT_NS1_24FormatConversionSpecImplEPNS1_14FormatSinkImplE, symObjAddr: 0x160C, symBinAddr: 0x5614, symSize: 0x24C }
  - { offset: 0x2198, size: 0x8, addend: 0x0, symName: __ZN4absl12lts_2024072219str_format_internal13ConvertIntArgIlEEbT_NS1_24FormatConversionSpecImplEPNS1_14FormatSinkImplE, symObjAddr: 0x160C, symBinAddr: 0x5614, symSize: 0x24C }
  - { offset: 0x2496, size: 0x8, addend: 0x0, symName: __ZN4absl12lts_2024072219str_format_internal13ConvertIntArgImEEbT_NS1_24FormatConversionSpecImplEPNS1_14FormatSinkImplE, symObjAddr: 0x1858, symBinAddr: 0x5860, symSize: 0x234 }
  - { offset: 0x24A9, size: 0x8, addend: 0x0, symName: __ZN4absl12lts_2024072219str_format_internal13ConvertIntArgImEEbT_NS1_24FormatConversionSpecImplEPNS1_14FormatSinkImplE, symObjAddr: 0x1858, symBinAddr: 0x5860, symSize: 0x234 }
  - { offset: 0x270D, size: 0x8, addend: 0x0, symName: __ZN4absl12lts_2024072219str_format_internal13ConvertIntArgIxEEbT_NS1_24FormatConversionSpecImplEPNS1_14FormatSinkImplE, symObjAddr: 0x1A8C, symBinAddr: 0x5A94, symSize: 0x24C }
  - { offset: 0x2720, size: 0x8, addend: 0x0, symName: __ZN4absl12lts_2024072219str_format_internal13ConvertIntArgIxEEbT_NS1_24FormatConversionSpecImplEPNS1_14FormatSinkImplE, symObjAddr: 0x1A8C, symBinAddr: 0x5A94, symSize: 0x24C }
  - { offset: 0x29BE, size: 0x8, addend: 0x0, symName: __ZN4absl12lts_2024072219str_format_internal13ConvertIntArgIyEEbT_NS1_24FormatConversionSpecImplEPNS1_14FormatSinkImplE, symObjAddr: 0x1CD8, symBinAddr: 0x5CE0, symSize: 0x234 }
  - { offset: 0x29D1, size: 0x8, addend: 0x0, symName: __ZN4absl12lts_2024072219str_format_internal13ConvertIntArgIyEEbT_NS1_24FormatConversionSpecImplEPNS1_14FormatSinkImplE, symObjAddr: 0x1CD8, symBinAddr: 0x5CE0, symSize: 0x234 }
  - { offset: 0x2C20, size: 0x8, addend: 0x0, symName: __ZN4absl12lts_2024072219str_format_internal13FormatArgImpl8DispatchINS1_7VoidPtrEEEbNS2_4DataENS1_24FormatConversionSpecImplEPv, symObjAddr: 0x1F0C, symBinAddr: 0x64028, symSize: 0x34 }
  - { offset: 0x2E88, size: 0x8, addend: 0x0, symName: __ZN4absl12lts_2024072219str_format_internal13ConvertIntArgINS0_6int128EEEbT_NS1_24FormatConversionSpecImplEPNS1_14FormatSinkImplE, symObjAddr: 0x2DC0, symBinAddr: 0x680C, symSize: 0x24C }
  - { offset: 0x3171, size: 0x8, addend: 0x0, symName: __ZN4absl12lts_2024072219str_format_internal13ConvertIntArgINS0_7uint128EEEbT_NS1_24FormatConversionSpecImplEPNS1_14FormatSinkImplE, symObjAddr: 0x300C, symBinAddr: 0x6A58, symSize: 0x238 }
  - { offset: 0x3624, size: 0x8, addend: 0x0, symName: __ZN4absl12lts_2024072219str_format_internal12_GLOBAL__N_117ConvertWCharTImplEwNS1_24FormatConversionSpecImplEPNS1_14FormatSinkImplE, symObjAddr: 0x234, symBinAddr: 0x423C, symSize: 0x118 }
  - { offset: 0x3739, size: 0x8, addend: 0x0, symName: __ZN4absl12lts_2024072219str_format_internal12_GLOBAL__N_123ConvertIntImplInnerSlowERKNS2_9IntDigitsENS1_24FormatConversionSpecImplEPNS1_14FormatSinkImplE, symObjAddr: 0x44C, symBinAddr: 0x4454, symSize: 0x23C }
  - { offset: 0x3A6D, size: 0x8, addend: 0x0, symName: __ZN4absl12lts_2024072219str_format_internal12_GLOBAL__N_115ConvertCharImplEcNS1_24FormatConversionSpecImplEPNS1_14FormatSinkImplE, symObjAddr: 0x34C, symBinAddr: 0x4354, symSize: 0x78 }
  - { offset: 0x3D50, size: 0x8, addend: 0x0, symName: __ZN4absl12lts_2024072219str_format_internal12_GLOBAL__N_116ConvertStringArgEPKwmNS1_24FormatConversionSpecImplEPNS1_14FormatSinkImplE, symObjAddr: 0x2AD4, symBinAddr: 0x6520, symSize: 0x2C8 }
  - { offset: 0x441F, size: 0x8, addend: 0x0, symName: __ZN4absl12lts_2024072219str_format_internal13ConvertIntArgINS0_7uint128EEEbT_NS1_24FormatConversionSpecImplEPNS1_14FormatSinkImplE, symObjAddr: 0x300C, symBinAddr: 0x6A58, symSize: 0x238 }
  - { offset: 0x46DA, size: 0x8, addend: 0x0, symName: __ZN4absl12lts_2024072219str_format_internal14FormatSinkImpl5FlushEv, symObjAddr: 0x3244, symBinAddr: 0x6C90, symSize: 0x40 }
  - { offset: 0x475D, size: 0x8, addend: 0x0, symName: __ZN4absl12lts_2024072219str_format_internal17FormatConvertImplENS1_7VoidPtrENS1_24FormatConversionSpecImplEPNS1_14FormatSinkImplE, symObjAddr: 0x1F40, symBinAddr: 0x5F14, symSize: 0xBC }
  - { offset: 0x482A, size: 0x8, addend: 0x0, symName: __ZN4absl12lts_2024072219str_format_internal17FormatConvertImplIbLi0EEENS1_16ArgConvertResultILNS0_23FormatConversionCharSetE655355EEET_NS1_24FormatConversionSpecImplEPNS1_14FormatSinkImplE, symObjAddr: 0x204C, symBinAddr: 0x5FD0, symSize: 0x54 }
  - { offset: 0x49D5, size: 0x8, addend: 0x0, symName: __ZN4absl12lts_2024072219str_format_internal17FormatConvertImplEcNS1_24FormatConversionSpecImplEPNS1_14FormatSinkImplE, symObjAddr: 0x20DC, symBinAddr: 0x6024, symSize: 0x18 }
  - { offset: 0x4A60, size: 0x8, addend: 0x0, symName: __ZN4absl12lts_2024072219str_format_internal17FormatConvertImplEaNS1_24FormatConversionSpecImplEPNS1_14FormatSinkImplE, symObjAddr: 0x2128, symBinAddr: 0x603C, symSize: 0x18 }
  - { offset: 0x4AEB, size: 0x8, addend: 0x0, symName: __ZN4absl12lts_2024072219str_format_internal17FormatConvertImplEhNS1_24FormatConversionSpecImplEPNS1_14FormatSinkImplE, symObjAddr: 0x2174, symBinAddr: 0x6054, symSize: 0x18 }
  - { offset: 0x4B76, size: 0x8, addend: 0x0, symName: __ZN4absl12lts_2024072219str_format_internal17FormatConvertImplEsNS1_24FormatConversionSpecImplEPNS1_14FormatSinkImplE, symObjAddr: 0x21C0, symBinAddr: 0x606C, symSize: 0x18 }
  - { offset: 0x4C01, size: 0x8, addend: 0x0, symName: __ZN4absl12lts_2024072219str_format_internal17FormatConvertImplEtNS1_24FormatConversionSpecImplEPNS1_14FormatSinkImplE, symObjAddr: 0x220C, symBinAddr: 0x6084, symSize: 0x18 }
  - { offset: 0x4C56, size: 0x8, addend: 0x0, symName: __ZN4absl12lts_2024072219str_format_internal17FormatConvertImplEiNS1_24FormatConversionSpecImplEPNS1_14FormatSinkImplE, symObjAddr: 0x2258, symBinAddr: 0x609C, symSize: 0x18 }
  - { offset: 0x4CE1, size: 0x8, addend: 0x0, symName: __ZN4absl12lts_2024072219str_format_internal17FormatConvertImplEjNS1_24FormatConversionSpecImplEPNS1_14FormatSinkImplE, symObjAddr: 0x22A8, symBinAddr: 0x60B4, symSize: 0x18 }
  - { offset: 0x4D6C, size: 0x8, addend: 0x0, symName: __ZN4absl12lts_2024072219str_format_internal17FormatConvertImplElNS1_24FormatConversionSpecImplEPNS1_14FormatSinkImplE, symObjAddr: 0x2304, symBinAddr: 0x60CC, symSize: 0x18 }
  - { offset: 0x4DF7, size: 0x8, addend: 0x0, symName: __ZN4absl12lts_2024072219str_format_internal17FormatConvertImplEmNS1_24FormatConversionSpecImplEPNS1_14FormatSinkImplE, symObjAddr: 0x2354, symBinAddr: 0x60E4, symSize: 0x18 }
  - { offset: 0x4E82, size: 0x8, addend: 0x0, symName: __ZN4absl12lts_2024072219str_format_internal17FormatConvertImplExNS1_24FormatConversionSpecImplEPNS1_14FormatSinkImplE, symObjAddr: 0x23B0, symBinAddr: 0x60FC, symSize: 0x18 }
  - { offset: 0x4F0D, size: 0x8, addend: 0x0, symName: __ZN4absl12lts_2024072219str_format_internal17FormatConvertImplEyNS1_24FormatConversionSpecImplEPNS1_14FormatSinkImplE, symObjAddr: 0x2400, symBinAddr: 0x6114, symSize: 0x18 }
  - { offset: 0x4F98, size: 0x8, addend: 0x0, symName: __ZN4absl12lts_2024072219str_format_internal17FormatConvertImplENS0_6int128ENS1_24FormatConversionSpecImplEPNS1_14FormatSinkImplE, symObjAddr: 0x2458, symBinAddr: 0x612C, symSize: 0x18 }
  - { offset: 0x502A, size: 0x8, addend: 0x0, symName: __ZN4absl12lts_2024072219str_format_internal17FormatConvertImplENS0_7uint128ENS1_24FormatConversionSpecImplEPNS1_14FormatSinkImplE, symObjAddr: 0x24B0, symBinAddr: 0x6144, symSize: 0x18 }
  - { offset: 0x5086, size: 0x8, addend: 0x0, symName: __ZN4absl12lts_2024072219str_format_internal17FormatConvertImplEfNS1_24FormatConversionSpecImplEPNS1_14FormatSinkImplE, symObjAddr: 0x2510, symBinAddr: 0x615C, symSize: 0x58 }
  - { offset: 0x5197, size: 0x8, addend: 0x0, symName: __ZN4absl12lts_2024072219str_format_internal17FormatConvertImplEdNS1_24FormatConversionSpecImplEPNS1_14FormatSinkImplE, symObjAddr: 0x25B0, symBinAddr: 0x61B4, symSize: 0x58 }
  - { offset: 0x526D, size: 0x8, addend: 0x0, symName: __ZN4absl12lts_2024072219str_format_internal17FormatConvertImplEeNS1_24FormatConversionSpecImplEPNS1_14FormatSinkImplE, symObjAddr: 0x2650, symBinAddr: 0x620C, symSize: 0x58 }
  - { offset: 0x5362, size: 0x8, addend: 0x0, symName: __ZN4absl12lts_2024072219str_format_internal17FormatConvertImplEPKcNS1_24FormatConversionSpecImplEPNS1_14FormatSinkImplE, symObjAddr: 0x26E8, symBinAddr: 0x6264, symSize: 0xDC }
  - { offset: 0x55D6, size: 0x8, addend: 0x0, symName: __ZN4absl12lts_2024072219str_format_internal13FormatArgImpl8DispatchINSt3__112basic_stringIcNS4_11char_traitsIcEENS4_9allocatorIcEEEEEEbNS2_4DataENS1_24FormatConversionSpecImplEPv, symObjAddr: 0x27C4, symBinAddr: 0x644B4, symSize: 0x44 }
  - { offset: 0x55E0, size: 0x8, addend: 0x0, symName: __ZN4absl12lts_2024072219str_format_internal17FormatConvertImplERKNSt3__112basic_stringIcNS2_11char_traitsIcEENS2_9allocatorIcEEEENS1_24FormatConversionSpecImplEPNS1_14FormatSinkImplE, symObjAddr: 0x2808, symBinAddr: 0x6340, symSize: 0x5C }
  - { offset: 0x5700, size: 0x8, addend: 0x0, symName: __ZN4absl12lts_2024072219str_format_internal17FormatConvertImplENS0_11string_viewENS1_24FormatConversionSpecImplEPNS1_14FormatSinkImplE, symObjAddr: 0x28BC, symBinAddr: 0x639C, symSize: 0x50 }
  - { offset: 0x57A9, size: 0x8, addend: 0x0, symName: __ZN4absl12lts_2024072219str_format_internal17FormatConvertImplEPKwNS1_24FormatConversionSpecImplEPNS1_14FormatSinkImplE, symObjAddr: 0x294C, symBinAddr: 0x63EC, symSize: 0xB8 }
  - { offset: 0x599A, size: 0x8, addend: 0x0, symName: __ZN4absl12lts_2024072219str_format_internal17FormatConvertImplERKNSt3__112basic_stringIwNS2_11char_traitsIwEENS2_9allocatorIwEEEENS1_24FormatConversionSpecImplEPNS1_14FormatSinkImplE, symObjAddr: 0x2A58, symBinAddr: 0x64A4, symSize: 0x3C }
  - { offset: 0x5A47, size: 0x8, addend: 0x0, symName: __ZN4absl12lts_2024072219str_format_internal14ConvertBoolArgEbPNS1_14FormatSinkImplE, symObjAddr: 0x2A94, symBinAddr: 0x64E0, symSize: 0x40 }
  - { offset: 0x5A82, size: 0x8, addend: 0x0, symName: __ZN4absl12lts_2024072219str_format_internal17FormatConvertImplEDnNS1_24FormatConversionSpecImplEPNS1_14FormatSinkImplE, symObjAddr: 0x2D9C, symBinAddr: 0x67E8, symSize: 0xC }
  - { offset: 0x5AEF, size: 0x8, addend: 0x0, symName: __ZN4absl12lts_2024072219str_format_internal17FormatConvertImplEwNS1_24FormatConversionSpecImplEPNS1_14FormatSinkImplE, symObjAddr: 0x2DA8, symBinAddr: 0x67F4, symSize: 0x18 }
  - { offset: 0xDC52, size: 0x8, addend: 0x0, symName: __ZN4absl12lts_2024072219str_format_internal14FormatSinkImpl6AppendENS0_11string_viewE, symObjAddr: 0x3C4, symBinAddr: 0x43CC, symSize: 0x88 }
  - { offset: 0xDCF1, size: 0x8, addend: 0x0, symName: __ZN4absl12lts_2024072219str_format_internal13ConvertIntArgIcEEbT_NS1_24FormatConversionSpecImplEPNS1_14FormatSinkImplE.cold.1, symObjAddr: 0x3460, symBinAddr: 0x645E4, symSize: 0x24 }
  - { offset: 0xDD74, size: 0x8, addend: 0x0, symName: __ZN4absl12lts_2024072219str_format_internal13ConvertIntArgIcEEbT_NS1_24FormatConversionSpecImplEPNS1_14FormatSinkImplE.cold.2, symObjAddr: 0x3484, symBinAddr: 0x64608, symSize: 0x24 }
  - { offset: 0xDDB7, size: 0x8, addend: 0x0, symName: __ZN4absl12lts_2024072219str_format_internal14FormatSinkImpl6AppendEmc, symObjAddr: 0x3284, symBinAddr: 0x6CD0, symSize: 0xA8 }
  - { offset: 0xDEE2, size: 0x8, addend: 0x0, symName: __ZN4absl12lts_2024072219str_format_internal14FormatSinkImpl5FlushEv, symObjAddr: 0x3244, symBinAddr: 0x6C90, symSize: 0x40 }
  - { offset: 0xDFA3, size: 0x8, addend: 0x0, symName: __ZN4absl12lts_2024072219str_format_internal14FormatSinkImpl6AppendEmc, symObjAddr: 0x3284, symBinAddr: 0x6CD0, symSize: 0xA8 }
  - { offset: 0xDFB4, size: 0x8, addend: 0x0, symName: __ZNK4absl12lts_2024072219str_format_internal12_GLOBAL__N_19IntDigits19without_neg_or_zeroEv, symObjAddr: 0x332C, symBinAddr: 0x6D78, symSize: 0x2C }
  - { offset: 0xE055, size: 0x8, addend: 0x0, symName: __ZN4absl12lts_2024072219str_format_internal12_GLOBAL__N_19IntDigits15PrintAsHexLowerINS0_7uint128EEEvT_, symObjAddr: 0x3358, symBinAddr: 0x6DA4, symSize: 0x54 }
  - { offset: 0xE7CC, size: 0x8, addend: 0x0, symName: __ZN4absl12lts_2024072219str_format_internal13FormatArgImpl8DispatchINS1_7VoidPtrEEEbNS2_4DataENS1_24FormatConversionSpecImplEPv, symObjAddr: 0x1F0C, symBinAddr: 0x64028, symSize: 0x34 }
  - { offset: 0xE862, size: 0x8, addend: 0x0, symName: __ZN4absl12lts_2024072219str_format_internal13FormatArgImpl8DispatchIbEEbNS2_4DataENS1_24FormatConversionSpecImplEPv, symObjAddr: 0x1FFC, symBinAddr: 0x6405C, symSize: 0x50 }
  - { offset: 0xE8FB, size: 0x8, addend: 0x0, symName: _OUTLINED_FUNCTION_7, symObjAddr: 0x3908, symBinAddr: 0x6EEC, symSize: 0x18 }
  - { offset: 0xE913, size: 0x8, addend: 0x0, symName: _OUTLINED_FUNCTION_5, symObjAddr: 0x38EC, symBinAddr: 0x6ED0, symSize: 0x8 }
  - { offset: 0xE983, size: 0x8, addend: 0x0, symName: __ZN4absl12lts_2024072219str_format_internal13FormatArgImpl8DispatchIcEEbNS2_4DataENS1_24FormatConversionSpecImplEPv, symObjAddr: 0x20A0, symBinAddr: 0x640AC, symSize: 0x3C }
  - { offset: 0xEA88, size: 0x8, addend: 0x0, symName: _OUTLINED_FUNCTION_0, symObjAddr: 0x38BC, symBinAddr: 0x6EAC, symSize: 0xC }
  - { offset: 0xEAA0, size: 0x8, addend: 0x0, symName: _OUTLINED_FUNCTION_2, symObjAddr: 0x38D0, symBinAddr: 0x6EC0, symSize: 0x8 }
  - { offset: 0xEB10, size: 0x8, addend: 0x0, symName: __ZN4absl12lts_2024072219str_format_internal13FormatArgImpl8DispatchIaEEbNS2_4DataENS1_24FormatConversionSpecImplEPv, symObjAddr: 0x20F4, symBinAddr: 0x640E8, symSize: 0x34 }
  - { offset: 0xEC47, size: 0x8, addend: 0x0, symName: __ZN4absl12lts_2024072219str_format_internal13FormatArgImpl8DispatchIhEEbNS2_4DataENS1_24FormatConversionSpecImplEPv, symObjAddr: 0x2140, symBinAddr: 0x6411C, symSize: 0x34 }
  - { offset: 0xED7E, size: 0x8, addend: 0x0, symName: __ZN4absl12lts_2024072219str_format_internal13FormatArgImpl8DispatchIsEEbNS2_4DataENS1_24FormatConversionSpecImplEPv, symObjAddr: 0x218C, symBinAddr: 0x64150, symSize: 0x34 }
  - { offset: 0xEEB5, size: 0x8, addend: 0x0, symName: __ZN4absl12lts_2024072219str_format_internal13FormatArgImpl8DispatchItEEbNS2_4DataENS1_24FormatConversionSpecImplEPv, symObjAddr: 0x21D8, symBinAddr: 0x64184, symSize: 0x34 }
  - { offset: 0xEFCF, size: 0x8, addend: 0x0, symName: __ZN4absl12lts_2024072219str_format_internal13FormatArgImpl8DispatchIiEEbNS2_4DataENS1_24FormatConversionSpecImplEPv, symObjAddr: 0x2224, symBinAddr: 0x641B8, symSize: 0x34 }
  - { offset: 0xF0EB, size: 0x8, addend: 0x0, symName: __ZN4absl12lts_2024072219str_format_internal13FormatArgImpl8DispatchIjEEbNS2_4DataENS1_24FormatConversionSpecImplEPv, symObjAddr: 0x2270, symBinAddr: 0x641EC, symSize: 0x38 }
  - { offset: 0xF227, size: 0x8, addend: 0x0, symName: __ZN4absl12lts_2024072219str_format_internal13FormatArgImpl8DispatchIlEEbNS2_4DataENS1_24FormatConversionSpecImplEPv, symObjAddr: 0x22C0, symBinAddr: 0x64224, symSize: 0x44 }
  - { offset: 0xF36D, size: 0x8, addend: 0x0, symName: __ZN4absl12lts_2024072219str_format_internal13FormatArgImpl8DispatchImEEbNS2_4DataENS1_24FormatConversionSpecImplEPv, symObjAddr: 0x231C, symBinAddr: 0x64268, symSize: 0x38 }
  - { offset: 0xF4A9, size: 0x8, addend: 0x0, symName: __ZN4absl12lts_2024072219str_format_internal13FormatArgImpl8DispatchIxEEbNS2_4DataENS1_24FormatConversionSpecImplEPv, symObjAddr: 0x236C, symBinAddr: 0x642A0, symSize: 0x44 }
  - { offset: 0xF5E5, size: 0x8, addend: 0x0, symName: __ZN4absl12lts_2024072219str_format_internal13FormatArgImpl8DispatchIyEEbNS2_4DataENS1_24FormatConversionSpecImplEPv, symObjAddr: 0x23C8, symBinAddr: 0x642E4, symSize: 0x38 }
  - { offset: 0xF6C9, size: 0x8, addend: 0x0, symName: __ZN4absl12lts_2024072219str_format_internal13FormatArgImpl8DispatchINS0_6int128EEEbNS2_4DataENS1_24FormatConversionSpecImplEPv, symObjAddr: 0x2418, symBinAddr: 0x6431C, symSize: 0x40 }
  - { offset: 0xF793, size: 0x8, addend: 0x0, symName: __ZN4absl12lts_2024072219str_format_internal13FormatArgImpl8DispatchINS0_7uint128EEEbNS2_4DataENS1_24FormatConversionSpecImplEPv, symObjAddr: 0x2470, symBinAddr: 0x6435C, symSize: 0x40 }
  - { offset: 0xF888, size: 0x8, addend: 0x0, symName: __ZN4absl12lts_2024072219str_format_internal13FormatArgImpl8DispatchIfEEbNS2_4DataENS1_24FormatConversionSpecImplEPv, symObjAddr: 0x24C8, symBinAddr: 0x6439C, symSize: 0x48 }
  - { offset: 0xF956, size: 0x8, addend: 0x0, symName: _OUTLINED_FUNCTION_6, symObjAddr: 0x38F4, symBinAddr: 0x6ED8, symSize: 0x14 }
  - { offset: 0xF9D6, size: 0x8, addend: 0x0, symName: __ZN4absl12lts_2024072219str_format_internal13FormatArgImpl8DispatchIdEEbNS2_4DataENS1_24FormatConversionSpecImplEPv, symObjAddr: 0x2568, symBinAddr: 0x643E4, symSize: 0x48 }
  - { offset: 0xFAD1, size: 0x8, addend: 0x0, symName: __ZN4absl12lts_2024072219str_format_internal13FormatArgImpl8DispatchIeEEbNS2_4DataENS1_24FormatConversionSpecImplEPv, symObjAddr: 0x2608, symBinAddr: 0x6442C, symSize: 0x48 }
  - { offset: 0xFBA1, size: 0x8, addend: 0x0, symName: __ZN4absl12lts_2024072219str_format_internal13FormatArgImpl8DispatchIPKcEEbNS2_4DataENS1_24FormatConversionSpecImplEPv, symObjAddr: 0x26A8, symBinAddr: 0x64474, symSize: 0x40 }
  - { offset: 0xFCC2, size: 0x8, addend: 0x0, symName: __ZN4absl12lts_2024072219str_format_internal13FormatArgImpl8DispatchINSt3__112basic_stringIcNS4_11char_traitsIcEENS4_9allocatorIcEEEEEEbNS2_4DataENS1_24FormatConversionSpecImplEPv, symObjAddr: 0x27C4, symBinAddr: 0x644B4, symSize: 0x44 }
  - { offset: 0xFDCD, size: 0x8, addend: 0x0, symName: __ZN4absl12lts_2024072219str_format_internal13FormatArgImpl8DispatchINS0_11string_viewEEEbNS2_4DataENS1_24FormatConversionSpecImplEPv, symObjAddr: 0x2864, symBinAddr: 0x644F8, symSize: 0x58 }
  - { offset: 0xFE68, size: 0x8, addend: 0x0, symName: __ZN4absl12lts_2024072219str_format_internal13FormatArgImpl8DispatchIPKwEEbNS2_4DataENS1_24FormatConversionSpecImplEPv, symObjAddr: 0x290C, symBinAddr: 0x64550, symSize: 0x40 }
  - { offset: 0xFF9C, size: 0x8, addend: 0x0, symName: __ZN4absl12lts_2024072219str_format_internal13FormatArgImpl8DispatchINSt3__112basic_stringIwNS4_11char_traitsIwEENS4_9allocatorIwEEEEEEbNS2_4DataENS1_24FormatConversionSpecImplEPv, symObjAddr: 0x2A04, symBinAddr: 0x64590, symSize: 0x54 }
  - { offset: 0x105B1, size: 0x8, addend: 0x0, symName: __ZN4absl12lts_2024072219str_format_internal12_GLOBAL__N_19IntDigits15PrintAsHexLowerINS0_7uint128EEEvT_, symObjAddr: 0x3358, symBinAddr: 0x6DA4, symSize: 0x54 }
  - { offset: 0x10665, size: 0x8, addend: 0x0, symName: __ZN4absl12lts_2024072219str_format_internal12_GLOBAL__N_19IntDigits10PrintAsDecENS0_7uint128Eb, symObjAddr: 0x33AC, symBinAddr: 0x6DF8, symSize: 0xB4 }
  - { offset: 0x108B0, size: 0x8, addend: 0x0, symName: _OUTLINED_FUNCTION_1, symObjAddr: 0x38C8, symBinAddr: 0x6EB8, symSize: 0x8 }
  - { offset: 0x108C8, size: 0x8, addend: 0x0, symName: _OUTLINED_FUNCTION_3, symObjAddr: 0x38D8, symBinAddr: 0x6EC8, symSize: 0x8 }
  - { offset: 0x12BA3, size: 0x8, addend: 0x0, symName: __ZN4absl12lts_2024072215AsciiStrToLowerEPNSt3__112basic_stringIcNS1_11char_traitsIcEENS1_9allocatorIcEEEE, symObjAddr: 0x0, symBinAddr: 0x6F04, symSize: 0x14 }
  - { offset: 0x12BCC, size: 0x8, addend: 0x0, symName: __ZN4absl12lts_2024072214ascii_internal13kPropertyBitsE, symObjAddr: 0x31C, symBinAddr: 0x6BBD0, symSize: 0x0 }
  - { offset: 0x12BE6, size: 0x8, addend: 0x0, symName: __ZN4absl12lts_2024072214ascii_internal8kToLowerE, symObjAddr: 0x41C, symBinAddr: 0x6BCD0, symSize: 0x0 }
  - { offset: 0x12C00, size: 0x8, addend: 0x0, symName: __ZN4absl12lts_2024072214ascii_internal8kToUpperE, symObjAddr: 0x51C, symBinAddr: 0x6BDD0, symSize: 0x0 }
  - { offset: 0x12C1B, size: 0x8, addend: 0x0, symName: __ZN4absl12lts_2024072214ascii_internal16AsciiStrCaseFoldILb0EEEvPcm, symObjAddr: 0x14, symBinAddr: 0x6F18, symSize: 0x38 }
  - { offset: 0x12D83, size: 0x8, addend: 0x0, symName: __ZN4absl12lts_2024072214ascii_internal20AsciiStrCaseFoldLongILb0EEEvPcm, symObjAddr: 0x1EC, symBinAddr: 0x70F0, symSize: 0x5C }
  - { offset: 0x12E25, size: 0x8, addend: 0x0, symName: __ZN4absl12lts_2024072214ascii_internal20AsciiStrCaseFoldLongILb1EEEvPcm, symObjAddr: 0x248, symBinAddr: 0x714C, symSize: 0x5C }
  - { offset: 0x12E42, size: 0x8, addend: 0x0, symName: __ZN4absl12lts_2024072214ascii_internal16AsciiStrCaseFoldILb1EEEvPcm, symObjAddr: 0x60, symBinAddr: 0x6F64, symSize: 0x38 }
  - { offset: 0x12FAA, size: 0x8, addend: 0x0, symName: __ZN4absl12lts_2024072214ascii_internal20AsciiStrCaseFoldLongILb1EEEvPcm, symObjAddr: 0x248, symBinAddr: 0x714C, symSize: 0x5C }
  - { offset: 0x1304C, size: 0x8, addend: 0x0, symName: __ZNK4absl12lts_2024072211string_view6substrEmm, symObjAddr: 0x2A4, symBinAddr: 0x71A8, symSize: 0x3C }
  - { offset: 0x1307B, size: 0x8, addend: 0x0, symName: __ZN4absl12lts_2024072215AsciiStrToLowerEPNSt3__112basic_stringIcNS1_11char_traitsIcEENS1_9allocatorIcEEEE, symObjAddr: 0x0, symBinAddr: 0x6F04, symSize: 0x14 }
  - { offset: 0x130A7, size: 0x8, addend: 0x0, symName: __ZN4absl12lts_2024072215AsciiStrToLowerEPNSt3__112basic_stringIcNS1_11char_traitsIcEENS1_9allocatorIcEEEE, symObjAddr: 0x0, symBinAddr: 0x6F04, symSize: 0x14 }
  - { offset: 0x130C8, size: 0x8, addend: 0x0, symName: __ZN4absl12lts_2024072215AsciiStrToLowerEPNSt3__112basic_stringIcNS1_11char_traitsIcEENS1_9allocatorIcEEEE, symObjAddr: 0x0, symBinAddr: 0x6F04, symSize: 0x14 }
  - { offset: 0x130E4, size: 0x8, addend: 0x0, symName: __ZN4absl12lts_2024072215AsciiStrToLowerEPNSt3__112basic_stringIcNS1_11char_traitsIcEENS1_9allocatorIcEEEE, symObjAddr: 0x0, symBinAddr: 0x6F04, symSize: 0x14 }
  - { offset: 0x13145, size: 0x8, addend: 0x0, symName: __ZN4absl12lts_2024072215AsciiStrToUpperEPNSt3__112basic_stringIcNS1_11char_traitsIcEENS1_9allocatorIcEEEE, symObjAddr: 0x4C, symBinAddr: 0x6F50, symSize: 0x14 }
  - { offset: 0x13171, size: 0x8, addend: 0x0, symName: __ZN4absl12lts_2024072215AsciiStrToUpperEPNSt3__112basic_stringIcNS1_11char_traitsIcEENS1_9allocatorIcEEEE, symObjAddr: 0x4C, symBinAddr: 0x6F50, symSize: 0x14 }
  - { offset: 0x13192, size: 0x8, addend: 0x0, symName: __ZN4absl12lts_2024072215AsciiStrToUpperEPNSt3__112basic_stringIcNS1_11char_traitsIcEENS1_9allocatorIcEEEE, symObjAddr: 0x4C, symBinAddr: 0x6F50, symSize: 0x14 }
  - { offset: 0x131AE, size: 0x8, addend: 0x0, symName: __ZN4absl12lts_2024072215AsciiStrToUpperEPNSt3__112basic_stringIcNS1_11char_traitsIcEENS1_9allocatorIcEEEE, symObjAddr: 0x4C, symBinAddr: 0x6F50, symSize: 0x14 }
  - { offset: 0x13295, size: 0x8, addend: 0x0, symName: __ZN4absl12lts_2024072226RemoveExtraAsciiWhitespaceEPNSt3__112basic_stringIcNS1_11char_traitsIcEENS1_9allocatorIcEEEE, symObjAddr: 0x98, symBinAddr: 0x6F9C, symSize: 0x154 }
  - { offset: 0x1615C, size: 0x8, addend: 0x0, symName: __ZNK4absl12lts_2024072211string_view6substrEmm, symObjAddr: 0x2A4, symBinAddr: 0x71A8, symSize: 0x3C }
  - { offset: 0x1622E, size: 0x8, addend: 0x0, symName: __ZNK4absl12lts_2024072211string_view6substrEmm.cold.1, symObjAddr: 0x2E0, symBinAddr: 0x6462C, symSize: 0x28 }
  - { offset: 0x1632A, size: 0x8, addend: 0x0, symName: __ZNK4absl12lts_2024072211string_view6substrEmm.cold.2, symObjAddr: 0x308, symBinAddr: 0x64654, symSize: 0x14 }
  - { offset: 0x16342, size: 0x8, addend: 0x0, symName: __ZNK4absl12lts_2024072211string_view6substrEmm.cold.1, symObjAddr: 0x2E0, symBinAddr: 0x6462C, symSize: 0x28 }
  - { offset: 0x1826C, size: 0x8, addend: 0x0, symName: __ZN4absl12lts_2024072212bad_any_castD2Ev, symObjAddr: 0x0, symBinAddr: 0x71E4, symSize: 0x4 }
  - { offset: 0x182F5, size: 0x8, addend: 0x0, symName: __ZN4absl12lts_2024072212any_internal15ThrowBadAnyCastEv, symObjAddr: 0x28, symBinAddr: 0x720C, symSize: 0x2C }
  - { offset: 0x18FFD, size: 0x8, addend: 0x0, symName: __ZN4absl12lts_2024072212bad_any_castD2Ev, symObjAddr: 0x0, symBinAddr: 0x71E4, symSize: 0x4 }
  - { offset: 0x1903E, size: 0x8, addend: 0x0, symName: __ZN4absl12lts_2024072212bad_any_castD1Ev, symObjAddr: 0x4, symBinAddr: 0x71E8, symSize: 0x4 }
  - { offset: 0x19060, size: 0x8, addend: 0x0, symName: __ZN4absl12lts_2024072212bad_any_castD1Ev, symObjAddr: 0x4, symBinAddr: 0x71E8, symSize: 0x4 }
  - { offset: 0x19096, size: 0x8, addend: 0x0, symName: __ZN4absl12lts_2024072212bad_any_castD0Ev, symObjAddr: 0x8, symBinAddr: 0x71EC, symSize: 0x14 }
  - { offset: 0x190F9, size: 0x8, addend: 0x0, symName: __ZNK4absl12lts_2024072212bad_any_cast4whatEv, symObjAddr: 0x1C, symBinAddr: 0x7200, symSize: 0xC }
  - { offset: 0x1911E, size: 0x8, addend: 0x0, symName: __ZN4absl12lts_2024072212bad_any_castC1Ev, symObjAddr: 0x54, symBinAddr: 0x7238, symSize: 0x20 }
  - { offset: 0x1B072, size: 0x8, addend: 0x0, symName: __ZN4absl12lts_2024072219bad_optional_accessD2Ev, symObjAddr: 0x0, symBinAddr: 0x7258, symSize: 0x4 }
  - { offset: 0x1B0FC, size: 0x8, addend: 0x0, symName: __ZN4absl12lts_2024072217optional_internal25throw_bad_optional_accessEv, symObjAddr: 0x28, symBinAddr: 0x7280, symSize: 0x30 }
  - { offset: 0x1BCCA, size: 0x8, addend: 0x0, symName: __ZN4absl12lts_2024072219bad_optional_accessD2Ev, symObjAddr: 0x0, symBinAddr: 0x7258, symSize: 0x4 }
  - { offset: 0x1BD0B, size: 0x8, addend: 0x0, symName: __ZN4absl12lts_2024072219bad_optional_accessD1Ev, symObjAddr: 0x4, symBinAddr: 0x725C, symSize: 0x4 }
  - { offset: 0x1BD2D, size: 0x8, addend: 0x0, symName: __ZN4absl12lts_2024072219bad_optional_accessD1Ev, symObjAddr: 0x4, symBinAddr: 0x725C, symSize: 0x4 }
  - { offset: 0x1BD63, size: 0x8, addend: 0x0, symName: __ZN4absl12lts_2024072219bad_optional_accessD0Ev, symObjAddr: 0x8, symBinAddr: 0x7260, symSize: 0x14 }
  - { offset: 0x1BDC6, size: 0x8, addend: 0x0, symName: __ZNK4absl12lts_2024072219bad_optional_access4whatEv, symObjAddr: 0x1C, symBinAddr: 0x7274, symSize: 0xC }
  - { offset: 0x1DD10, size: 0x8, addend: 0x0, symName: __ZN4absl12lts_2024072218bad_variant_accessD2Ev, symObjAddr: 0x0, symBinAddr: 0x72B0, symSize: 0x4 }
  - { offset: 0x1DD9A, size: 0x8, addend: 0x0, symName: __ZN4absl12lts_2024072216variant_internal21ThrowBadVariantAccessEv, symObjAddr: 0x28, symBinAddr: 0x72D8, symSize: 0x30 }
  - { offset: 0x1DDED, size: 0x8, addend: 0x0, symName: __ZN4absl12lts_2024072216variant_internal7RethrowEv, symObjAddr: 0x58, symBinAddr: 0x7308, symSize: 0xC }
  - { offset: 0x1E982, size: 0x8, addend: 0x0, symName: __ZN4absl12lts_2024072218bad_variant_accessD2Ev, symObjAddr: 0x0, symBinAddr: 0x72B0, symSize: 0x4 }
  - { offset: 0x1E9C3, size: 0x8, addend: 0x0, symName: __ZN4absl12lts_2024072218bad_variant_accessD1Ev, symObjAddr: 0x4, symBinAddr: 0x72B4, symSize: 0x4 }
  - { offset: 0x1E9E5, size: 0x8, addend: 0x0, symName: __ZN4absl12lts_2024072218bad_variant_accessD1Ev, symObjAddr: 0x4, symBinAddr: 0x72B4, symSize: 0x4 }
  - { offset: 0x1EA1B, size: 0x8, addend: 0x0, symName: __ZN4absl12lts_2024072218bad_variant_accessD0Ev, symObjAddr: 0x8, symBinAddr: 0x72B8, symSize: 0x14 }
  - { offset: 0x1EA7E, size: 0x8, addend: 0x0, symName: __ZNK4absl12lts_2024072218bad_variant_access4whatEv, symObjAddr: 0x1C, symBinAddr: 0x72CC, symSize: 0xC }
  - { offset: 0x209C8, size: 0x8, addend: 0x0, symName: __ZN4absl12lts_202407227Barrier5BlockEv, symObjAddr: 0x0, symBinAddr: 0x7314, symSize: 0x180 }
  - { offset: 0x223B3, size: 0x8, addend: 0x0, symName: __ZN4absl12lts_20240722L6IsZeroEPv, symObjAddr: 0x180, symBinAddr: 0x7494, symSize: 0x10 }
  - { offset: 0x26C26, size: 0x8, addend: 0x0, symName: __ZN4absl12lts_202407227Barrier5BlockEv, symObjAddr: 0x0, symBinAddr: 0x7314, symSize: 0x180 }
  - { offset: 0x29274, size: 0x8, addend: 0x0, symName: __ZN4absl12lts_2024072219str_format_internal9SummarizeENS1_21UntypedFormatSpecImplENS0_4SpanIKNS1_13FormatArgImplEEE, symObjAddr: 0x19C, symBinAddr: 0x7650, symSize: 0x314 }
  - { offset: 0x29F37, size: 0x8, addend: 0x0, symName: __ZN4absl12lts_2024072219str_format_internal13FormatUntypedENS1_17FormatRawSinkImplENS1_21UntypedFormatSpecImplENS0_4SpanIKNS1_13FormatArgImplEEE, symObjAddr: 0x4B0, symBinAddr: 0x7964, symSize: 0x2BC }
  - { offset: 0x2A9BB, size: 0x8, addend: 0x0, symName: __ZN4absl12lts_2024072219str_format_internal12BindWithPackEPKNS1_17UnboundConversionENS0_4SpanIKNS1_13FormatArgImplEEEPNS1_15BoundConversionE, symObjAddr: 0x0, symBinAddr: 0x74B4, symSize: 0x30 }
  - { offset: 0x2AE73, size: 0x8, addend: 0x0, symName: __ZN4absl12lts_2024072219str_format_internal10AppendPackEPNSt3__112basic_stringIcNS2_11char_traitsIcEENS2_9allocatorIcEEEENS1_21UntypedFormatSpecImplENS0_4SpanIKNS1_13FormatArgImplEEE, symObjAddr: 0x7D0, symBinAddr: 0x7C84, symSize: 0x64 }
  - { offset: 0x2AF30, size: 0x8, addend: 0x0, symName: __ZN4absl12lts_2024072219str_format_internal10FormatPackENS1_21UntypedFormatSpecImplENS0_4SpanIKNS1_13FormatArgImplEEE, symObjAddr: 0x834, symBinAddr: 0x7CE8, symSize: 0x70 }
  - { offset: 0x2B190, size: 0x8, addend: 0x0, symName: __ZN4absl12lts_2024072219str_format_internal7FprintFEP7__sFILENS1_21UntypedFormatSpecImplENS0_4SpanIKNS1_13FormatArgImplEEE, symObjAddr: 0x8A4, symBinAddr: 0x7D58, symSize: 0x8C }
  - { offset: 0x2B2BF, size: 0x8, addend: 0x0, symName: __ZN4absl12lts_2024072219str_format_internal8SnprintFEPcmNS1_21UntypedFormatSpecImplENS0_4SpanIKNS1_13FormatArgImplEEE, symObjAddr: 0x930, symBinAddr: 0x7DE4, symSize: 0x7C }
  - { offset: 0x30C71, size: 0x8, addend: 0x0, symName: __ZNSt3__124__put_character_sequenceB8ne190102IcNS_11char_traitsIcEEEERNS_13basic_ostreamIT_T0_EES7_PKS4_m, symObjAddr: 0x140C, symBinAddr: 0x8870, symSize: 0x168 }
  - { offset: 0x3208E, size: 0x8, addend: 0x0, symName: __ZNSt3__116__pad_and_outputB8ne190102IcNS_11char_traitsIcEEEENS_19ostreambuf_iteratorIT_T0_EES6_PKS4_S8_S8_RNS_8ios_baseES4_, symObjAddr: 0x1574, symBinAddr: 0x89D8, symSize: 0x13C }
  - { offset: 0x326B9, size: 0x8, addend: 0x0, symName: __ZNSt3__120__throw_length_errorB8ne190102EPKc, symObjAddr: 0x1764, symBinAddr: 0x8BC8, symSize: 0x50 }
  - { offset: 0x3360A, size: 0x8, addend: 0x0, symName: __ZSt28__throw_bad_array_new_lengthB8ne190102v, symObjAddr: 0x17D8, symBinAddr: 0x8C3C, symSize: 0x28 }
  - { offset: 0x33FFF, size: 0x8, addend: 0x0, symName: __ZN4absl12lts_2024072219str_format_internal12_GLOBAL__N_110ArgContext4BindEPKNS1_17UnboundConversionEPNS1_15BoundConversionE, symObjAddr: 0x30, symBinAddr: 0x74E4, symSize: 0x16C }
  - { offset: 0x3443B, size: 0x8, addend: 0x0, symName: __ZNK4absl12lts_202407224SpanIKNS0_19str_format_internal13FormatArgImplEEixEm, symObjAddr: 0x9AC, symBinAddr: 0x7E60, symSize: 0x4C }
  - { offset: 0x34A37, size: 0x8, addend: 0x0, symName: __ZNK4absl12lts_2024072219str_format_internal21UntypedFormatSpecImpl3strEv, symObjAddr: 0xA4C, symBinAddr: 0x7EB0, symSize: 0x2C }
  - { offset: 0x34AE0, size: 0x8, addend: 0x0, symName: __ZN4absl12lts_2024072219str_format_internal12_GLOBAL__N_117ConverterConsumerINS2_20SummarizingConverterEE10ConvertOneERKNS1_17UnboundConversionENS0_11string_viewE, symObjAddr: 0xA78, symBinAddr: 0x7EDC, symSize: 0x2D8 }
  - { offset: 0x34B6F, size: 0x8, addend: 0x0, symName: __ZN4absl12lts_2024072219str_format_internal12_GLOBAL__N_117ConverterConsumerINS2_20SummarizingConverterEE10ConvertOneERKNS1_17UnboundConversionENS0_11string_viewE, symObjAddr: 0xA78, symBinAddr: 0x7EDC, symSize: 0x2D8 }
  - { offset: 0x3597B, size: 0x8, addend: 0x0, symName: __ZNSt3__112basic_stringIcNS_11char_traitsIcEENS_9allocatorIcEEEC2B8ne190102ILi0EEEPKc, symObjAddr: 0x1A94, symBinAddr: 0x8E70, symSize: 0xA8 }
  - { offset: 0x35BCA, size: 0x8, addend: 0x0, symName: __ZN4absl12lts_2024072219str_format_internal12_GLOBAL__N_117ConverterConsumerINS2_16DefaultConverterEE10ConvertOneERKNS1_17UnboundConversionENS0_11string_viewE, symObjAddr: 0x1B3C, symBinAddr: 0x8F18, symSize: 0x68 }
  - { offset: 0x35C5B, size: 0x8, addend: 0x0, symName: __ZN4absl12lts_2024072219str_format_internal17FormatRawSinkImpl5FlushINSt3__112basic_stringIcNS4_11char_traitsIcEENS4_9allocatorIcEEEEEEvPvNS0_11string_viewE, symObjAddr: 0xA48, symBinAddr: 0x7EAC, symSize: 0x4 }
  - { offset: 0x35DAE, size: 0x8, addend: 0x0, symName: __ZN4absl12lts_2024072219str_format_internal12_GLOBAL__N_117ConverterConsumerINS2_16DefaultConverterEE10ConvertOneERKNS1_17UnboundConversionENS0_11string_viewE, symObjAddr: 0x1B3C, symBinAddr: 0x8F18, symSize: 0x68 }
  - { offset: 0x35FE8, size: 0x8, addend: 0x0, symName: __ZNK4absl12lts_2024072219str_format_internal10Streamable5PrintERNSt3__113basic_ostreamIcNS3_11char_traitsIcEEEE, symObjAddr: 0x76C, symBinAddr: 0x7C20, symSize: 0x64 }
  - { offset: 0x36171, size: 0x8, addend: 0x0, symName: __ZN4absl12lts_2024072219str_format_internal10FormatPackENS1_21UntypedFormatSpecImplENS0_4SpanIKNS1_13FormatArgImplEEE.cold.1, symObjAddr: 0x1BB0, symBinAddr: 0x64668, symSize: 0x24 }
  - { offset: 0x3618C, size: 0x8, addend: 0x0, symName: __ZN4absl12lts_2024072219str_format_internal10FormatPackENS1_21UntypedFormatSpecImplENS0_4SpanIKNS1_13FormatArgImplEEE.cold.1, symObjAddr: 0x1BB0, symBinAddr: 0x64668, symSize: 0x24 }
  - { offset: 0x361A0, size: 0x8, addend: 0x0, symName: __ZN4absl12lts_2024072219str_format_internal10FormatPackENS1_21UntypedFormatSpecImplENS0_4SpanIKNS1_13FormatArgImplEEE.cold.1, symObjAddr: 0x1BB0, symBinAddr: 0x64668, symSize: 0x24 }
  - { offset: 0x361B5, size: 0x8, addend: 0x0, symName: __ZN4absl12lts_2024072219str_format_internal10FormatPackENS1_21UntypedFormatSpecImplENS0_4SpanIKNS1_13FormatArgImplEEE.cold.1, symObjAddr: 0x1BB0, symBinAddr: 0x64668, symSize: 0x24 }
  - { offset: 0x363FB, size: 0x8, addend: 0x0, symName: __ZN4absl12lts_2024072219str_format_internal17FormatRawSinkImpl5FlushINSt3__112basic_stringIcNS4_11char_traitsIcEENS4_9allocatorIcEEEEEEvPvNS0_11string_viewE, symObjAddr: 0xA48, symBinAddr: 0x7EAC, symSize: 0x4 }
  - { offset: 0x3642A, size: 0x8, addend: 0x0, symName: __ZN4absl12lts_2024072219str_format_internal17FormatRawSinkImpl5FlushINSt3__112basic_stringIcNS4_11char_traitsIcEENS4_9allocatorIcEEEEEEvPvNS0_11string_viewE, symObjAddr: 0xA48, symBinAddr: 0x7EAC, symSize: 0x4 }
  - { offset: 0x36445, size: 0x8, addend: 0x0, symName: __ZN4absl12lts_2024072219str_format_internal17FormatRawSinkImpl5FlushINSt3__112basic_stringIcNS4_11char_traitsIcEENS4_9allocatorIcEEEEEEvPvNS0_11string_viewE, symObjAddr: 0xA48, symBinAddr: 0x7EAC, symSize: 0x4 }
  - { offset: 0x3648D, size: 0x8, addend: 0x0, symName: __ZNK4absl12lts_2024072219str_format_internal21UntypedFormatSpecImpl3strEv.cold.2, symObjAddr: 0x1C24, symBinAddr: 0x6468C, symSize: 0x28 }
  - { offset: 0x36988, size: 0x8, addend: 0x0, symName: __ZNSt3__119basic_ostringstreamIcNS_11char_traitsIcEENS_9allocatorIcEEEC1B8ne190102Ev, symObjAddr: 0xD50, symBinAddr: 0x81B4, symSize: 0xD4 }
  - { offset: 0x36A76, size: 0x8, addend: 0x0, symName: __ZN4absl12lts_2024072213InlinedVectorINS0_19str_format_internal13FormatArgImplELm4ENSt3__19allocatorIS3_EEEC2IPKS3_Li0EEET_SB_RKS6_, symObjAddr: 0x1800, symBinAddr: 0x8C64, symSize: 0x4C }
  - { offset: 0x36D31, size: 0x8, addend: 0x0, symName: __ZNKSt3__115basic_stringbufIcNS_11char_traitsIcEENS_9allocatorIcEEE3strEv, symObjAddr: 0x19A8, symBinAddr: 0x8D84, symSize: 0x4C }
  - { offset: 0x36ED2, size: 0x8, addend: 0x0, symName: __ZNSt3__119basic_ostringstreamIcNS_11char_traitsIcEENS_9allocatorIcEEED1Ev, symObjAddr: 0xE24, symBinAddr: 0x8288, symSize: 0x8C }
  - { offset: 0x37151, size: 0x8, addend: 0x0, symName: __ZNSt3__119basic_ostringstreamIcNS_11char_traitsIcEENS_9allocatorIcEEED0Ev, symObjAddr: 0xEB0, symBinAddr: 0x8314, symSize: 0x8C }
  - { offset: 0x372FE, size: 0x8, addend: 0x0, symName: __ZTv0_n24_NSt3__119basic_ostringstreamIcNS_11char_traitsIcEENS_9allocatorIcEEED1Ev, symObjAddr: 0xF3C, symBinAddr: 0x83A0, symSize: 0x8C }
  - { offset: 0x374BD, size: 0x8, addend: 0x0, symName: __ZTv0_n24_NSt3__119basic_ostringstreamIcNS_11char_traitsIcEENS_9allocatorIcEEED0Ev, symObjAddr: 0xFC8, symBinAddr: 0x842C, symSize: 0x94 }
  - { offset: 0x3767C, size: 0x8, addend: 0x0, symName: __ZNSt3__115basic_stringbufIcNS_11char_traitsIcEENS_9allocatorIcEEED1Ev, symObjAddr: 0x105C, symBinAddr: 0x84C0, symSize: 0x40 }
  - { offset: 0x377E5, size: 0x8, addend: 0x0, symName: __ZNSt3__115basic_stringbufIcNS_11char_traitsIcEENS_9allocatorIcEEED0Ev, symObjAddr: 0x109C, symBinAddr: 0x8500, symSize: 0x44 }
  - { offset: 0x37A8D, size: 0x8, addend: 0x0, symName: __ZNSt3__115basic_stringbufIcNS_11char_traitsIcEENS_9allocatorIcEEE7seekoffExNS_8ios_base7seekdirEj, symObjAddr: 0x10E0, symBinAddr: 0x8544, symSize: 0x100 }
  - { offset: 0x37CB0, size: 0x8, addend: 0x0, symName: __ZNSt3__115basic_stringbufIcNS_11char_traitsIcEENS_9allocatorIcEEE7seekposENS_4fposI11__mbstate_tEEj, symObjAddr: 0x11E0, symBinAddr: 0x8644, symSize: 0x18 }
  - { offset: 0x37D4F, size: 0x8, addend: 0x0, symName: __ZNSt3__115basic_stringbufIcNS_11char_traitsIcEENS_9allocatorIcEEE9underflowEv, symObjAddr: 0x11F8, symBinAddr: 0x865C, symSize: 0x50 }
  - { offset: 0x37DF1, size: 0x8, addend: 0x0, symName: __ZNSt3__115basic_stringbufIcNS_11char_traitsIcEENS_9allocatorIcEEE9pbackfailEi, symObjAddr: 0x1248, symBinAddr: 0x86AC, symSize: 0x6C }
  - { offset: 0x37FB5, size: 0x8, addend: 0x0, symName: __ZNSt3__115basic_stringbufIcNS_11char_traitsIcEENS_9allocatorIcEEE8overflowEi, symObjAddr: 0x12B4, symBinAddr: 0x8718, symSize: 0x158 }
  - { offset: 0x38575, size: 0x8, addend: 0x0, symName: __ZNSt3__112basic_stringIcNS_11char_traitsIcEENS_9allocatorIcEEEC2B8ne190102Emc, symObjAddr: 0x16B0, symBinAddr: 0x8B14, symSize: 0xA0 }
  - { offset: 0x3879C, size: 0x8, addend: 0x0, symName: __ZNKSt3__112basic_stringIcNS_11char_traitsIcEENS_9allocatorIcEEE20__throw_length_errorB8ne190102Ev, symObjAddr: 0x1750, symBinAddr: 0x8BB4, symSize: 0x14 }
  - { offset: 0x388F2, size: 0x8, addend: 0x0, symName: __ZNKSt3__112basic_stringIcNS_11char_traitsIcEENS_9allocatorIcEEE20__throw_length_errorB8ne190102Ev, symObjAddr: 0x1750, symBinAddr: 0x8BB4, symSize: 0x14 }
  - { offset: 0x3891B, size: 0x8, addend: 0x0, symName: __ZNSt3__120__throw_length_errorB8ne190102EPKc, symObjAddr: 0x1764, symBinAddr: 0x8BC8, symSize: 0x50 }
  - { offset: 0x38926, size: 0x8, addend: 0x0, symName: __ZNSt12length_errorC1B8ne190102EPKc, symObjAddr: 0x17B4, symBinAddr: 0x8C18, symSize: 0x24 }
  - { offset: 0x38B20, size: 0x8, addend: 0x0, symName: __ZN4absl12lts_2024072223inlined_vector_internal7StorageINS0_19str_format_internal13FormatArgImplELm4ENSt3__19allocatorIS4_EEE10InitializeINS1_20IteratorValueAdapterIS7_PKS4_EEEEvT_m, symObjAddr: 0x184C, symBinAddr: 0x8CB0, symSize: 0xA0 }
  - { offset: 0x38DA9, size: 0x8, addend: 0x0, symName: __ZN4absl12lts_2024072223inlined_vector_internal13MallocAdapterINSt3__19allocatorINS0_19str_format_internal13FormatArgImplEEELb0EE8AllocateERS7_m, symObjAddr: 0x18EC, symBinAddr: 0x8D50, symSize: 0x34 }
  - { offset: 0x38F62, size: 0x8, addend: 0x0, symName: __ZN4absl12lts_2024072223inlined_vector_internal13MallocAdapterINSt3__19allocatorINS0_19str_format_internal13FormatArgImplEEELb0EE8AllocateERS7_m, symObjAddr: 0x18EC, symBinAddr: 0x8D50, symSize: 0x34 }
  - { offset: 0x39020, size: 0x8, addend: 0x0, symName: __ZN4absl12lts_2024072223inlined_vector_internal7StorageINS0_19str_format_internal13FormatArgImplELm4ENSt3__19allocatorIS4_EEE10InitializeINS1_20IteratorValueAdapterIS7_PKS4_EEEEvT_m.cold.1, symObjAddr: 0x1C4C, symBinAddr: 0x646B4, symSize: 0x28 }
  - { offset: 0x3904E, size: 0x8, addend: 0x0, symName: __ZN4absl12lts_2024072223inlined_vector_internal7StorageINS0_19str_format_internal13FormatArgImplELm4ENSt3__19allocatorIS4_EEE10InitializeINS1_20IteratorValueAdapterIS7_PKS4_EEEEvT_m.cold.2, symObjAddr: 0x1C74, symBinAddr: 0x646DC, symSize: 0x28 }
  - { offset: 0x3928B, size: 0x8, addend: 0x0, symName: __ZNSt3__112basic_stringIcNS_11char_traitsIcEENS_9allocatorIcEEE16__init_with_sizeB8ne190102IPcS7_EEvT_T0_m, symObjAddr: 0x19F4, symBinAddr: 0x8DD0, symSize: 0xA0 }
  - { offset: 0x394E4, size: 0x8, addend: 0x0, symName: __ZNSt3__112basic_stringIcNS_11char_traitsIcEENS_9allocatorIcEEEC2B8ne190102ILi0EEEPKc, symObjAddr: 0x1A94, symBinAddr: 0x8E70, symSize: 0xA8 }
  - { offset: 0x39641, size: 0x8, addend: 0x0, symName: __ZN4absl12lts_2024072219str_format_internal17FormatRawSinkImpl5FlushINSt3__113basic_ostreamIcNS4_11char_traitsIcEEEEEEvPvNS0_11string_viewE, symObjAddr: 0x1BA4, symBinAddr: 0x8F80, symSize: 0x4 }
  - { offset: 0x39670, size: 0x8, addend: 0x0, symName: __ZN4absl12lts_2024072219str_format_internal17FormatRawSinkImpl5FlushINSt3__113basic_ostreamIcNS4_11char_traitsIcEEEEEEvPvNS0_11string_viewE, symObjAddr: 0x1BA4, symBinAddr: 0x8F80, symSize: 0x4 }
  - { offset: 0x3968B, size: 0x8, addend: 0x0, symName: __ZN4absl12lts_2024072219str_format_internal17FormatRawSinkImpl5FlushINSt3__113basic_ostreamIcNS4_11char_traitsIcEEEEEEvPvNS0_11string_viewE, symObjAddr: 0x1BA4, symBinAddr: 0x8F80, symSize: 0x4 }
  - { offset: 0x396B8, size: 0x8, addend: 0x0, symName: __ZN4absl12lts_2024072219str_format_internal17FormatRawSinkImpl5FlushINS1_11FILERawSinkEEEvPvNS0_11string_viewE, symObjAddr: 0x1BA8, symBinAddr: 0x8F84, symSize: 0x4 }
  - { offset: 0x396E7, size: 0x8, addend: 0x0, symName: __ZN4absl12lts_2024072219str_format_internal17FormatRawSinkImpl5FlushINS1_11FILERawSinkEEEvPvNS0_11string_viewE, symObjAddr: 0x1BA8, symBinAddr: 0x8F84, symSize: 0x4 }
  - { offset: 0x39702, size: 0x8, addend: 0x0, symName: __ZN4absl12lts_2024072219str_format_internal17FormatRawSinkImpl5FlushINS1_11FILERawSinkEEEvPvNS0_11string_viewE, symObjAddr: 0x1BA8, symBinAddr: 0x8F84, symSize: 0x4 }
  - { offset: 0x39726, size: 0x8, addend: 0x0, symName: __ZN4absl12lts_2024072219str_format_internal17FormatRawSinkImpl5FlushINS1_13BufferRawSinkEEEvPvNS0_11string_viewE, symObjAddr: 0x1BAC, symBinAddr: 0x8F88, symSize: 0x4 }
  - { offset: 0x39755, size: 0x8, addend: 0x0, symName: __ZN4absl12lts_2024072219str_format_internal17FormatRawSinkImpl5FlushINS1_13BufferRawSinkEEEvPvNS0_11string_viewE, symObjAddr: 0x1BAC, symBinAddr: 0x8F88, symSize: 0x4 }
  - { offset: 0x39770, size: 0x8, addend: 0x0, symName: __ZN4absl12lts_2024072219str_format_internal17FormatRawSinkImpl5FlushINS1_13BufferRawSinkEEEvPvNS0_11string_viewE, symObjAddr: 0x1BAC, symBinAddr: 0x8F88, symSize: 0x4 }
  - { offset: 0x3B659, size: 0x8, addend: 0x0, symName: __ZN4absl12lts_2024072212_GLOBAL__N_16IsDoneEPv, symObjAddr: 0x228, symBinAddr: 0x91B4, symSize: 0x8 }
  - { offset: 0x3C53F, size: 0x8, addend: 0x0, symName: __ZN4absl12lts_2024072215BlockingCounterC2Ei, symObjAddr: 0x0, symBinAddr: 0x8F8C, symSize: 0xA8 }
  - { offset: 0x3C80D, size: 0x8, addend: 0x0, symName: __ZN4absl12lts_2024072215BlockingCounterC1Ei, symObjAddr: 0xA8, symBinAddr: 0x9034, symSize: 0x4 }
  - { offset: 0x3C847, size: 0x8, addend: 0x0, symName: __ZN4absl12lts_2024072215BlockingCounterC1Ei, symObjAddr: 0xA8, symBinAddr: 0x9034, symSize: 0x4 }
  - { offset: 0x3C912, size: 0x8, addend: 0x0, symName: __ZN4absl12lts_2024072215BlockingCounter14DecrementCountEv, symObjAddr: 0xAC, symBinAddr: 0x9038, symSize: 0x68 }
  - { offset: 0x3CA30, size: 0x8, addend: 0x0, symName: __ZN4absl12lts_2024072215BlockingCounter14DecrementCountEv.cold.1, symObjAddr: 0x240, symBinAddr: 0x64704, symSize: 0x5C }
  - { offset: 0x3CA6A, size: 0x8, addend: 0x0, symName: __ZN4absl12lts_2024072215BlockingCounter4WaitEv, symObjAddr: 0x114, symBinAddr: 0x90A0, symSize: 0x114 }
  - { offset: 0x3EA79, size: 0x8, addend: 0x0, symName: __ZN4absl12lts_2024072210from_charsEPKcS2_RdNS0_12chars_formatE, symObjAddr: 0x0, symBinAddr: 0x91BC, symSize: 0x528 }
  - { offset: 0x4130A, size: 0x8, addend: 0x0, symName: __ZN4absl12lts_2024072212_GLOBAL__N_125kPower10MantissaHighTableE, symObjAddr: 0x10C8, symBinAddr: 0x6BF60, symSize: 0x0 }
  - { offset: 0x41325, size: 0x8, addend: 0x0, symName: __ZN4absl12lts_2024072212_GLOBAL__N_124kPower10MantissaLowTableE, symObjAddr: 0x2520, symBinAddr: 0x6D3B8, symSize: 0x0 }
  - { offset: 0x4187E, size: 0x8, addend: 0x0, symName: __ZN4absl12lts_2024072212_GLOBAL__N_114HandleEdgeCaseIdEEbRKNS0_16strings_internal11ParsedFloatEbPT_, symObjAddr: 0x998, symBinAddr: 0x9B54, symSize: 0x10C }
  - { offset: 0x41ABF, size: 0x8, addend: 0x0, symName: __ZN4absl12lts_2024072212_GLOBAL__N_130CalculateFromParsedHexadecimalIdEENS1_15CalculatedFloatERKNS0_16strings_internal11ParsedFloatE, symObjAddr: 0xAA4, symBinAddr: 0x9C60, symSize: 0x94 }
  - { offset: 0x41C40, size: 0x8, addend: 0x0, symName: __ZN4absl12lts_2024072212_GLOBAL__N_118ShiftRightAndRoundENS0_7uint128EibPb, symObjAddr: 0xB38, symBinAddr: 0x9CF4, symSize: 0xEC }
  - { offset: 0x41DE5, size: 0x8, addend: 0x0, symName: __ZN4absl12lts_2024072212_GLOBAL__N_111MustRoundUpEyiRKNS0_16strings_internal11ParsedFloatE, symObjAddr: 0xC24, symBinAddr: 0x9DE0, symSize: 0x268 }
  - { offset: 0x42328, size: 0x8, addend: 0x0, symName: __ZN4absl12lts_2024072212_GLOBAL__N_114HandleEdgeCaseIfEEbRKNS0_16strings_internal11ParsedFloatEbPT_, symObjAddr: 0xE8C, symBinAddr: 0xA048, symSize: 0x108 }
  - { offset: 0x42569, size: 0x8, addend: 0x0, symName: __ZN4absl12lts_2024072212_GLOBAL__N_130CalculateFromParsedHexadecimalIfEENS1_15CalculatedFloatERKNS0_16strings_internal11ParsedFloatE, symObjAddr: 0xF94, symBinAddr: 0xA150, symSize: 0x94 }
  - { offset: 0x426EA, size: 0x8, addend: 0x0, symName: __ZN4absl12lts_2024072212_GLOBAL__N_112EncodeResultIfEEvRKNS1_15CalculatedFloatEbPNS0_17from_chars_resultEPT_, symObjAddr: 0x1028, symBinAddr: 0xA1E4, symSize: 0xA0 }
  - { offset: 0x42CB1, size: 0x8, addend: 0x0, symName: __ZN4absl12lts_2024072210from_charsEPKcS2_RdNS0_12chars_formatE, symObjAddr: 0x0, symBinAddr: 0x91BC, symSize: 0x528 }
  - { offset: 0x432FC, size: 0x8, addend: 0x0, symName: __ZN4absl12lts_2024072210from_charsEPKcS2_RfNS0_12chars_formatE, symObjAddr: 0x528, symBinAddr: 0x96E4, symSize: 0x470 }
  - { offset: 0x45CA3, size: 0x8, addend: 0x0, symName: __ZN4absl12lts_2024072216strings_internal11BigUnsignedILi4EEC2Ev, symObjAddr: 0x0, symBinAddr: 0xA284, symSize: 0xC }
  - { offset: 0x45D07, size: 0x8, addend: 0x0, symName: __ZN4absl12lts_2024072216strings_internal12_GLOBAL__N_118kLargePowersOfFiveE, symObjAddr: 0x1CE8, symBinAddr: 0x6E870, symSize: 0x0 }
  - { offset: 0x45D3E, size: 0x8, addend: 0x0, symName: __ZN4absl12lts_2024072216strings_internal10kFiveToNthE, symObjAddr: 0x1C88, symBinAddr: 0x6E810, symSize: 0x0 }
  - { offset: 0x45D58, size: 0x8, addend: 0x0, symName: __ZN4absl12lts_2024072216strings_internal9kTenToNthE, symObjAddr: 0x1CC0, symBinAddr: 0x6E848, symSize: 0x0 }
  - { offset: 0x4913F, size: 0x8, addend: 0x0, symName: __ZN4absl12lts_2024072216strings_internal11BigUnsignedILi4EEC2Ev, symObjAddr: 0x0, symBinAddr: 0xA284, symSize: 0xC }
  - { offset: 0x4917E, size: 0x8, addend: 0x0, symName: __ZN4absl12lts_2024072216strings_internal11BigUnsignedILi4EEC1Ev, symObjAddr: 0xC, symBinAddr: 0xA290, symSize: 0xC }
  - { offset: 0x491A9, size: 0x8, addend: 0x0, symName: __ZN4absl12lts_2024072216strings_internal11BigUnsignedILi4EEC1Ev, symObjAddr: 0xC, symBinAddr: 0xA290, symSize: 0xC }
  - { offset: 0x491C3, size: 0x8, addend: 0x0, symName: __ZN4absl12lts_2024072216strings_internal11BigUnsignedILi4EEC2Ey, symObjAddr: 0x18, symBinAddr: 0xA29C, symSize: 0x28 }
  - { offset: 0x4920F, size: 0x8, addend: 0x0, symName: __ZN4absl12lts_2024072216strings_internal11BigUnsignedILi4EEC1Ey, symObjAddr: 0x40, symBinAddr: 0xA2C4, symSize: 0x28 }
  - { offset: 0x49238, size: 0x8, addend: 0x0, symName: __ZN4absl12lts_2024072216strings_internal11BigUnsignedILi4EEC1Ey, symObjAddr: 0x40, symBinAddr: 0xA2C4, symSize: 0x28 }
  - { offset: 0x4926A, size: 0x8, addend: 0x0, symName: __ZN4absl12lts_2024072216strings_internal11BigUnsignedILi4EEC2ENS0_11string_viewE, symObjAddr: 0x68, symBinAddr: 0xA2EC, symSize: 0x88 }
  - { offset: 0x4932A, size: 0x8, addend: 0x0, symName: __ZN4absl12lts_2024072216strings_internal11BigUnsignedILi4EE10ReadDigitsEPKcS5_i, symObjAddr: 0xF0, symBinAddr: 0xA374, symSize: 0x2D8 }
  - { offset: 0x4980B, size: 0x8, addend: 0x0, symName: __ZN4absl12lts_2024072216strings_internal11BigUnsignedILi4EE8Digits10Ev, symObjAddr: 0x3C8, symBinAddr: 0xA64C, symSize: 0x8 }
  - { offset: 0x49816, size: 0x8, addend: 0x0, symName: __ZN4absl12lts_2024072216strings_internal11BigUnsignedILi4EE21MultiplyByTenToTheNthEi, symObjAddr: 0x3D0, symBinAddr: 0xA654, symSize: 0x6C }
  - { offset: 0x49962, size: 0x8, addend: 0x0, symName: __ZN4absl12lts_2024072216strings_internal11BigUnsignedILi4EE10MultiplyByEj, symObjAddr: 0x668, symBinAddr: 0xA8EC, symSize: 0x9C }
  - { offset: 0x49A09, size: 0x8, addend: 0x0, symName: __ZN4absl12lts_2024072216strings_internal11BigUnsignedILi4EE10ReadDigitsEPKcS5_i.cold.1, symObjAddr: 0x1B48, symBinAddr: 0x64760, symSize: 0x28 }
  - { offset: 0x49A21, size: 0x8, addend: 0x0, symName: __ZN4absl12lts_2024072216strings_internal11BigUnsignedILi4EE8Digits10Ev, symObjAddr: 0x3C8, symBinAddr: 0xA64C, symSize: 0x8 }
  - { offset: 0x49A35, size: 0x8, addend: 0x0, symName: __ZN4absl12lts_2024072216strings_internal11BigUnsignedILi4EE22MultiplyByFiveToTheNthEi, symObjAddr: 0x7FC, symBinAddr: 0xAA80, symSize: 0x74 }
  - { offset: 0x49A8C, size: 0x8, addend: 0x0, symName: __ZN4absl12lts_2024072216strings_internal11BigUnsignedILi4EE9ShiftLeftEi, symObjAddr: 0x518, symBinAddr: 0xA79C, symSize: 0x150 }
  - { offset: 0x49C95, size: 0x8, addend: 0x0, symName: __ZN4absl12lts_2024072216strings_internal11BigUnsignedILi4EEC1ENS0_11string_viewE, symObjAddr: 0x43C, symBinAddr: 0xA6C0, symSize: 0x4 }
  - { offset: 0x49CCB, size: 0x8, addend: 0x0, symName: __ZN4absl12lts_2024072216strings_internal11BigUnsignedILi4EEC1ENS0_11string_viewE, symObjAddr: 0x43C, symBinAddr: 0xA6C0, symSize: 0x4 }
  - { offset: 0x49CEC, size: 0x8, addend: 0x0, symName: __ZN4absl12lts_2024072216strings_internal11BigUnsignedILi4EE17ReadFloatMantissaERKNS1_11ParsedFloatEi, symObjAddr: 0x440, symBinAddr: 0xA6C4, symSize: 0xA0 }
  - { offset: 0x49DC6, size: 0x8, addend: 0x0, symName: __ZN4absl12lts_2024072216strings_internal11BigUnsignedILi4EE9SetToZeroEv, symObjAddr: 0x4E0, symBinAddr: 0xA764, symSize: 0x38 }
  - { offset: 0x49DD1, size: 0x8, addend: 0x0, symName: __ZN4absl12lts_2024072216strings_internal11BigUnsignedILi4EE17ReadFloatMantissaERKNS1_11ParsedFloatEi.cold.1, symObjAddr: 0x1B70, symBinAddr: 0x64788, symSize: 0x28 }
  - { offset: 0x49DE9, size: 0x8, addend: 0x0, symName: __ZN4absl12lts_2024072216strings_internal11BigUnsignedILi4EE9SetToZeroEv, symObjAddr: 0x4E0, symBinAddr: 0xA764, symSize: 0x38 }
  - { offset: 0x49ED1, size: 0x8, addend: 0x0, symName: __ZN4absl12lts_2024072216strings_internal11BigUnsignedILi4EE10MultiplyByEy, symObjAddr: 0x704, symBinAddr: 0xA988, symSize: 0x80 }
  - { offset: 0x49F3C, size: 0x8, addend: 0x0, symName: __ZN4absl12lts_2024072216strings_internal11BigUnsignedILi4EE10MultiplyByEiPKj, symObjAddr: 0x784, symBinAddr: 0xAA08, symSize: 0x78 }
  - { offset: 0x49FE1, size: 0x8, addend: 0x0, symName: __ZN4absl12lts_2024072216strings_internal11BigUnsignedILi4EE12MultiplyStepEiPKjii, symObjAddr: 0xB50, symBinAddr: 0xADD4, symSize: 0xD0 }
  - { offset: 0x4A17E, size: 0x8, addend: 0x0, symName: __ZN4absl12lts_2024072216strings_internal11BigUnsignedILi4EE12FiveToTheNthEi, symObjAddr: 0x870, symBinAddr: 0xAAF4, symSize: 0xE0 }
  - { offset: 0x4A3AB, size: 0x8, addend: 0x0, symName: __ZNK4absl12lts_2024072216strings_internal11BigUnsignedILi4EE7GetWordEi, symObjAddr: 0x950, symBinAddr: 0xABD4, symSize: 0x24 }
  - { offset: 0x4A64B, size: 0x8, addend: 0x0, symName: __ZNK4absl12lts_2024072216strings_internal11BigUnsignedILi4EE8ToStringEv, symObjAddr: 0x974, symBinAddr: 0xABF8, symSize: 0x100 }
  - { offset: 0x4AA1D, size: 0x8, addend: 0x0, symName: __ZN4absl12lts_2024072216strings_internal11BigUnsignedILi4EE6DivModILj10EEEjv, symObjAddr: 0xA7C, symBinAddr: 0xAD00, symSize: 0x78 }
  - { offset: 0x4AA52, size: 0x8, addend: 0x0, symName: __ZN4absl12lts_2024072216strings_internal11BigUnsignedILi4EE6DivModILj10EEEjv, symObjAddr: 0xA7C, symBinAddr: 0xAD00, symSize: 0x78 }
  - { offset: 0x4AA7C, size: 0x8, addend: 0x0, symName: __ZNK4absl12lts_2024072216strings_internal11BigUnsignedILi4EE4sizeEv, symObjAddr: 0xA74, symBinAddr: 0xACF8, symSize: 0x8 }
  - { offset: 0x4AA9E, size: 0x8, addend: 0x0, symName: __ZNK4absl12lts_2024072216strings_internal11BigUnsignedILi4EE5wordsEv, symObjAddr: 0xAF4, symBinAddr: 0xAD78, symSize: 0x8 }
  - { offset: 0x4AAC5, size: 0x8, addend: 0x0, symName: __ZN4absl12lts_2024072216strings_internal11BigUnsignedILi4EE12AddWithCarryEij, symObjAddr: 0xAFC, symBinAddr: 0xAD80, symSize: 0x54 }
  - { offset: 0x4AB89, size: 0x8, addend: 0x0, symName: __ZN4absl12lts_2024072216strings_internal11BigUnsignedILi4EE12AddWithCarryEiy, symObjAddr: 0xC20, symBinAddr: 0xAEA4, symSize: 0xC8 }
  - { offset: 0x4AC4E, size: 0x8, addend: 0x0, symName: __ZN4absl12lts_2024072216strings_internal11BigUnsignedILi84EEC2Ev, symObjAddr: 0xCE8, symBinAddr: 0xAF6C, symSize: 0x38 }
  - { offset: 0x4AC8D, size: 0x8, addend: 0x0, symName: __ZN4absl12lts_2024072216strings_internal11BigUnsignedILi84EEC1Ev, symObjAddr: 0xD20, symBinAddr: 0xAFA4, symSize: 0x38 }
  - { offset: 0x4ACB8, size: 0x8, addend: 0x0, symName: __ZN4absl12lts_2024072216strings_internal11BigUnsignedILi84EEC1Ev, symObjAddr: 0xD20, symBinAddr: 0xAFA4, symSize: 0x38 }
  - { offset: 0x4ACD2, size: 0x8, addend: 0x0, symName: __ZN4absl12lts_2024072216strings_internal11BigUnsignedILi84EEC2Ey, symObjAddr: 0xD58, symBinAddr: 0xAFDC, symSize: 0x78 }
  - { offset: 0x4AD1E, size: 0x8, addend: 0x0, symName: __ZN4absl12lts_2024072216strings_internal11BigUnsignedILi84EEC1Ey, symObjAddr: 0xDD0, symBinAddr: 0xB054, symSize: 0x78 }
  - { offset: 0x4AD47, size: 0x8, addend: 0x0, symName: __ZN4absl12lts_2024072216strings_internal11BigUnsignedILi84EEC1Ey, symObjAddr: 0xDD0, symBinAddr: 0xB054, symSize: 0x78 }
  - { offset: 0x4AD68, size: 0x8, addend: 0x0, symName: __ZN4absl12lts_2024072216strings_internal11BigUnsignedILi84EEC2ENS0_11string_viewE, symObjAddr: 0xE48, symBinAddr: 0xB0CC, symSize: 0xB4 }
  - { offset: 0x4AE29, size: 0x8, addend: 0x0, symName: __ZN4absl12lts_2024072216strings_internal11BigUnsignedILi84EE10ReadDigitsEPKcS5_i, symObjAddr: 0xEFC, symBinAddr: 0xB180, symSize: 0x2D8 }
  - { offset: 0x4B30A, size: 0x8, addend: 0x0, symName: __ZN4absl12lts_2024072216strings_internal11BigUnsignedILi84EE8Digits10Ev, symObjAddr: 0x11D4, symBinAddr: 0xB458, symSize: 0x8 }
  - { offset: 0x4B315, size: 0x8, addend: 0x0, symName: __ZN4absl12lts_2024072216strings_internal11BigUnsignedILi84EE21MultiplyByTenToTheNthEi, symObjAddr: 0x11DC, symBinAddr: 0xB460, symSize: 0x6C }
  - { offset: 0x4B3C3, size: 0x8, addend: 0x0, symName: __ZN4absl12lts_2024072216strings_internal11BigUnsignedILi84EE10MultiplyByEj, symObjAddr: 0x1474, symBinAddr: 0xB6F8, symSize: 0x9C }
  - { offset: 0x4B474, size: 0x8, addend: 0x0, symName: __ZN4absl12lts_2024072216strings_internal11BigUnsignedILi84EE8Digits10Ev, symObjAddr: 0x11D4, symBinAddr: 0xB458, symSize: 0x8 }
  - { offset: 0x4B488, size: 0x8, addend: 0x0, symName: __ZN4absl12lts_2024072216strings_internal11BigUnsignedILi84EE22MultiplyByFiveToTheNthEi, symObjAddr: 0x1608, symBinAddr: 0xB88C, symSize: 0x74 }
  - { offset: 0x4B4DF, size: 0x8, addend: 0x0, symName: __ZN4absl12lts_2024072216strings_internal11BigUnsignedILi84EE9ShiftLeftEi, symObjAddr: 0x1324, symBinAddr: 0xB5A8, symSize: 0x150 }
  - { offset: 0x4B6E8, size: 0x8, addend: 0x0, symName: __ZN4absl12lts_2024072216strings_internal11BigUnsignedILi84EEC1ENS0_11string_viewE, symObjAddr: 0x1248, symBinAddr: 0xB4CC, symSize: 0x4 }
  - { offset: 0x4B71E, size: 0x8, addend: 0x0, symName: __ZN4absl12lts_2024072216strings_internal11BigUnsignedILi84EEC1ENS0_11string_viewE, symObjAddr: 0x1248, symBinAddr: 0xB4CC, symSize: 0x4 }
  - { offset: 0x4B73F, size: 0x8, addend: 0x0, symName: __ZN4absl12lts_2024072216strings_internal11BigUnsignedILi84EE17ReadFloatMantissaERKNS1_11ParsedFloatEi, symObjAddr: 0x124C, symBinAddr: 0xB4D0, symSize: 0xA0 }
  - { offset: 0x4B819, size: 0x8, addend: 0x0, symName: __ZN4absl12lts_2024072216strings_internal11BigUnsignedILi84EE9SetToZeroEv, symObjAddr: 0x12EC, symBinAddr: 0xB570, symSize: 0x38 }
  - { offset: 0x4B82E, size: 0x8, addend: 0x0, symName: __ZN4absl12lts_2024072216strings_internal11BigUnsignedILi84EE9SetToZeroEv, symObjAddr: 0x12EC, symBinAddr: 0xB570, symSize: 0x38 }
  - { offset: 0x4B89C, size: 0x8, addend: 0x0, symName: __ZN4absl12lts_2024072216strings_internal11BigUnsignedILi84EE10MultiplyByEy, symObjAddr: 0x1510, symBinAddr: 0xB794, symSize: 0x80 }
  - { offset: 0x4B907, size: 0x8, addend: 0x0, symName: __ZN4absl12lts_2024072216strings_internal11BigUnsignedILi84EE10MultiplyByEiPKj, symObjAddr: 0x1590, symBinAddr: 0xB814, symSize: 0x78 }
  - { offset: 0x4B9AC, size: 0x8, addend: 0x0, symName: __ZN4absl12lts_2024072216strings_internal11BigUnsignedILi84EE12MultiplyStepEiPKjii, symObjAddr: 0x19B0, symBinAddr: 0xBBBC, symSize: 0xD0 }
  - { offset: 0x4BAB3, size: 0x8, addend: 0x0, symName: __ZN4absl12lts_2024072216strings_internal11BigUnsignedILi84EE12FiveToTheNthEi, symObjAddr: 0x167C, symBinAddr: 0xB900, symSize: 0x12C }
  - { offset: 0x4BCE0, size: 0x8, addend: 0x0, symName: __ZNK4absl12lts_2024072216strings_internal11BigUnsignedILi84EE7GetWordEi, symObjAddr: 0x17A8, symBinAddr: 0xBA2C, symSize: 0x24 }
  - { offset: 0x4BD2F, size: 0x8, addend: 0x0, symName: __ZNK4absl12lts_2024072216strings_internal11BigUnsignedILi84EE8ToStringEv, symObjAddr: 0x17CC, symBinAddr: 0xBA50, symSize: 0x108 }
  - { offset: 0x4C13C, size: 0x8, addend: 0x0, symName: __ZNK4absl12lts_2024072216strings_internal11BigUnsignedILi84EE4sizeEv, symObjAddr: 0x18D4, symBinAddr: 0xBB58, symSize: 0x8 }
  - { offset: 0x4C15E, size: 0x8, addend: 0x0, symName: __ZNK4absl12lts_2024072216strings_internal11BigUnsignedILi84EE5wordsEv, symObjAddr: 0x1954, symBinAddr: 0xBB60, symSize: 0x8 }
  - { offset: 0x4C185, size: 0x8, addend: 0x0, symName: __ZN4absl12lts_2024072216strings_internal11BigUnsignedILi84EE12AddWithCarryEij, symObjAddr: 0x195C, symBinAddr: 0xBB68, symSize: 0x54 }
  - { offset: 0x4C249, size: 0x8, addend: 0x0, symName: __ZN4absl12lts_2024072216strings_internal11BigUnsignedILi84EE12AddWithCarryEiy, symObjAddr: 0x1A80, symBinAddr: 0xBC8C, symSize: 0xC8 }
  - { offset: 0x4E1D6, size: 0x8, addend: 0x0, symName: __ZN4absl12lts_2024072216strings_internal10ParseFloatILi10EEENS1_11ParsedFloatEPKcS5_NS0_12chars_formatE, symObjAddr: 0x0, symBinAddr: 0xBD54, symSize: 0x278 }
  - { offset: 0x4E242, size: 0x8, addend: 0x0, symName: __ZN4absl12lts_2024072212_GLOBAL__N_111kAsciiToIntE, symObjAddr: 0xB15, symBinAddr: 0x6EF00, symSize: 0x0 }
  - { offset: 0x4E2A7, size: 0x8, addend: 0x0, symName: __ZN4absl12lts_2024072212_GLOBAL__N_118ParseInfinityOrNanEPKcS3_PNS0_16strings_internal11ParsedFloatE, symObjAddr: 0x278, symBinAddr: 0xBFCC, symSize: 0x164 }
  - { offset: 0x4E36D, size: 0x8, addend: 0x0, symName: __ZN4absl12lts_2024072212_GLOBAL__N_113ConsumeDigitsILi10EyEEiPKcS4_iPT0_Pb, symObjAddr: 0x3DC, symBinAddr: 0xC130, symSize: 0x104 }
  - { offset: 0x4E474, size: 0x8, addend: 0x0, symName: __ZN4absl12lts_2024072212_GLOBAL__N_113ConsumeDigitsILi10EiEEiPKcS4_iPT0_Pb, symObjAddr: 0x4E0, symBinAddr: 0xC234, symSize: 0xD0 }
  - { offset: 0x4E491, size: 0x8, addend: 0x0, symName: __ZN4absl12lts_2024072212_GLOBAL__N_113ConsumeDigitsILi10EiEEiPKcS4_iPT0_Pb, symObjAddr: 0x4E0, symBinAddr: 0xC234, symSize: 0xD0 }
  - { offset: 0x4E587, size: 0x8, addend: 0x0, symName: __ZN4absl12lts_2024072216strings_internal10ParseFloatILi16EEENS1_11ParsedFloatEPKcS5_NS0_12chars_formatE, symObjAddr: 0x5B0, symBinAddr: 0xC304, symSize: 0x27C }
  - { offset: 0x4E635, size: 0x8, addend: 0x0, symName: __ZN4absl12lts_2024072212_GLOBAL__N_113ConsumeDigitsILi16EyEEiPKcS4_iPT0_Pb, symObjAddr: 0x82C, symBinAddr: 0xC580, symSize: 0x104 }
  - { offset: 0x4E740, size: 0x8, addend: 0x0, symName: __ZN4absl12lts_2024072212_GLOBAL__N_113ConsumeDigitsILi10EyEEiPKcS4_iPT0_Pb.cold.1, symObjAddr: 0x930, symBinAddr: 0x647B0, symSize: 0x28 }
  - { offset: 0x4E7F3, size: 0x8, addend: 0x0, symName: __ZN4absl12lts_2024072216strings_internal10ParseFloatILi10EEENS1_11ParsedFloatEPKcS5_NS0_12chars_formatE, symObjAddr: 0x0, symBinAddr: 0xBD54, symSize: 0x278 }
  - { offset: 0x4E8CE, size: 0x8, addend: 0x0, symName: __ZN4absl12lts_2024072216strings_internal10ParseFloatILi10EEENS1_11ParsedFloatEPKcS5_NS0_12chars_formatE, symObjAddr: 0x0, symBinAddr: 0xBD54, symSize: 0x278 }
  - { offset: 0x4E8EA, size: 0x8, addend: 0x0, symName: __ZN4absl12lts_2024072216strings_internal10ParseFloatILi10EEENS1_11ParsedFloatEPKcS5_NS0_12chars_formatE, symObjAddr: 0x0, symBinAddr: 0xBD54, symSize: 0x278 }
  - { offset: 0x4EA7B, size: 0x8, addend: 0x0, symName: __ZN4absl12lts_2024072216strings_internal10ParseFloatILi16EEENS1_11ParsedFloatEPKcS5_NS0_12chars_formatE, symObjAddr: 0x5B0, symBinAddr: 0xC304, symSize: 0x27C }
  - { offset: 0x4EB56, size: 0x8, addend: 0x0, symName: __ZN4absl12lts_2024072216strings_internal10ParseFloatILi16EEENS1_11ParsedFloatEPKcS5_NS0_12chars_formatE, symObjAddr: 0x5B0, symBinAddr: 0xC304, symSize: 0x27C }
  - { offset: 0x4EB72, size: 0x8, addend: 0x0, symName: __ZN4absl12lts_2024072216strings_internal10ParseFloatILi16EEENS1_11ParsedFloatEPKcS5_NS0_12chars_formatE, symObjAddr: 0x5B0, symBinAddr: 0xC304, symSize: 0x27C }
  - { offset: 0x4F90E, size: 0x8, addend: 0x0, symName: __ZN4absl12lts_2024072212_GLOBAL__N_113ConsumeDigitsILi10EyEEiPKcS4_iPT0_Pb.cold.2, symObjAddr: 0x958, symBinAddr: 0x647D8, symSize: 0x24 }
  - { offset: 0x4F926, size: 0x8, addend: 0x0, symName: __ZN4absl12lts_2024072212_GLOBAL__N_113ConsumeDigitsILi10EyEEiPKcS4_iPT0_Pb.cold.1, symObjAddr: 0x930, symBinAddr: 0x647B0, symSize: 0x28 }
  - { offset: 0x4F93E, size: 0x8, addend: 0x0, symName: __ZN4absl12lts_2024072212_GLOBAL__N_113ConsumeDigitsILi10EyEEiPKcS4_iPT0_Pb.cold.3, symObjAddr: 0x97C, symBinAddr: 0x647FC, symSize: 0x28 }
  - { offset: 0x4F974, size: 0x8, addend: 0x0, symName: __ZN4absl12lts_2024072212_GLOBAL__N_113ConsumeDigitsILi16EyEEiPKcS4_iPT0_Pb.cold.3, symObjAddr: 0xA14, symBinAddr: 0x64824, symSize: 0x28 }
  - { offset: 0x4F98C, size: 0x8, addend: 0x0, symName: _OUTLINED_FUNCTION_0, symObjAddr: 0xA3C, symBinAddr: 0xC684, symSize: 0x8 }
  - { offset: 0x55A98, size: 0x8, addend: 0x0, symName: __ZN4absl12lts_2024072212log_internal17MakeCheckOpStringIbbEEPNSt3__112basic_stringIcNS3_11char_traitsIcEENS3_9allocatorIcEEEET_T0_PKc, symObjAddr: 0x0, symBinAddr: 0xC68C, symSize: 0x94 }
  - { offset: 0x55C8D, size: 0x8, addend: 0x0, symName: __ZN4absl12lts_2024072212log_internal17MakeCheckOpStringIxxEEPNSt3__112basic_stringIcNS3_11char_traitsIcEENS3_9allocatorIcEEEET_T0_PKc, symObjAddr: 0x124, symBinAddr: 0xC7B0, symSize: 0x94 }
  - { offset: 0x55E82, size: 0x8, addend: 0x0, symName: __ZN4absl12lts_2024072212log_internal17MakeCheckOpStringIyyEEPNSt3__112basic_stringIcNS3_11char_traitsIcEENS3_9allocatorIcEEEET_T0_PKc, symObjAddr: 0x1B8, symBinAddr: 0xC844, symSize: 0x94 }
  - { offset: 0x56077, size: 0x8, addend: 0x0, symName: __ZN4absl12lts_2024072212log_internal17MakeCheckOpStringIffEEPNSt3__112basic_stringIcNS3_11char_traitsIcEENS3_9allocatorIcEEEET_T0_PKc, symObjAddr: 0x24C, symBinAddr: 0xC8D8, symSize: 0x94 }
  - { offset: 0x5626C, size: 0x8, addend: 0x0, symName: __ZN4absl12lts_2024072212log_internal17MakeCheckOpStringIddEEPNSt3__112basic_stringIcNS3_11char_traitsIcEENS3_9allocatorIcEEEET_T0_PKc, symObjAddr: 0x2E0, symBinAddr: 0xC96C, symSize: 0x94 }
  - { offset: 0x56434, size: 0x8, addend: 0x0, symName: __ZN4absl12lts_2024072212log_internal17MakeCheckOpStringIccEEPNSt3__112basic_stringIcNS3_11char_traitsIcEENS3_9allocatorIcEEEET_T0_PKc, symObjAddr: 0x374, symBinAddr: 0xCA00, symSize: 0x94 }
  - { offset: 0x565F3, size: 0x8, addend: 0x0, symName: __ZN4absl12lts_2024072212log_internal22MakeCheckOpValueStringERNSt3__113basic_ostreamIcNS2_11char_traitsIcEEEEc, symObjAddr: 0x408, symBinAddr: 0xCA94, symSize: 0x84 }
  - { offset: 0x5671C, size: 0x8, addend: 0x0, symName: __ZN4absl12lts_2024072212log_internal17MakeCheckOpStringIhhEEPNSt3__112basic_stringIcNS3_11char_traitsIcEENS3_9allocatorIcEEEET_T0_PKc, symObjAddr: 0x48C, symBinAddr: 0xCB18, symSize: 0x94 }
  - { offset: 0x568DB, size: 0x8, addend: 0x0, symName: __ZN4absl12lts_2024072212log_internal22MakeCheckOpValueStringERNSt3__113basic_ostreamIcNS2_11char_traitsIcEEEEh, symObjAddr: 0x520, symBinAddr: 0xCBAC, symSize: 0x84 }
  - { offset: 0x56A31, size: 0x8, addend: 0x0, symName: __ZN4absl12lts_2024072212log_internal17MakeCheckOpStringIRKNSt3__112basic_stringIcNS3_11char_traitsIcEENS3_9allocatorIcEEEESB_EEPS9_T_T0_PKc, symObjAddr: 0x5A4, symBinAddr: 0xCC30, symSize: 0xBC }
  - { offset: 0x56D54, size: 0x8, addend: 0x0, symName: __ZN4absl12lts_2024072212log_internal17MakeCheckOpStringIRKNS0_11string_viewES5_EEPNSt3__112basic_stringIcNS6_11char_traitsIcEENS6_9allocatorIcEEEET_T0_PKc, symObjAddr: 0x660, symBinAddr: 0xCCEC, symSize: 0x94 }
  - { offset: 0x56FA7, size: 0x8, addend: 0x0, symName: __ZN4absl12lts_2024072212log_internal17MakeCheckOpStringIPKcS4_EEPNSt3__112basic_stringIcNS5_11char_traitsIcEENS5_9allocatorIcEEEET_T0_S4_, symObjAddr: 0x6F4, symBinAddr: 0xCD80, symSize: 0xC4 }
  - { offset: 0x57314, size: 0x8, addend: 0x0, symName: __ZN4absl12lts_2024072212log_internal17MakeCheckOpStringIPKaS4_EEPNSt3__112basic_stringIcNS5_11char_traitsIcEENS5_9allocatorIcEEEET_T0_PKc, symObjAddr: 0x7B8, symBinAddr: 0xCE44, symSize: 0xC4 }
  - { offset: 0x57691, size: 0x8, addend: 0x0, symName: __ZN4absl12lts_2024072212log_internal17MakeCheckOpStringIPKhS4_EEPNSt3__112basic_stringIcNS5_11char_traitsIcEENS5_9allocatorIcEEEET_T0_PKc, symObjAddr: 0x87C, symBinAddr: 0xCF08, symSize: 0xC4 }
  - { offset: 0x579B9, size: 0x8, addend: 0x0, symName: __ZN4absl12lts_2024072212log_internal17MakeCheckOpStringIPKvS4_EEPNSt3__112basic_stringIcNS5_11char_traitsIcEENS5_9allocatorIcEEEET_T0_PKc, symObjAddr: 0x940, symBinAddr: 0xCFCC, symSize: 0x94 }
  - { offset: 0x57B78, size: 0x8, addend: 0x0, symName: __ZN4absl12lts_2024072212log_internal22MakeCheckOpValueStringERNSt3__113basic_ostreamIcNS2_11char_traitsIcEEEEPKv, symObjAddr: 0x9D4, symBinAddr: 0xD060, symSize: 0x18 }
  - { offset: 0x57BE7, size: 0x8, addend: 0x0, symName: __ZN4absl12lts_2024072212log_internal22MakeCheckOpValueStringERNSt3__113basic_ostreamIcNS2_11char_traitsIcEEEEa, symObjAddr: 0xBB0, symBinAddr: 0xD0DC, symSize: 0x84 }
  - { offset: 0x57D11, size: 0x8, addend: 0x0, symName: __ZN4absl12lts_2024072212log_internal19CheckstrcmptrueImplEPKcS3_S3_, symObjAddr: 0xC34, symBinAddr: 0xD160, symSize: 0x144 }
  - { offset: 0x57FD8, size: 0x8, addend: 0x0, symName: __ZN4absl12lts_2024072212log_internal20CheckstrcmpfalseImplEPKcS3_S3_, symObjAddr: 0xD78, symBinAddr: 0xD2A4, symSize: 0x148 }
  - { offset: 0x5829F, size: 0x8, addend: 0x0, symName: __ZN4absl12lts_2024072212log_internal23CheckstrcasecmptrueImplEPKcS3_S3_, symObjAddr: 0xEC0, symBinAddr: 0xD3EC, symSize: 0x144 }
  - { offset: 0x58566, size: 0x8, addend: 0x0, symName: __ZN4absl12lts_2024072212log_internal24CheckstrcasecmpfalseImplEPKcS3_S3_, symObjAddr: 0x1004, symBinAddr: 0xD530, symSize: 0x148 }
  - { offset: 0x58893, size: 0x8, addend: 0x0, symName: __ZN4absl12lts_2024072212log_internal21detect_specialization15AbslFormatFlushEPNS2_13StringifySinkENS0_11string_viewE, symObjAddr: 0x11A8, symBinAddr: 0xD6D4, symSize: 0x8 }
  - { offset: 0x588CA, size: 0x8, addend: 0x0, symName: __ZN4absl12lts_2024072212log_internal21detect_specialization15AbslFormatFlushEPNS2_13StringifySinkENS0_11string_viewE, symObjAddr: 0x11A8, symBinAddr: 0xD6D4, symSize: 0x8 }
  - { offset: 0x58E7F, size: 0x8, addend: 0x0, symName: __ZN4absl12lts_2024072212log_internal21CheckOpMessageBuilderC2EPKc, symObjAddr: 0x9EC, symBinAddr: 0xD078, symSize: 0x64 }
  - { offset: 0x58FA6, size: 0x8, addend: 0x0, symName: __ZN4absl12lts_2024072212log_internal21CheckOpMessageBuilder9NewStringEv, symObjAddr: 0xC8, symBinAddr: 0xC754, symSize: 0x5C }
  - { offset: 0x59044, size: 0x8, addend: 0x0, symName: __ZN4absl12lts_2024072212log_internal21CheckOpMessageBuilderD2Ev, symObjAddr: 0x11B0, symBinAddr: 0xD6DC, symSize: 0x8C }
  - { offset: 0x591FA, size: 0x8, addend: 0x0, symName: __ZN4absl12lts_2024072212log_internal21CheckOpMessageBuilderC1EPKc, symObjAddr: 0x94, symBinAddr: 0xC720, symSize: 0x4 }
  - { offset: 0x59223, size: 0x8, addend: 0x0, symName: __ZN4absl12lts_2024072212log_internal21CheckOpMessageBuilderC1EPKc, symObjAddr: 0x94, symBinAddr: 0xC720, symSize: 0x4 }
  - { offset: 0x5923D, size: 0x8, addend: 0x0, symName: __ZN4absl12lts_2024072212log_internal21CheckOpMessageBuilder7ForVar2Ev, symObjAddr: 0x98, symBinAddr: 0xC724, symSize: 0x30 }
  - { offset: 0x59969, size: 0x8, addend: 0x0, symName: __ZN4absl12lts_2024072212log_internal21detect_specialization13StringifySinkC2ERNSt3__113basic_ostreamIcNS4_11char_traitsIcEEEE, symObjAddr: 0x114C, symBinAddr: 0xD678, symSize: 0x8 }
  - { offset: 0x599BC, size: 0x8, addend: 0x0, symName: __ZN4absl12lts_2024072212log_internal21detect_specialization13StringifySinkC1ERNSt3__113basic_ostreamIcNS4_11char_traitsIcEEEE, symObjAddr: 0x1154, symBinAddr: 0xD680, symSize: 0x8 }
  - { offset: 0x599F6, size: 0x8, addend: 0x0, symName: __ZN4absl12lts_2024072212log_internal21detect_specialization13StringifySinkC1ERNSt3__113basic_ostreamIcNS4_11char_traitsIcEEEE, symObjAddr: 0x1154, symBinAddr: 0xD680, symSize: 0x8 }
  - { offset: 0x59A17, size: 0x8, addend: 0x0, symName: __ZN4absl12lts_2024072212log_internal21detect_specialization13StringifySink6AppendENS0_11string_viewE, symObjAddr: 0x115C, symBinAddr: 0xD688, symSize: 0x8 }
  - { offset: 0x59A5A, size: 0x8, addend: 0x0, symName: __ZN4absl12lts_2024072212log_internal21detect_specialization13StringifySink6AppendEmc, symObjAddr: 0x1164, symBinAddr: 0xD690, symSize: 0x44 }
  - { offset: 0x59A9F, size: 0x8, addend: 0x0, symName: __ZN4absl12lts_2024072212log_internal21detect_specialization13StringifySink6AppendEmc, symObjAddr: 0x1164, symBinAddr: 0xD690, symSize: 0x44 }
  - { offset: 0x5C30E, size: 0x8, addend: 0x0, symName: __ZN4absl12lts_2024072213hash_internal10CityHash32EPKcm, symObjAddr: 0x0, symBinAddr: 0xD768, symSize: 0x3C0 }
  - { offset: 0x5C516, size: 0x8, addend: 0x0, symName: __ZN4absl12lts_2024072213hash_internal10CityHash32EPKcm, symObjAddr: 0x0, symBinAddr: 0xD768, symSize: 0x3C0 }
  - { offset: 0x5D505, size: 0x8, addend: 0x0, symName: __ZN4absl12lts_2024072213hash_internal10CityHash64EPKcm, symObjAddr: 0x3C0, symBinAddr: 0xDB28, symSize: 0x3B8 }
  - { offset: 0x5E1C0, size: 0x8, addend: 0x0, symName: __ZN4absl12lts_2024072213hash_internal18CityHash64WithSeedEPKcmy, symObjAddr: 0x778, symBinAddr: 0xDEE0, symSize: 0x60 }
  - { offset: 0x5E2DB, size: 0x8, addend: 0x0, symName: __ZN4absl12lts_2024072213hash_internal19CityHash64WithSeedsEPKcmyy, symObjAddr: 0x7D8, symBinAddr: 0xDF40, symSize: 0x54 }
  - { offset: 0x656C5, size: 0x8, addend: 0x0, symName: __ZN4absl12lts_2024072213time_internal4cctz6detail4impl5n_secExxxxxx, symObjAddr: 0x1E60, symBinAddr: 0xFDF4, symSize: 0x148 }
  - { offset: 0x6584E, size: 0x8, addend: 0x0, symName: __ZN4absl12lts_2024072213time_internal4cctz6detail4impl5n_minExxxxxxa, symObjAddr: 0x2014, symBinAddr: 0xFF98, symSize: 0xBC }
  - { offset: 0x65942, size: 0x8, addend: 0x0, symName: __ZN4absl12lts_2024072213time_internal4cctz6detail4impl5n_monExxxxaaa, symObjAddr: 0x1FB8, symBinAddr: 0xFF3C, symSize: 0x5C }
  - { offset: 0x659D6, size: 0x8, addend: 0x0, symName: __ZN4absl12lts_2024072213time_internal4cctz6detail4impl5n_dayExaxxaaa, symObjAddr: 0x20D0, symBinAddr: 0x10054, symSize: 0x3D0 }
  - { offset: 0x65FF1, size: 0x8, addend: 0x0, symName: __ZN4absl12lts_2024072213time_internallsERNSt3__113basic_ostreamIcNS2_11char_traitsIcEEEENS1_4cctz6detail10civil_timeINS1_8year_tagEEE, symObjAddr: 0x1A14, symBinAddr: 0xF9A8, symSize: 0x9C }
  - { offset: 0x6638A, size: 0x8, addend: 0x0, symName: __ZN4absl12lts_2024072213time_internallsERNSt3__113basic_ostreamIcNS2_11char_traitsIcEEEENS1_4cctz6detail10civil_timeINS1_9month_tagEEE, symObjAddr: 0x1AB0, symBinAddr: 0xFA44, symSize: 0x9C }
  - { offset: 0x66723, size: 0x8, addend: 0x0, symName: __ZN4absl12lts_2024072213time_internallsERNSt3__113basic_ostreamIcNS2_11char_traitsIcEEEENS1_4cctz6detail10civil_timeINS1_7day_tagEEE, symObjAddr: 0x1B4C, symBinAddr: 0xFAE0, symSize: 0x9C }
  - { offset: 0x66ABC, size: 0x8, addend: 0x0, symName: __ZN4absl12lts_2024072213time_internallsERNSt3__113basic_ostreamIcNS2_11char_traitsIcEEEENS1_4cctz6detail10civil_timeINS1_8hour_tagEEE, symObjAddr: 0x1BE8, symBinAddr: 0xFB7C, symSize: 0x9C }
  - { offset: 0x66E55, size: 0x8, addend: 0x0, symName: __ZN4absl12lts_2024072213time_internallsERNSt3__113basic_ostreamIcNS2_11char_traitsIcEEEENS1_4cctz6detail10civil_timeINS1_10minute_tagEEE, symObjAddr: 0x1C84, symBinAddr: 0xFC18, symSize: 0x9C }
  - { offset: 0x671EE, size: 0x8, addend: 0x0, symName: __ZN4absl12lts_2024072213time_internallsERNSt3__113basic_ostreamIcNS2_11char_traitsIcEEEENS1_4cctz6detail10civil_timeINS1_10second_tagEEE, symObjAddr: 0x1D20, symBinAddr: 0xFCB4, symSize: 0x98 }
  - { offset: 0x6753D, size: 0x8, addend: 0x0, symName: __ZN4absl12lts_2024072213time_internal13AbslParseFlagENS0_11string_viewEPNS1_4cctz6detail10civil_timeINS1_10second_tagEEEPNSt3__112basic_stringIcNS9_11char_traitsIcEENS9_9allocatorIcEEEE, symObjAddr: 0x1DB8, symBinAddr: 0xFD4C, symSize: 0x4 }
  - { offset: 0x67580, size: 0x8, addend: 0x0, symName: __ZN4absl12lts_2024072213time_internal13AbslParseFlagENS0_11string_viewEPNS1_4cctz6detail10civil_timeINS1_10second_tagEEEPNSt3__112basic_stringIcNS9_11char_traitsIcEENS9_9allocatorIcEEEE, symObjAddr: 0x1DB8, symBinAddr: 0xFD4C, symSize: 0x4 }
  - { offset: 0x675A0, size: 0x8, addend: 0x0, symName: __ZN4absl12lts_2024072213time_internal13AbslParseFlagENS0_11string_viewEPNS1_4cctz6detail10civil_timeINS1_10minute_tagEEEPNSt3__112basic_stringIcNS9_11char_traitsIcEENS9_9allocatorIcEEEE, symObjAddr: 0x1DBC, symBinAddr: 0xFD50, symSize: 0x4 }
  - { offset: 0x675E3, size: 0x8, addend: 0x0, symName: __ZN4absl12lts_2024072213time_internal13AbslParseFlagENS0_11string_viewEPNS1_4cctz6detail10civil_timeINS1_10minute_tagEEEPNSt3__112basic_stringIcNS9_11char_traitsIcEENS9_9allocatorIcEEEE, symObjAddr: 0x1DBC, symBinAddr: 0xFD50, symSize: 0x4 }
  - { offset: 0x67603, size: 0x8, addend: 0x0, symName: __ZN4absl12lts_2024072213time_internal13AbslParseFlagENS0_11string_viewEPNS1_4cctz6detail10civil_timeINS1_8hour_tagEEEPNSt3__112basic_stringIcNS9_11char_traitsIcEENS9_9allocatorIcEEEE, symObjAddr: 0x1DC0, symBinAddr: 0xFD54, symSize: 0x4 }
  - { offset: 0x67646, size: 0x8, addend: 0x0, symName: __ZN4absl12lts_2024072213time_internal13AbslParseFlagENS0_11string_viewEPNS1_4cctz6detail10civil_timeINS1_8hour_tagEEEPNSt3__112basic_stringIcNS9_11char_traitsIcEENS9_9allocatorIcEEEE, symObjAddr: 0x1DC0, symBinAddr: 0xFD54, symSize: 0x4 }
  - { offset: 0x67666, size: 0x8, addend: 0x0, symName: __ZN4absl12lts_2024072213time_internal13AbslParseFlagENS0_11string_viewEPNS1_4cctz6detail10civil_timeINS1_7day_tagEEEPNSt3__112basic_stringIcNS9_11char_traitsIcEENS9_9allocatorIcEEEE, symObjAddr: 0x1DC4, symBinAddr: 0xFD58, symSize: 0x4 }
  - { offset: 0x676A9, size: 0x8, addend: 0x0, symName: __ZN4absl12lts_2024072213time_internal13AbslParseFlagENS0_11string_viewEPNS1_4cctz6detail10civil_timeINS1_7day_tagEEEPNSt3__112basic_stringIcNS9_11char_traitsIcEENS9_9allocatorIcEEEE, symObjAddr: 0x1DC4, symBinAddr: 0xFD58, symSize: 0x4 }
  - { offset: 0x676C9, size: 0x8, addend: 0x0, symName: __ZN4absl12lts_2024072213time_internal13AbslParseFlagENS0_11string_viewEPNS1_4cctz6detail10civil_timeINS1_9month_tagEEEPNSt3__112basic_stringIcNS9_11char_traitsIcEENS9_9allocatorIcEEEE, symObjAddr: 0x1DC8, symBinAddr: 0xFD5C, symSize: 0x4 }
  - { offset: 0x6770C, size: 0x8, addend: 0x0, symName: __ZN4absl12lts_2024072213time_internal13AbslParseFlagENS0_11string_viewEPNS1_4cctz6detail10civil_timeINS1_9month_tagEEEPNSt3__112basic_stringIcNS9_11char_traitsIcEENS9_9allocatorIcEEEE, symObjAddr: 0x1DC8, symBinAddr: 0xFD5C, symSize: 0x4 }
  - { offset: 0x6772C, size: 0x8, addend: 0x0, symName: __ZN4absl12lts_2024072213time_internal13AbslParseFlagENS0_11string_viewEPNS1_4cctz6detail10civil_timeINS1_8year_tagEEEPNSt3__112basic_stringIcNS9_11char_traitsIcEENS9_9allocatorIcEEEE, symObjAddr: 0x1DCC, symBinAddr: 0xFD60, symSize: 0x4 }
  - { offset: 0x6776F, size: 0x8, addend: 0x0, symName: __ZN4absl12lts_2024072213time_internal13AbslParseFlagENS0_11string_viewEPNS1_4cctz6detail10civil_timeINS1_8year_tagEEEPNSt3__112basic_stringIcNS9_11char_traitsIcEENS9_9allocatorIcEEEE, symObjAddr: 0x1DCC, symBinAddr: 0xFD60, symSize: 0x4 }
  - { offset: 0x6778F, size: 0x8, addend: 0x0, symName: __ZN4absl12lts_2024072213time_internal15AbslUnparseFlagENS1_4cctz6detail10civil_timeINS1_10second_tagEEE, symObjAddr: 0x1DD0, symBinAddr: 0xFD64, symSize: 0x18 }
  - { offset: 0x677F4, size: 0x8, addend: 0x0, symName: __ZN4absl12lts_2024072213time_internal15AbslUnparseFlagENS1_4cctz6detail10civil_timeINS1_10minute_tagEEE, symObjAddr: 0x1DE8, symBinAddr: 0xFD7C, symSize: 0x18 }
  - { offset: 0x678A2, size: 0x8, addend: 0x0, symName: __ZN4absl12lts_2024072213time_internal15AbslUnparseFlagENS1_4cctz6detail10civil_timeINS1_8hour_tagEEE, symObjAddr: 0x1E00, symBinAddr: 0xFD94, symSize: 0x18 }
  - { offset: 0x67950, size: 0x8, addend: 0x0, symName: __ZN4absl12lts_2024072213time_internal15AbslUnparseFlagENS1_4cctz6detail10civil_timeINS1_7day_tagEEE, symObjAddr: 0x1E18, symBinAddr: 0xFDAC, symSize: 0x18 }
  - { offset: 0x679FE, size: 0x8, addend: 0x0, symName: __ZN4absl12lts_2024072213time_internal15AbslUnparseFlagENS1_4cctz6detail10civil_timeINS1_9month_tagEEE, symObjAddr: 0x1E30, symBinAddr: 0xFDC4, symSize: 0x18 }
  - { offset: 0x67AAC, size: 0x8, addend: 0x0, symName: __ZN4absl12lts_2024072213time_internal15AbslUnparseFlagENS1_4cctz6detail10civil_timeINS1_8year_tagEEE, symObjAddr: 0x1E48, symBinAddr: 0xFDDC, symSize: 0x18 }
  - { offset: 0x68502, size: 0x8, addend: 0x0, symName: __ZN4absl12lts_2024072215FormatCivilTimeENS0_13time_internal4cctz6detail10civil_timeINS1_10second_tagEEE, symObjAddr: 0x0, symBinAddr: 0xDF94, symSize: 0x18 }
  - { offset: 0x68545, size: 0x8, addend: 0x0, symName: __ZN4absl12lts_2024072212_GLOBAL__N_113FormatYearAndENS0_11string_viewENS0_13time_internal4cctz6detail10civil_timeINS3_10second_tagEEE, symObjAddr: 0x18, symBinAddr: 0xDFAC, symSize: 0x1A0 }
  - { offset: 0x68F9E, size: 0x8, addend: 0x0, symName: __ZN4absl12lts_2024072212_GLOBAL__N_17ParseAsINS0_13time_internal4cctz6detail10civil_timeINS3_8year_tagEEENS6_INS3_10second_tagEEEEEbNS0_11string_viewEPT0_, symObjAddr: 0x2950, symBinAddr: 0x10508, symSize: 0x5C }
  - { offset: 0x6927C, size: 0x8, addend: 0x0, symName: __ZN4absl12lts_2024072212_GLOBAL__N_17ParseAsINS0_13time_internal4cctz6detail10civil_timeINS3_8year_tagEEENS6_INS3_10minute_tagEEEEEbNS0_11string_viewEPT0_, symObjAddr: 0x29AC, symBinAddr: 0x10564, symSize: 0x5C }
  - { offset: 0x6955A, size: 0x8, addend: 0x0, symName: __ZN4absl12lts_2024072212_GLOBAL__N_17ParseAsINS0_13time_internal4cctz6detail10civil_timeINS3_8year_tagEEENS6_INS3_8hour_tagEEEEEbNS0_11string_viewEPT0_, symObjAddr: 0x2A08, symBinAddr: 0x105C0, symSize: 0x60 }
  - { offset: 0x69863, size: 0x8, addend: 0x0, symName: __ZN4absl12lts_2024072212_GLOBAL__N_17ParseAsINS0_13time_internal4cctz6detail10civil_timeINS3_8year_tagEEENS6_INS3_7day_tagEEEEEbNS0_11string_viewEPT0_, symObjAddr: 0x2A68, symBinAddr: 0x10620, symSize: 0x5C }
  - { offset: 0x69B41, size: 0x8, addend: 0x0, symName: __ZN4absl12lts_2024072212_GLOBAL__N_17ParseAsINS0_13time_internal4cctz6detail10civil_timeINS3_8year_tagEEENS6_INS3_9month_tagEEEEEbNS0_11string_viewEPT0_, symObjAddr: 0x2AC4, symBinAddr: 0x1067C, symSize: 0x60 }
  - { offset: 0x69E4A, size: 0x8, addend: 0x0, symName: __ZN4absl12lts_2024072212_GLOBAL__N_17ParseAsINS0_13time_internal4cctz6detail10civil_timeINS3_8year_tagEEES8_EEbNS0_11string_viewEPT0_, symObjAddr: 0x2B24, symBinAddr: 0x106DC, symSize: 0x50 }
  - { offset: 0x6A1A5, size: 0x8, addend: 0x0, symName: __ZN4absl12lts_2024072215FormatCivilTimeENS0_13time_internal4cctz6detail10civil_timeINS1_10minute_tagEEE, symObjAddr: 0x1B8, symBinAddr: 0xE14C, symSize: 0x18 }
  - { offset: 0x6A22A, size: 0x8, addend: 0x0, symName: __ZN4absl12lts_2024072215FormatCivilTimeENS0_13time_internal4cctz6detail10civil_timeINS1_8hour_tagEEE, symObjAddr: 0x1D0, symBinAddr: 0xE164, symSize: 0x18 }
  - { offset: 0x6A2AF, size: 0x8, addend: 0x0, symName: __ZN4absl12lts_2024072215FormatCivilTimeENS0_13time_internal4cctz6detail10civil_timeINS1_7day_tagEEE, symObjAddr: 0x1E8, symBinAddr: 0xE17C, symSize: 0x18 }
  - { offset: 0x6A334, size: 0x8, addend: 0x0, symName: __ZN4absl12lts_2024072215FormatCivilTimeENS0_13time_internal4cctz6detail10civil_timeINS1_9month_tagEEE, symObjAddr: 0x200, symBinAddr: 0xE194, symSize: 0x18 }
  - { offset: 0x6A3B9, size: 0x8, addend: 0x0, symName: __ZN4absl12lts_2024072215FormatCivilTimeENS0_13time_internal4cctz6detail10civil_timeINS1_8year_tagEEE, symObjAddr: 0x218, symBinAddr: 0xE1AC, symSize: 0x18 }
  - { offset: 0x6A486, size: 0x8, addend: 0x0, symName: __ZN4absl12lts_2024072214ParseCivilTimeENS0_11string_viewEPNS0_13time_internal4cctz6detail10civil_timeINS2_10second_tagEEE, symObjAddr: 0x230, symBinAddr: 0xE1C4, symSize: 0x2B8 }
  - { offset: 0x6B293, size: 0x8, addend: 0x0, symName: __ZN4absl12lts_2024072214ParseCivilTimeENS0_11string_viewEPNS0_13time_internal4cctz6detail10civil_timeINS2_10minute_tagEEE, symObjAddr: 0x4E8, symBinAddr: 0xE47C, symSize: 0x2B4 }
  - { offset: 0x6C076, size: 0x8, addend: 0x0, symName: __ZN4absl12lts_2024072214ParseCivilTimeENS0_11string_viewEPNS0_13time_internal4cctz6detail10civil_timeINS2_8hour_tagEEE, symObjAddr: 0x79C, symBinAddr: 0xE730, symSize: 0x2B8 }
  - { offset: 0x6CE86, size: 0x8, addend: 0x0, symName: __ZN4absl12lts_2024072214ParseCivilTimeENS0_11string_viewEPNS0_13time_internal4cctz6detail10civil_timeINS2_7day_tagEEE, symObjAddr: 0xA54, symBinAddr: 0xE9E8, symSize: 0x2B8 }
  - { offset: 0x6DC96, size: 0x8, addend: 0x0, symName: __ZN4absl12lts_2024072214ParseCivilTimeENS0_11string_viewEPNS0_13time_internal4cctz6detail10civil_timeINS2_9month_tagEEE, symObjAddr: 0xD0C, symBinAddr: 0xECA0, symSize: 0x2BC }
  - { offset: 0x6EAA6, size: 0x8, addend: 0x0, symName: __ZN4absl12lts_2024072214ParseCivilTimeENS0_11string_viewEPNS0_13time_internal4cctz6detail10civil_timeINS2_8year_tagEEE, symObjAddr: 0xFC8, symBinAddr: 0xEF5C, symSize: 0x2B4 }
  - { offset: 0x6F889, size: 0x8, addend: 0x0, symName: __ZN4absl12lts_2024072221ParseLenientCivilTimeENS0_11string_viewEPNS0_13time_internal4cctz6detail10civil_timeINS2_10second_tagEEE, symObjAddr: 0x127C, symBinAddr: 0xF210, symSize: 0x150 }
  - { offset: 0x6FE35, size: 0x8, addend: 0x0, symName: __ZN4absl12lts_2024072221ParseLenientCivilTimeENS0_11string_viewEPNS0_13time_internal4cctz6detail10civil_timeINS2_10minute_tagEEE, symObjAddr: 0x13CC, symBinAddr: 0xF360, symSize: 0x150 }
  - { offset: 0x703E1, size: 0x8, addend: 0x0, symName: __ZN4absl12lts_2024072221ParseLenientCivilTimeENS0_11string_viewEPNS0_13time_internal4cctz6detail10civil_timeINS2_8hour_tagEEE, symObjAddr: 0x151C, symBinAddr: 0xF4B0, symSize: 0x154 }
  - { offset: 0x7098D, size: 0x8, addend: 0x0, symName: __ZN4absl12lts_2024072221ParseLenientCivilTimeENS0_11string_viewEPNS0_13time_internal4cctz6detail10civil_timeINS2_7day_tagEEE, symObjAddr: 0x1670, symBinAddr: 0xF604, symSize: 0x150 }
  - { offset: 0x70F39, size: 0x8, addend: 0x0, symName: __ZN4absl12lts_2024072221ParseLenientCivilTimeENS0_11string_viewEPNS0_13time_internal4cctz6detail10civil_timeINS2_9month_tagEEE, symObjAddr: 0x17C0, symBinAddr: 0xF754, symSize: 0x154 }
  - { offset: 0x714E5, size: 0x8, addend: 0x0, symName: __ZN4absl12lts_2024072221ParseLenientCivilTimeENS0_11string_viewEPNS0_13time_internal4cctz6detail10civil_timeINS2_8year_tagEEE, symObjAddr: 0x1914, symBinAddr: 0xF8A8, symSize: 0x100 }
  - { offset: 0x72258, size: 0x8, addend: 0x0, symName: __ZN4absl12lts_202407228AlphaNumC2Ex, symObjAddr: 0x24A0, symBinAddr: 0x10424, symSize: 0x44 }
  - { offset: 0x72798, size: 0x8, addend: 0x0, symName: __ZNSt3__112basic_stringIcNS_11char_traitsIcEENS_9allocatorIcEEEC2B8ne190102EPKcm, symObjAddr: 0x28B0, symBinAddr: 0x10468, symSize: 0xA0 }
  - { offset: 0x729B2, size: 0x8, addend: 0x0, symName: __ZN4absl12lts_2024072212_GLOBAL__N_17ParseAsINS0_13time_internal4cctz6detail10civil_timeINS3_8year_tagEEENS6_INS3_10second_tagEEEEEbNS0_11string_viewEPT0_, symObjAddr: 0x2950, symBinAddr: 0x10508, symSize: 0x5C }
  - { offset: 0x78A52, size: 0x8, addend: 0x0, symName: __ZNSt3__1lsB8ne190102INS_11char_traitsIcEEEERNS_13basic_ostreamIcT_EES6_RKNS_8__iom_t4IcEE, symObjAddr: 0x428, symBinAddr: 0x10B54, symSize: 0xA0 }
  - { offset: 0x7A8E9, size: 0x8, addend: 0x0, symName: __ZN4absl12lts_2024072213time_internal4cctz6detaillsERNSt3__113basic_ostreamIcNS4_11char_traitsIcEEEERKNS3_10civil_timeINS3_8year_tagEEE, symObjAddr: 0x0, symBinAddr: 0x1072C, symSize: 0x128 }
  - { offset: 0x7ADBE, size: 0x8, addend: 0x0, symName: __ZN4absl12lts_2024072213time_internal4cctz6detaillsERNSt3__113basic_ostreamIcNS4_11char_traitsIcEEEERKNS3_10civil_timeINS3_9month_tagEEE, symObjAddr: 0x29C, symBinAddr: 0x109C8, symSize: 0x18C }
  - { offset: 0x7B3CB, size: 0x8, addend: 0x0, symName: __ZN4absl12lts_2024072213time_internal4cctz6detaillsERNSt3__113basic_ostreamIcNS4_11char_traitsIcEEEERKNS3_10civil_timeINS3_7day_tagEEE, symObjAddr: 0x4C8, symBinAddr: 0x10BF4, symSize: 0x190 }
  - { offset: 0x7B9D8, size: 0x8, addend: 0x0, symName: __ZN4absl12lts_2024072213time_internal4cctz6detaillsERNSt3__113basic_ostreamIcNS4_11char_traitsIcEEEERKNS3_10civil_timeINS3_8hour_tagEEE, symObjAddr: 0x658, symBinAddr: 0x10D84, symSize: 0x18C }
  - { offset: 0x7BFE5, size: 0x8, addend: 0x0, symName: __ZN4absl12lts_2024072213time_internal4cctz6detaillsERNSt3__113basic_ostreamIcNS4_11char_traitsIcEEEERKNS3_10civil_timeINS3_10minute_tagEEE, symObjAddr: 0x7E4, symBinAddr: 0x10F10, symSize: 0x190 }
  - { offset: 0x7C5F2, size: 0x8, addend: 0x0, symName: __ZN4absl12lts_2024072213time_internal4cctz6detaillsERNSt3__113basic_ostreamIcNS4_11char_traitsIcEEEERKNS3_10civil_timeINS3_10second_tagEEE, symObjAddr: 0x974, symBinAddr: 0x110A0, symSize: 0x18C }
  - { offset: 0x7CBFE, size: 0x8, addend: 0x0, symName: __ZN4absl12lts_2024072213time_internal4cctz6detaillsERNSt3__113basic_ostreamIcNS4_11char_traitsIcEEEENS3_7weekdayE, symObjAddr: 0xB00, symBinAddr: 0x1122C, symSize: 0xAC }
  - { offset: 0x7D189, size: 0x8, addend: 0x0, symName: __ZNSt3__118basic_stringstreamIcNS_11char_traitsIcEENS_9allocatorIcEEEC1B8ne190102Ev, symObjAddr: 0x128, symBinAddr: 0x10854, symSize: 0xE0 }
  - { offset: 0x7D371, size: 0x8, addend: 0x0, symName: __ZNSt3__118basic_stringstreamIcNS_11char_traitsIcEENS_9allocatorIcEEED1Ev, symObjAddr: 0x208, symBinAddr: 0x10934, symSize: 0x94 }
  - { offset: 0x7DA8F, size: 0x8, addend: 0x0, symName: __ZThn16_NSt3__118basic_stringstreamIcNS_11char_traitsIcEENS_9allocatorIcEEED1Ev, symObjAddr: 0xBAC, symBinAddr: 0x112D8, symSize: 0x8C }
  - { offset: 0x7DC20, size: 0x8, addend: 0x0, symName: __ZTv0_n24_NSt3__118basic_stringstreamIcNS_11char_traitsIcEENS_9allocatorIcEEED1Ev, symObjAddr: 0xC38, symBinAddr: 0x11364, symSize: 0x94 }
  - { offset: 0x7DDC3, size: 0x8, addend: 0x0, symName: __ZNSt3__118basic_stringstreamIcNS_11char_traitsIcEENS_9allocatorIcEEED0Ev, symObjAddr: 0xCCC, symBinAddr: 0x113F8, symSize: 0x94 }
  - { offset: 0x7DF8C, size: 0x8, addend: 0x0, symName: __ZThn16_NSt3__118basic_stringstreamIcNS_11char_traitsIcEENS_9allocatorIcEEED0Ev, symObjAddr: 0xD60, symBinAddr: 0x1148C, symSize: 0x94 }
  - { offset: 0x7E13B, size: 0x8, addend: 0x0, symName: __ZTv0_n24_NSt3__118basic_stringstreamIcNS_11char_traitsIcEENS_9allocatorIcEEED0Ev, symObjAddr: 0xDF4, symBinAddr: 0x11520, symSize: 0x9C }
  - { offset: 0x80AA2, size: 0x8, addend: 0x0, symName: __ZN4absl12lts_202407223NowEv, symObjAddr: 0x0, symBinAddr: 0x115BC, symSize: 0xAC }
  - { offset: 0x80C74, size: 0x8, addend: 0x0, symName: __ZN4absl12lts_202407223NowEv, symObjAddr: 0x0, symBinAddr: 0x115BC, symSize: 0xAC }
  - { offset: 0x80D99, size: 0x8, addend: 0x0, symName: __ZN4absl12lts_2024072219GetCurrentTimeNanosEv, symObjAddr: 0xAC, symBinAddr: 0x11668, symSize: 0x34 }
  - { offset: 0x81D82, size: 0x8, addend: 0x0, symName: _AbslInternalSleepFor_lts_20240722, symObjAddr: 0xE0, symBinAddr: 0x1169C, symSize: 0xB4 }
  - { offset: 0x83D90, size: 0x8, addend: 0x0, symName: __ZNK4absl12lts_2024072215CommandLineFlag9IsRetiredEv, symObjAddr: 0x0, symBinAddr: 0x11750, symSize: 0x8 }
  - { offset: 0x86301, size: 0x8, addend: 0x0, symName: __ZNK4absl12lts_2024072215CommandLineFlag9IsRetiredEv, symObjAddr: 0x0, symBinAddr: 0x11750, symSize: 0x8 }
  - { offset: 0x86326, size: 0x8, addend: 0x0, symName: __ZN4absl12lts_2024072215CommandLineFlag9ParseFromENS0_11string_viewEPNSt3__112basic_stringIcNS3_11char_traitsIcEENS3_9allocatorIcEEEE, symObjAddr: 0x8, symBinAddr: 0x11758, symSize: 0x18 }
  - { offset: 0x88260, size: 0x8, addend: 0x0, symName: __ZN4absl12lts_2024072214flags_internal18FlagStateInterfaceD2Ev, symObjAddr: 0x0, symBinAddr: 0x11770, symSize: 0x4 }
  - { offset: 0x882F7, size: 0x8, addend: 0x0, symName: __ZN4absl12lts_2024072214flags_internal18FlagStateInterfaceD2Ev, symObjAddr: 0x0, symBinAddr: 0x11770, symSize: 0x4 }
  - { offset: 0x88322, size: 0x8, addend: 0x0, symName: __ZN4absl12lts_2024072214flags_internal18FlagStateInterfaceD1Ev, symObjAddr: 0x4, symBinAddr: 0x11774, symSize: 0x4 }
  - { offset: 0x8834B, size: 0x8, addend: 0x0, symName: __ZN4absl12lts_2024072214flags_internal18FlagStateInterfaceD0Ev, symObjAddr: 0x8, symBinAddr: 0x11778, symSize: 0x4 }
  - { offset: 0x883DB, size: 0x8, addend: 0x0, symName: __ZN4absl12lts_2024072212log_internal14LogEveryNState9ShouldLogEi, symObjAddr: 0x0, symBinAddr: 0x1177C, symSize: 0x30 }
  - { offset: 0x89DA2, size: 0x8, addend: 0x0, symName: __ZN4absl12lts_2024072212log_internal14LogEveryNState9ShouldLogEi, symObjAddr: 0x0, symBinAddr: 0x1177C, symSize: 0x30 }
  - { offset: 0x89E98, size: 0x8, addend: 0x0, symName: __ZN4absl12lts_2024072212log_internal14LogFirstNState9ShouldLogEi, symObjAddr: 0x30, symBinAddr: 0x117AC, symSize: 0x24 }
  - { offset: 0x89EDF, size: 0x8, addend: 0x0, symName: __ZN4absl12lts_2024072212log_internal14LogFirstNState9ShouldLogEi, symObjAddr: 0x30, symBinAddr: 0x117AC, symSize: 0x24 }
  - { offset: 0x89F00, size: 0x8, addend: 0x0, symName: __ZN4absl12lts_2024072212log_internal14LogFirstNState9ShouldLogEi, symObjAddr: 0x30, symBinAddr: 0x117AC, symSize: 0x24 }
  - { offset: 0x89F78, size: 0x8, addend: 0x0, symName: __ZN4absl12lts_2024072212log_internal17LogEveryPow2State9ShouldLogEv, symObjAddr: 0x54, symBinAddr: 0x117D0, symSize: 0x18 }
  - { offset: 0x89FB2, size: 0x8, addend: 0x0, symName: __ZN4absl12lts_2024072212log_internal17LogEveryPow2State9ShouldLogEv, symObjAddr: 0x54, symBinAddr: 0x117D0, symSize: 0x18 }
  - { offset: 0x89FD6, size: 0x8, addend: 0x0, symName: __ZN4absl12lts_2024072212log_internal17LogEveryPow2State9ShouldLogEv, symObjAddr: 0x54, symBinAddr: 0x117D0, symSize: 0x18 }
  - { offset: 0x89FF7, size: 0x8, addend: 0x0, symName: __ZN4absl12lts_2024072212log_internal17LogEveryPow2State9ShouldLogEv, symObjAddr: 0x54, symBinAddr: 0x117D0, symSize: 0x18 }
  - { offset: 0x8A163, size: 0x8, addend: 0x0, symName: __ZN4absl12lts_2024072212log_internal17LogEveryNSecState9ShouldLogEd, symObjAddr: 0x6C, symBinAddr: 0x117E8, symSize: 0xA4 }
  - { offset: 0x8B3CF, size: 0x8, addend: 0x0, symName: __ZN4absl12lts_202407224Cord9InlineRep10kMaxInlineE, symObjAddr: 0xE7C8, symBinAddr: 0x6F0F0, symSize: 0x0 }
  - { offset: 0x8E331, size: 0x8, addend: 0x0, symName: __ZN4absl12lts_2024072213cord_internal25InitializeCordRepExternalENS0_11string_viewEPNS1_15CordRepExternalE, symObjAddr: 0x33C, symBinAddr: 0x11BC8, symSize: 0x28 }
  - { offset: 0x8E379, size: 0x8, addend: 0x0, symName: __ZN4absl12lts_20240722L10VerifyTreeEPNS0_13cord_internal7CordRepE, symObjAddr: 0x364, symBinAddr: 0x11BF0, symSize: 0x86C }
  - { offset: 0x8E62B, size: 0x8, addend: 0x0, symName: __ZN4absl12lts_2024072213cord_internal8EdgeDataEPKNS1_7CordRepE, symObjAddr: 0x8384, symBinAddr: 0x18F08, symSize: 0x8C }
  - { offset: 0x8E7A2, size: 0x8, addend: 0x0, symName: __ZN4absl12lts_2024072213cord_internal21CordRepBtreeNavigator4InitILNS1_12CordRepBtree8EdgeTypeE0EEEPNS1_7CordRepEPS4_, symObjAddr: 0x8410, symBinAddr: 0x18F94, symSize: 0xF4 }
  - { offset: 0x921C0, size: 0x8, addend: 0x0, symName: __ZN4absl12lts_20240722L17CordRepFromStringEONSt3__112basic_stringIcNS1_11char_traitsIcEENS1_9allocatorIcEEEE, symObjAddr: 0x68, symBinAddr: 0x118F4, symSize: 0x178 }
  - { offset: 0x9283D, size: 0x8, addend: 0x0, symName: __ZN4absl12lts_20240722L7NewTreeEPKcmm, symObjAddr: 0x1418, symBinAddr: 0x12CA4, symSize: 0xF8 }
  - { offset: 0x92C12, size: 0x8, addend: 0x0, symName: __ZN4absl12lts_202407224CordC1ENS0_11string_viewENS0_13cord_internal18CordzUpdateTracker16MethodIdentifierE, symObjAddr: 0x1510, symBinAddr: 0x12D9C, symSize: 0x4 }
  - { offset: 0x92C1D, size: 0x8, addend: 0x0, symName: __ZN4absl12lts_20240722L10VerifyTreeEPNS0_13cord_internal7CordRepE, symObjAddr: 0x364, symBinAddr: 0x11BF0, symSize: 0x86C }
  - { offset: 0x9579A, size: 0x8, addend: 0x0, symName: __ZN4absl12lts_20240722L11ReportErrorEPNS0_13cord_internal7CordRepES3_, symObjAddr: 0x68AC, symBinAddr: 0x180EC, symSize: 0x59C }
  - { offset: 0x9677F, size: 0x8, addend: 0x0, symName: __ZN4absl12lts_20240722L10ForceBtreeEPNS0_13cord_internal7CordRepE, symObjAddr: 0xE6C, symBinAddr: 0x126F8, symSize: 0xF0 }
  - { offset: 0x96BA1, size: 0x8, addend: 0x0, symName: __ZN4absl12lts_202407224Cord9InlineRep20PrependTreeToInlinedEPNS0_13cord_internal7CordRepENS3_18CordzUpdateTracker16MethodIdentifierE, symObjAddr: 0xF5C, symBinAddr: 0x127E8, symSize: 0x110 }
  - { offset: 0x96E25, size: 0x8, addend: 0x0, symName: __ZN4absl12lts_2024072214GenericCompareIbNS0_11string_viewEEET_RKNS0_4CordERKT0_m, symObjAddr: 0x452C, symBinAddr: 0x15DB8, symSize: 0xB8 }
  - { offset: 0x97078, size: 0x8, addend: 0x0, symName: __ZNK4absl12lts_202407224Cord10EqualsImplERKS1_m, symObjAddr: 0x45E4, symBinAddr: 0x15E70, symSize: 0x4 }
  - { offset: 0x97094, size: 0x8, addend: 0x0, symName: __ZN4absl12lts_2024072214GenericCompareIbNS0_4CordEEET_RKS2_RKT0_m, symObjAddr: 0x45E8, symBinAddr: 0x15E74, symSize: 0xEC }
  - { offset: 0x9745C, size: 0x8, addend: 0x0, symName: __ZNK4absl12lts_202407224Cord7CompareENS0_11string_viewE, symObjAddr: 0x46D4, symBinAddr: 0x15F60, symSize: 0x6C }
  - { offset: 0x974DD, size: 0x8, addend: 0x0, symName: __ZN4absl12lts_2024072214GenericCompareIiNS0_11string_viewEEET_RKNS0_4CordERKT0_m, symObjAddr: 0xA550, symBinAddr: 0x1AF9C, symSize: 0xC4 }
  - { offset: 0x97793, size: 0x8, addend: 0x0, symName: __ZN4absl12lts_2024072214GenericCompareIiNS0_4CordEEET_RKS2_RKT0_m, symObjAddr: 0xA614, symBinAddr: 0x1B060, symSize: 0xF8 }
  - { offset: 0x97814, size: 0x8, addend: 0x0, symName: __ZN4absl12lts_2024072214GenericCompareIiNS0_4CordEEET_RKS2_RKT0_m, symObjAddr: 0xA614, symBinAddr: 0x1B060, symSize: 0xF8 }
  - { offset: 0x97C3F, size: 0x8, addend: 0x0, symName: __ZN4absl12lts_2024072216strings_internal25AppendUninitializedTraitsINSt3__112basic_stringIcNS3_11char_traitsIcEENS3_9allocatorIcEEEEvE6AppendEPS9_m, symObjAddr: 0xA70C, symBinAddr: 0x1B158, symSize: 0xA8 }
  - { offset: 0x97C5C, size: 0x8, addend: 0x0, symName: __ZN4absl12lts_2024072216CopyCordToStringERKNS0_4CordEPNSt3__112basic_stringIcNS4_11char_traitsIcEENS4_9allocatorIcEEEE, symObjAddr: 0x4A6C, symBinAddr: 0x162F8, symSize: 0x60 }
  - { offset: 0x97E8E, size: 0x8, addend: 0x0, symName: __ZN4absl12lts_2024072216strings_internal37STLStringResizeUninitializedAmortizedINSt3__112basic_stringIcNS3_11char_traitsIcEENS3_9allocatorIcEEEEEEvPT_m, symObjAddr: 0x4D68, symBinAddr: 0x165F4, symSize: 0x24 }
  - { offset: 0x97ED6, size: 0x8, addend: 0x0, symName: __ZN4absl12lts_2024072216strings_internal37STLStringResizeUninitializedAmortizedINSt3__112basic_stringIcNS3_11char_traitsIcEENS3_9allocatorIcEEEEEEvPT_m, symObjAddr: 0x4D68, symBinAddr: 0x165F4, symSize: 0x24 }
  - { offset: 0x97EF1, size: 0x8, addend: 0x0, symName: __ZN4absl12lts_2024072216strings_internal37STLStringResizeUninitializedAmortizedINSt3__112basic_stringIcNS3_11char_traitsIcEENS3_9allocatorIcEEEEEEvPT_m, symObjAddr: 0x4D68, symBinAddr: 0x165F4, symSize: 0x24 }
  - { offset: 0x97FED, size: 0x8, addend: 0x0, symName: __ZN4absl12lts_2024072218AppendCordToStringERKNS0_4CordEPNSt3__112basic_stringIcNS4_11char_traitsIcEENS4_9allocatorIcEEEE, symObjAddr: 0x4C64, symBinAddr: 0x164F0, symSize: 0x104 }
  - { offset: 0x98400, size: 0x8, addend: 0x0, symName: __ZN4absl12lts_2024072216strings_internal37STLStringResizeUninitializedAmortizedINSt3__112basic_stringIcNS3_11char_traitsIcEENS3_9allocatorIcEEEEEEvPT_m, symObjAddr: 0x4D68, symBinAddr: 0x165F4, symSize: 0x24 }
  - { offset: 0x98479, size: 0x8, addend: 0x0, symName: __ZN4absl12lts_2024072212_GLOBAL__N_117IsSubcordInCordAtENS0_4Cord12CharIteratorES3_S3_, symObjAddr: 0x5F8C, symBinAddr: 0x177DC, symSize: 0x1C0 }
  - { offset: 0x98897, size: 0x8, addend: 0x0, symName: __ZNK4absl12lts_202407224Cord8ContainsENS0_11string_viewE, symObjAddr: 0x614C, symBinAddr: 0x1799C, symSize: 0x64 }
  - { offset: 0x988A1, size: 0x8, addend: 0x0, symName: __ZN4absl12lts_2024072212_GLOBAL__N_113CompareChunksEPNS0_11string_viewES3_Pm, symObjAddr: 0xA294, symBinAddr: 0x1ACE0, symSize: 0x98 }
  - { offset: 0x98A13, size: 0x8, addend: 0x0, symName: __ZNK4absl12lts_202407224Cord15CompareSlowPathERKS1_mm, symObjAddr: 0xA32C, symBinAddr: 0x1AD78, symSize: 0x224 }
  - { offset: 0x98B7D, size: 0x8, addend: 0x0, symName: __ZN4absl12lts_20240722lsERNSt3__113basic_ostreamIcNS1_11char_traitsIcEEEERKNS0_4CordE, symObjAddr: 0x6578, symBinAddr: 0x17DC8, symSize: 0xE4 }
  - { offset: 0xA1302, size: 0x8, addend: 0x0, symName: __ZNSt3__118__for_each_segmentB8ne190102INS_16__deque_iteratorIN4absl12lts_2024072212crc_internal12CrcCordState9PrefixCrcEPKS6_RS7_PKS8_lLl256EEENS_11__copy_implINS_17_ClassicAlgPolicyEE12_CopySegmentISC_NS1_IS6_PS6_RS6_PSH_lLl256EEEEEEEvT_SM_T0_, symObjAddr: 0x8CA4, symBinAddr: 0x19828, symSize: 0xC0 }
  - { offset: 0xA163F, size: 0x8, addend: 0x0, symName: __ZNSt3__124__copy_move_unwrap_itersB8ne190102INS_11__copy_implINS_17_ClassicAlgPolicyEEEPKN4absl12lts_2024072212crc_internal12CrcCordState9PrefixCrcESA_NS_16__deque_iteratorIS8_PS8_RS8_PSC_lLl256EEELi0EEENS_4pairIT0_T2_EESH_T1_SI_, symObjAddr: 0x8D64, symBinAddr: 0x198E8, symSize: 0xC8 }
  - { offset: 0xA20B5, size: 0x8, addend: 0x0, symName: __ZNSt3__15dequeIN4absl12lts_2024072212crc_internal12CrcCordState9PrefixCrcENS_9allocatorIS5_EEE25__maybe_remove_back_spareB8ne190102Eb, symObjAddr: 0x9820, symBinAddr: 0x1A314, symSize: 0x6C }
  - { offset: 0xA3F37, size: 0x8, addend: 0x0, symName: __ZN4absl12lts_202407224Cord15FlattenSlowPathEv, symObjAddr: 0x622C, symBinAddr: 0x17A7C, symSize: 0x1F8 }
  - { offset: 0xA4922, size: 0x8, addend: 0x0, symName: __ZN4absl12lts_202407224CordC2INSt3__112basic_stringIcNS3_11char_traitsIcEENS3_9allocatorIcEEEELi0EEEOT_, symObjAddr: 0x0, symBinAddr: 0x1188C, symSize: 0x68 }
  - { offset: 0xA4AD9, size: 0x8, addend: 0x0, symName: __ZN4absl12lts_20240722L17CordRepFromStringEONSt3__112basic_stringIcNS1_11char_traitsIcEENS1_9allocatorIcEEEE, symObjAddr: 0x68, symBinAddr: 0x118F4, symSize: 0x178 }
  - { offset: 0xA4AF3, size: 0x8, addend: 0x0, symName: __ZN4absl12lts_2024072213cord_internal10InlineData15set_inline_dataEPKcm, symObjAddr: 0x7CC4, symBinAddr: 0x18848, symSize: 0xA4 }
  - { offset: 0xA4BF1, size: 0x8, addend: 0x0, symName: __ZN4absl12lts_2024072213cord_internal16CordzUpdateScopeD2Ev, symObjAddr: 0x7D68, symBinAddr: 0x188EC, symSize: 0x34 }
  - { offset: 0xA4BFC, size: 0x8, addend: 0x0, symName: __ZN4absl12lts_202407224CordC2INSt3__112basic_stringIcNS3_11char_traitsIcEENS3_9allocatorIcEEEELi0EEEOT_.cold.1, symObjAddr: 0xA81C, symBinAddr: 0x6484C, symSize: 0x24 }
  - { offset: 0xA50BE, size: 0x8, addend: 0x0, symName: __ZN4absl12lts_20240722L17CordRepFromStringEONSt3__112basic_stringIcNS1_11char_traitsIcEENS1_9allocatorIcEEEE.cold.1, symObjAddr: 0xA840, symBinAddr: 0x64870, symSize: 0x28 }
  - { offset: 0xA50E7, size: 0x8, addend: 0x0, symName: __ZN4absl12lts_202407224CordC1INSt3__112basic_stringIcNS3_11char_traitsIcEENS3_9allocatorIcEEEELi0EEEOT_, symObjAddr: 0x1E0, symBinAddr: 0x11A6C, symSize: 0x4 }
  - { offset: 0xA511F, size: 0x8, addend: 0x0, symName: __ZN4absl12lts_202407224CordC1INSt3__112basic_stringIcNS3_11char_traitsIcEENS3_9allocatorIcEEEELi0EEEOT_, symObjAddr: 0x1E0, symBinAddr: 0x11A6C, symSize: 0x4 }
  - { offset: 0xA5171, size: 0x8, addend: 0x0, symName: __ZN4absl12lts_202407224Cord6AppendINSt3__112basic_stringIcNS3_11char_traitsIcEENS3_9allocatorIcEEEELi0EEEvOT_, symObjAddr: 0x1E4, symBinAddr: 0x11A70, symSize: 0x68 }
  - { offset: 0xA52BD, size: 0x8, addend: 0x0, symName: __ZN4absl12lts_202407224Cord9InlineRep10AppendTreeEPNS0_13cord_internal7CordRepENS3_18CordzUpdateTracker16MethodIdentifierE, symObjAddr: 0x24C, symBinAddr: 0x11AD8, symSize: 0x44 }
  - { offset: 0xA538F, size: 0x8, addend: 0x0, symName: __ZN4absl12lts_202407224Cord7PrependINSt3__112basic_stringIcNS3_11char_traitsIcEENS3_9allocatorIcEEEELi0EEEvOT_, symObjAddr: 0x290, symBinAddr: 0x11B1C, symSize: 0x68 }
  - { offset: 0xA539A, size: 0x8, addend: 0x0, symName: __ZN4absl12lts_202407224Cord9InlineRep11AppendArrayENS0_11string_viewENS0_13cord_internal18CordzUpdateTracker16MethodIdentifierE, symObjAddr: 0x1A48, symBinAddr: 0x132D4, symSize: 0x560 }
  - { offset: 0xA6184, size: 0x8, addend: 0x0, symName: __ZN4absl12lts_202407224Cord9InlineRep19AppendTreeToInlinedEPNS0_13cord_internal7CordRepENS3_18CordzUpdateTracker16MethodIdentifierE, symObjAddr: 0xBD0, symBinAddr: 0x1245C, symSize: 0x110 }
  - { offset: 0xA662B, size: 0x8, addend: 0x0, symName: __ZN4absl12lts_202407224Cord9InlineRep16AppendTreeToTreeEPNS0_13cord_internal7CordRepENS3_18CordzUpdateTracker16MethodIdentifierE, symObjAddr: 0xCE0, symBinAddr: 0x1256C, symSize: 0x160 }
  - { offset: 0xA697A, size: 0x8, addend: 0x0, symName: __ZN4absl12lts_202407224Cord9InlineRep10AppendTreeEPNS0_13cord_internal7CordRepENS3_18CordzUpdateTracker16MethodIdentifierE.cold.3, symObjAddr: 0xA8B8, symBinAddr: 0x648E8, symSize: 0x28 }
  - { offset: 0xA6992, size: 0x8, addend: 0x0, symName: __ZN4absl12lts_202407224Cord9InlineRep10AppendTreeEPNS0_13cord_internal7CordRepENS3_18CordzUpdateTracker16MethodIdentifierE.cold.2, symObjAddr: 0xA890, symBinAddr: 0x648C0, symSize: 0x28 }
  - { offset: 0xA69AA, size: 0x8, addend: 0x0, symName: __ZN4absl12lts_202407224Cord9InlineRep10AppendTreeEPNS0_13cord_internal7CordRepENS3_18CordzUpdateTracker16MethodIdentifierE.cold.1, symObjAddr: 0xA868, symBinAddr: 0x64898, symSize: 0x28 }
  - { offset: 0xA69E6, size: 0x8, addend: 0x0, symName: __ZN4absl12lts_202407224Cord7PrependINSt3__112basic_stringIcNS3_11char_traitsIcEENS3_9allocatorIcEEEELi0EEEvOT_, symObjAddr: 0x290, symBinAddr: 0x11B1C, symSize: 0x68 }
  - { offset: 0xA6B32, size: 0x8, addend: 0x0, symName: __ZN4absl12lts_202407224Cord9InlineRep11PrependTreeEPNS0_13cord_internal7CordRepENS3_18CordzUpdateTracker16MethodIdentifierE, symObjAddr: 0x2F8, symBinAddr: 0x11B84, symSize: 0x44 }
  - { offset: 0xA6C06, size: 0x8, addend: 0x0, symName: __ZN4absl12lts_2024072213cord_internal25InitializeCordRepExternalENS0_11string_viewEPNS1_15CordRepExternalE, symObjAddr: 0x33C, symBinAddr: 0x11BC8, symSize: 0x28 }
  - { offset: 0xA6C11, size: 0x8, addend: 0x0, symName: __ZN4absl12lts_202407224Cord12PrependArrayENS0_11string_viewENS0_13cord_internal18CordzUpdateTracker16MethodIdentifierE, symObjAddr: 0x2C64, symBinAddr: 0x144F0, symSize: 0xF4 }
  - { offset: 0xA6F7A, size: 0x8, addend: 0x0, symName: __ZN4absl12lts_202407224Cord9InlineRep20PrependTreeToInlinedEPNS0_13cord_internal7CordRepENS3_18CordzUpdateTracker16MethodIdentifierE, symObjAddr: 0xF5C, symBinAddr: 0x127E8, symSize: 0x110 }
  - { offset: 0xA7421, size: 0x8, addend: 0x0, symName: __ZN4absl12lts_202407224Cord9InlineRep17PrependTreeToTreeEPNS0_13cord_internal7CordRepENS3_18CordzUpdateTracker16MethodIdentifierE, symObjAddr: 0x106C, symBinAddr: 0x128F8, symSize: 0x160 }
  - { offset: 0xA7770, size: 0x8, addend: 0x0, symName: __ZN4absl12lts_202407224Cord9InlineRep11PrependTreeEPNS0_13cord_internal7CordRepENS3_18CordzUpdateTracker16MethodIdentifierE.cold.3, symObjAddr: 0xA930, symBinAddr: 0x64960, symSize: 0x28 }
  - { offset: 0xA7788, size: 0x8, addend: 0x0, symName: __ZN4absl12lts_202407224Cord9InlineRep11PrependTreeEPNS0_13cord_internal7CordRepENS3_18CordzUpdateTracker16MethodIdentifierE.cold.2, symObjAddr: 0xA908, symBinAddr: 0x64938, symSize: 0x28 }
  - { offset: 0xA77A0, size: 0x8, addend: 0x0, symName: __ZN4absl12lts_202407224Cord9InlineRep11PrependTreeEPNS0_13cord_internal7CordRepENS3_18CordzUpdateTracker16MethodIdentifierE.cold.1, symObjAddr: 0xA8E0, symBinAddr: 0x64910, symSize: 0x28 }
  - { offset: 0xA77B8, size: 0x8, addend: 0x0, symName: __ZN4absl12lts_2024072213cord_internal25InitializeCordRepExternalENS0_11string_viewEPNS1_15CordRepExternalE.cold.1, symObjAddr: 0xA958, symBinAddr: 0x64988, symSize: 0x28 }
  - { offset: 0xA7D93, size: 0x8, addend: 0x0, symName: __ZN4absl12lts_2024072223inlined_vector_internal7StorageIPNS0_13cord_internal7CordRepELm2ENSt3__19allocatorIS5_EEE11EmplaceBackIJRKS5_EEERS5_DpOT_, symObjAddr: 0x6E48, symBinAddr: 0x18688, symSize: 0x44 }
  - { offset: 0xA7DEA, size: 0x8, addend: 0x0, symName: __ZN4absl12lts_2024072223inlined_vector_internal7StorageIPNS0_13cord_internal7CordRepELm2ENSt3__19allocatorIS5_EEE11EmplaceBackIJRKS5_EEERS5_DpOT_, symObjAddr: 0x6E48, symBinAddr: 0x18688, symSize: 0x44 }
  - { offset: 0xA7E06, size: 0x8, addend: 0x0, symName: __ZN4absl12lts_2024072223inlined_vector_internal7StorageIPNS0_13cord_internal7CordRepELm2ENSt3__19allocatorIS5_EEE11EmplaceBackIJRKS5_EEERS5_DpOT_, symObjAddr: 0x6E48, symBinAddr: 0x18688, symSize: 0x44 }
  - { offset: 0xA7EEE, size: 0x8, addend: 0x0, symName: __ZN4absl12lts_2024072213InlinedVectorIPNS0_13cord_internal7CordRepELm2ENSt3__19allocatorIS4_EEE8pop_backEv, symObjAddr: 0x6860, symBinAddr: 0x180A0, symSize: 0x4C }
  - { offset: 0xA8141, size: 0x8, addend: 0x0, symName: __ZNSt3__15dequeIN4absl12lts_2024072212crc_internal12CrcCordState9PrefixCrcENS_9allocatorIS5_EEE19__add_back_capacityEv, symObjAddr: 0x9CB8, symBinAddr: 0x1A704, symSize: 0x2F4 }
  - { offset: 0xA831E, size: 0x8, addend: 0x0, symName: __ZN4absl12lts_2024072213cord_internal11CordRepFlat7NewImplILm4096EJEEEPS2_mDpT0_, symObjAddr: 0x7FC0, symBinAddr: 0x18B44, symSize: 0xA4 }
  - { offset: 0xA8593, size: 0x8, addend: 0x0, symName: __ZN4absl12lts_2024072213cord_internal11CordRepFlat7NewImplILm262144EJEEEPS2_mDpT0_, symObjAddr: 0x8064, symBinAddr: 0x18BE8, symSize: 0xC0 }
  - { offset: 0xA85AF, size: 0x8, addend: 0x0, symName: __ZN4absl12lts_202407224Cord9InlineRep19AppendTreeToInlinedEPNS0_13cord_internal7CordRepENS3_18CordzUpdateTracker16MethodIdentifierE.cold.3, symObjAddr: 0xA9CC, symBinAddr: 0x649FC, symSize: 0x24 }
  - { offset: 0xA85F2, size: 0x8, addend: 0x0, symName: __ZN4absl12lts_202407224Cord9InlineRep19AppendTreeToInlinedEPNS0_13cord_internal7CordRepENS3_18CordzUpdateTracker16MethodIdentifierE.cold.1, symObjAddr: 0xA980, symBinAddr: 0x649B0, symSize: 0x28 }
  - { offset: 0xA861E, size: 0x8, addend: 0x0, symName: __ZN4absl12lts_202407224Cord9InlineRep19AppendTreeToInlinedEPNS0_13cord_internal7CordRepENS3_18CordzUpdateTracker16MethodIdentifierE.cold.2, symObjAddr: 0xA9A8, symBinAddr: 0x649D8, symSize: 0x24 }
  - { offset: 0xA87E2, size: 0x8, addend: 0x0, symName: __ZNK4absl12lts_2024072213cord_internal10InlineData10cordz_infoEv, symObjAddr: 0xE40, symBinAddr: 0x126CC, symSize: 0x2C }
  - { offset: 0xA887F, size: 0x8, addend: 0x0, symName: __ZN4absl12lts_20240722L10ForceBtreeEPNS0_13cord_internal7CordRepE, symObjAddr: 0xE6C, symBinAddr: 0x126F8, symSize: 0xF0 }
  - { offset: 0xA888A, size: 0x8, addend: 0x0, symName: __ZN4absl12lts_2024072213cord_internal16CordzUpdateScopeD2Ev, symObjAddr: 0x7D68, symBinAddr: 0x188EC, symSize: 0x34 }
  - { offset: 0xA88B5, size: 0x8, addend: 0x0, symName: __ZN4absl12lts_202407224Cord9InlineRep16AppendTreeToTreeEPNS0_13cord_internal7CordRepENS3_18CordzUpdateTracker16MethodIdentifierE.cold.1, symObjAddr: 0xAA14, symBinAddr: 0x64A20, symSize: 0x28 }
  - { offset: 0xA88E3, size: 0x8, addend: 0x0, symName: __ZNK4absl12lts_2024072213cord_internal10InlineData10cordz_infoEv.cold.2, symObjAddr: 0xAA64, symBinAddr: 0x64A70, symSize: 0x28 }
  - { offset: 0xA88FB, size: 0x8, addend: 0x0, symName: __ZNK4absl12lts_2024072213cord_internal10InlineData10cordz_infoEv.cold.1, symObjAddr: 0xAA3C, symBinAddr: 0x64A48, symSize: 0x28 }
  - { offset: 0xA8A3A, size: 0x8, addend: 0x0, symName: __ZN4absl12lts_2024072213cord_internal7CordRep5UnrefEPS2_, symObjAddr: 0x12F4, symBinAddr: 0x12B80, symSize: 0x50 }
  - { offset: 0xA8AE0, size: 0x8, addend: 0x0, symName: __ZN4absl12lts_20240722L10ForceBtreeEPNS0_13cord_internal7CordRepE.cold.2, symObjAddr: 0xAAB0, symBinAddr: 0x64ABC, symSize: 0x24 }
  - { offset: 0xA8B22, size: 0x8, addend: 0x0, symName: __ZN4absl12lts_20240722L10ForceBtreeEPNS0_13cord_internal7CordRepE.cold.1, symObjAddr: 0xAA8C, symBinAddr: 0x64A98, symSize: 0x24 }
  - { offset: 0xA8BA5, size: 0x8, addend: 0x0, symName: __ZN4absl12lts_202407224Cord9InlineRep20PrependTreeToInlinedEPNS0_13cord_internal7CordRepENS3_18CordzUpdateTracker16MethodIdentifierE.cold.1, symObjAddr: 0xAAF8, symBinAddr: 0x64AE0, symSize: 0x28 }
  - { offset: 0xA8BF0, size: 0x8, addend: 0x0, symName: __ZN4absl12lts_202407224Cord9InlineRep17PrependTreeToTreeEPNS0_13cord_internal7CordRepENS3_18CordzUpdateTracker16MethodIdentifierE.cold.1, symObjAddr: 0xAB8C, symBinAddr: 0x64B08, symSize: 0x28 }
  - { offset: 0xA8CD9, size: 0x8, addend: 0x0, symName: __ZN4absl12lts_202407224Cord9InlineRep10AssignSlowERKS2_, symObjAddr: 0x11CC, symBinAddr: 0x12A58, symSize: 0x128 }
  - { offset: 0xA9282, size: 0x8, addend: 0x0, symName: __ZN4absl12lts_2024072213cord_internal7CordRep5UnrefEPS2_, symObjAddr: 0x12F4, symBinAddr: 0x12B80, symSize: 0x50 }
  - { offset: 0xA928D, size: 0x8, addend: 0x0, symName: __ZN4absl12lts_2024072213cord_internal10InlineData18is_either_profiledERKS2_S4_, symObjAddr: 0x7D9C, symBinAddr: 0x18920, symSize: 0x34 }
  - { offset: 0xA92C4, size: 0x8, addend: 0x0, symName: __ZN4absl12lts_2024072213cord_internal10InlineData18is_either_profiledERKS2_S4_, symObjAddr: 0x7D9C, symBinAddr: 0x18920, symSize: 0x34 }
  - { offset: 0xA92E0, size: 0x8, addend: 0x0, symName: __ZN4absl12lts_2024072213cord_internal10InlineData18is_either_profiledERKS2_S4_, symObjAddr: 0x7D9C, symBinAddr: 0x18920, symSize: 0x34 }
  - { offset: 0xA9372, size: 0x8, addend: 0x0, symName: __ZN4absl12lts_2024072213cord_internal12CordRepBtree15GetAppendBufferEm, symObjAddr: 0x7DD0, symBinAddr: 0x18954, symSize: 0x1F0 }
  - { offset: 0xA937D, size: 0x8, addend: 0x0, symName: __ZN4absl12lts_202407224Cord9InlineRep10AssignSlowERKS2_.cold.4, symObjAddr: 0xAC28, symBinAddr: 0x64B80, symSize: 0x28 }
  - { offset: 0xA9395, size: 0x8, addend: 0x0, symName: __ZN4absl12lts_202407224Cord9InlineRep10AssignSlowERKS2_.cold.3, symObjAddr: 0xAC00, symBinAddr: 0x64B58, symSize: 0x28 }
  - { offset: 0xA93C2, size: 0x8, addend: 0x0, symName: __ZN4absl12lts_202407224Cord9InlineRep10AssignSlowERKS2_.cold.1, symObjAddr: 0xABB4, symBinAddr: 0x64B30, symSize: 0x28 }
  - { offset: 0xA943D, size: 0x8, addend: 0x0, symName: __ZN4absl12lts_2024072213cord_internal7CordRep5UnrefEPS2_.cold.2, symObjAddr: 0xAC74, symBinAddr: 0x64BCC, symSize: 0x24 }
  - { offset: 0xA9455, size: 0x8, addend: 0x0, symName: __ZN4absl12lts_2024072213cord_internal7CordRep5UnrefEPS2_.cold.1, symObjAddr: 0xAC50, symBinAddr: 0x64BA8, symSize: 0x24 }
  - { offset: 0xA9499, size: 0x8, addend: 0x0, symName: __ZN4absl12lts_202407224Cord9InlineRep9UnrefTreeEv, symObjAddr: 0x1344, symBinAddr: 0x12BD0, symSize: 0x84 }
  - { offset: 0xA969F, size: 0x8, addend: 0x0, symName: __ZN4absl12lts_202407224CordC2ENS0_11string_viewENS0_13cord_internal18CordzUpdateTracker16MethodIdentifierE, symObjAddr: 0x13C8, symBinAddr: 0x12C54, symSize: 0x50 }
  - { offset: 0xA96DF, size: 0x8, addend: 0x0, symName: __ZN4absl12lts_202407224CordC2ENS0_11string_viewENS0_13cord_internal18CordzUpdateTracker16MethodIdentifierE, symObjAddr: 0x13C8, symBinAddr: 0x12C54, symSize: 0x50 }
  - { offset: 0xA980B, size: 0x8, addend: 0x0, symName: __ZN4absl12lts_20240722L7NewTreeEPKcmm, symObjAddr: 0x1418, symBinAddr: 0x12CA4, symSize: 0xF8 }
  - { offset: 0xA991C, size: 0x8, addend: 0x0, symName: __ZN4absl12lts_202407224CordC1ENS0_11string_viewENS0_13cord_internal18CordzUpdateTracker16MethodIdentifierE, symObjAddr: 0x1510, symBinAddr: 0x12D9C, symSize: 0x4 }
  - { offset: 0xA994A, size: 0x8, addend: 0x0, symName: __ZN4absl12lts_202407224CordC1ENS0_11string_viewENS0_13cord_internal18CordzUpdateTracker16MethodIdentifierE, symObjAddr: 0x1510, symBinAddr: 0x12D9C, symSize: 0x4 }
  - { offset: 0xA9981, size: 0x8, addend: 0x0, symName: __ZN4absl12lts_202407224Cord15DestroyCordSlowEv, symObjAddr: 0x1514, symBinAddr: 0x12DA0, symSize: 0x90 }
  - { offset: 0xA9B96, size: 0x8, addend: 0x0, symName: __ZN4absl12lts_202407224Cord15DestroyCordSlowEv.cold.4, symObjAddr: 0xAD98, symBinAddr: 0x64C18, symSize: 0x28 }
  - { offset: 0xA9BAE, size: 0x8, addend: 0x0, symName: __ZN4absl12lts_202407224Cord15DestroyCordSlowEv.cold.3, symObjAddr: 0xAD70, symBinAddr: 0x64BF0, symSize: 0x28 }
  - { offset: 0xA9C4B, size: 0x8, addend: 0x0, symName: __ZN4absl12lts_202407224Cord5ClearEv, symObjAddr: 0x15A4, symBinAddr: 0x12E30, symSize: 0x90 }
  - { offset: 0xA9EF1, size: 0x8, addend: 0x0, symName: __ZN4absl12lts_202407224Cord17AssignLargeStringEONSt3__112basic_stringIcNS2_11char_traitsIcEENS2_9allocatorIcEEEE, symObjAddr: 0x1634, symBinAddr: 0x12EC0, symSize: 0x168 }
  - { offset: 0xAA3A0, size: 0x8, addend: 0x0, symName: __ZN4absl12lts_202407224Cord17AssignLargeStringEONSt3__112basic_stringIcNS2_11char_traitsIcEENS2_9allocatorIcEEEE.cold.2, symObjAddr: 0xAE08, symBinAddr: 0x64C40, symSize: 0x28 }
  - { offset: 0xAA3E3, size: 0x8, addend: 0x0, symName: __ZN4absl12lts_202407224CordaSENS0_11string_viewE, symObjAddr: 0x179C, symBinAddr: 0x13028, symSize: 0x2AC }
  - { offset: 0xAACEC, size: 0x8, addend: 0x0, symName: __ZN4absl12lts_2024072213cord_internal12CordRepBtree15GetAppendBufferEm, symObjAddr: 0x7DD0, symBinAddr: 0x18954, symSize: 0x1F0 }
  - { offset: 0xAB205, size: 0x8, addend: 0x0, symName: __ZN4absl12lts_2024072213cord_internal11CordRepFlat7NewImplILm4096EJEEEPS2_mDpT0_, symObjAddr: 0x7FC0, symBinAddr: 0x18B44, symSize: 0xA4 }
  - { offset: 0xAB210, size: 0x8, addend: 0x0, symName: __ZN4absl12lts_202407224Cord9InlineRep11AppendArrayENS0_11string_viewENS0_13cord_internal18CordzUpdateTracker16MethodIdentifierE.cold.1, symObjAddr: 0xAE78, symBinAddr: 0x64C68, symSize: 0x74 }
  - { offset: 0xAB5D7, size: 0x8, addend: 0x0, symName: __ZN4absl12lts_202407224Cord23GetAppendBufferSlowPathEmmm, symObjAddr: 0x1FA8, symBinAddr: 0x13834, symSize: 0x4A8 }
  - { offset: 0xAC2F2, size: 0x8, addend: 0x0, symName: __ZN4absl12lts_2024072213cord_internal11CordRepFlat7NewImplILm262144EJEEEPS2_mDpT0_, symObjAddr: 0x8064, symBinAddr: 0x18BE8, symSize: 0xC0 }
  - { offset: 0xAC569, size: 0x8, addend: 0x0, symName: __ZN4absl12lts_2024072210CordBufferD1Ev, symObjAddr: 0x8124, symBinAddr: 0x18CA8, symSize: 0x34 }
  - { offset: 0xAC586, size: 0x8, addend: 0x0, symName: __ZN4absl12lts_202407224Cord23GetAppendBufferSlowPathEmmm.cold.2, symObjAddr: 0xAF10, symBinAddr: 0x64D00, symSize: 0x28 }
  - { offset: 0xAC5E0, size: 0x8, addend: 0x0, symName: __ZN4absl12lts_202407224Cord23GetAppendBufferSlowPathEmmm.cold.1, symObjAddr: 0xAEEC, symBinAddr: 0x64CDC, symSize: 0x24 }
  - { offset: 0xAC650, size: 0x8, addend: 0x0, symName: __ZN4absl12lts_2024072210CordBufferD1Ev, symObjAddr: 0x8124, symBinAddr: 0x18CA8, symSize: 0x34 }
  - { offset: 0xAC6E1, size: 0x8, addend: 0x0, symName: __ZN4absl12lts_202407224Cord6AppendERKS1_, symObjAddr: 0x2450, symBinAddr: 0x13CDC, symSize: 0x4 }
  - { offset: 0xAC719, size: 0x8, addend: 0x0, symName: __ZN4absl12lts_202407224Cord6AppendERKS1_, symObjAddr: 0x2450, symBinAddr: 0x13CDC, symSize: 0x4 }
  - { offset: 0xAC733, size: 0x8, addend: 0x0, symName: __ZN4absl12lts_202407224Cord10AppendImplIRKS1_EEvOT_, symObjAddr: 0x2454, symBinAddr: 0x13CE0, symSize: 0x3C8 }
  - { offset: 0xAD6E6, size: 0x8, addend: 0x0, symName: __ZN4absl12lts_202407224Cord13ChunkIteratorC2EPKS1_, symObjAddr: 0x81BC, symBinAddr: 0x18D40, symSize: 0x118 }
  - { offset: 0xADB15, size: 0x8, addend: 0x0, symName: __ZN4absl12lts_2024072213cord_internal18CordRepBtreeReader4InitEPNS1_12CordRepBtreeE, symObjAddr: 0x82D4, symBinAddr: 0x18E58, symSize: 0xB0 }
  - { offset: 0xADB20, size: 0x8, addend: 0x0, symName: __ZN4absl12lts_2024072213cord_internal18CordRepBtreeReader4NextEv, symObjAddr: 0x53A8, symBinAddr: 0x16BF8, symSize: 0x110 }
  - { offset: 0xADD8A, size: 0x8, addend: 0x0, symName: __ZNK4absl12lts_202407224CordixEm, symObjAddr: 0x54B8, symBinAddr: 0x16D08, symSize: 0xD0 }
  - { offset: 0xADD95, size: 0x8, addend: 0x0, symName: __ZN4absl12lts_202407224CordC1ERKS1_, symObjAddr: 0x48A4, symBinAddr: 0x16130, symSize: 0x7C }
  - { offset: 0xAE073, size: 0x8, addend: 0x0, symName: __ZN4absl12lts_202407224Cord10AppendImplIS1_EEvOT_, symObjAddr: 0x2820, symBinAddr: 0x140AC, symSize: 0x320 }
  - { offset: 0xAEB14, size: 0x8, addend: 0x0, symName: __ZN4absl12lts_202407224CordD2Ev, symObjAddr: 0x87C8, symBinAddr: 0x1934C, symSize: 0x34 }
  - { offset: 0xAEBA9, size: 0x8, addend: 0x0, symName: __ZN4absl12lts_202407224Cord10AppendImplIRKS1_EEvOT_.cold.6, symObjAddr: 0xB03C, symBinAddr: 0x64D70, symSize: 0x24 }
  - { offset: 0xAEBED, size: 0x8, addend: 0x0, symName: __ZN4absl12lts_202407224Cord10AppendImplIRKS1_EEvOT_.cold.5, symObjAddr: 0xB018, symBinAddr: 0x64D4C, symSize: 0x24 }
  - { offset: 0xAEC56, size: 0x8, addend: 0x0, symName: __ZN4absl12lts_202407224Cord10AppendImplIRKS1_EEvOT_.cold.4, symObjAddr: 0xAFF4, symBinAddr: 0x64D28, symSize: 0x24 }
  - { offset: 0xAEC99, size: 0x8, addend: 0x0, symName: __ZN4absl12lts_202407224Cord10AppendImplIRKS1_EEvOT_.cold.7, symObjAddr: 0xB060, symBinAddr: 0x64D94, symSize: 0x24 }
  - { offset: 0xAED83, size: 0x8, addend: 0x0, symName: __ZN4absl12lts_202407224Cord6AppendEOS1_, symObjAddr: 0x281C, symBinAddr: 0x140A8, symSize: 0x4 }
  - { offset: 0xAEDAC, size: 0x8, addend: 0x0, symName: __ZN4absl12lts_202407224Cord6AppendEOS1_, symObjAddr: 0x281C, symBinAddr: 0x140A8, symSize: 0x4 }
  - { offset: 0xAEE74, size: 0x8, addend: 0x0, symName: __ZN4absl12lts_202407224Cord10AppendImplIS1_EEvOT_.cold.9, symObjAddr: 0xB3B4, symBinAddr: 0x64F30, symSize: 0x28 }
  - { offset: 0xAEEA2, size: 0x8, addend: 0x0, symName: __ZN4absl12lts_202407224Cord10AppendImplIS1_EEvOT_.cold.8, symObjAddr: 0xB300, symBinAddr: 0x64E7C, symSize: 0xB4 }
  - { offset: 0xAEFE6, size: 0x8, addend: 0x0, symName: __ZN4absl12lts_202407224Cord10AppendImplIS1_EEvOT_.cold.2, symObjAddr: 0xB1AC, symBinAddr: 0x64DB8, symSize: 0x98 }
  - { offset: 0xAF10E, size: 0x8, addend: 0x0, symName: __ZN4absl12lts_202407224Cord10AppendImplIS1_EEvOT_.cold.7, symObjAddr: 0xB2D4, symBinAddr: 0x64E50, symSize: 0x2C }
  - { offset: 0xAF19A, size: 0x8, addend: 0x0, symName: __ZN4absl12lts_202407224Cord7PrependERKS1_, symObjAddr: 0x2B40, symBinAddr: 0x143CC, symSize: 0x124 }
  - { offset: 0xAF6F0, size: 0x8, addend: 0x0, symName: __ZN4absl12lts_202407224Cord12PrependArrayENS0_11string_viewENS0_13cord_internal18CordzUpdateTracker16MethodIdentifierE, symObjAddr: 0x2C64, symBinAddr: 0x144F0, symSize: 0xF4 }
  - { offset: 0xAF87F, size: 0x8, addend: 0x0, symName: __ZN4absl12lts_202407224Cord13AppendPreciseENS0_11string_viewENS0_13cord_internal18CordzUpdateTracker16MethodIdentifierE, symObjAddr: 0x2D58, symBinAddr: 0x145E4, symSize: 0xA8 }
  - { offset: 0xAFAAC, size: 0x8, addend: 0x0, symName: __ZN4absl12lts_2024072213cord_internal11CordRepFlat6CreateENS0_11string_viewEm, symObjAddr: 0x2E00, symBinAddr: 0x1468C, symSize: 0x64 }
  - { offset: 0xAFAB7, size: 0x8, addend: 0x0, symName: __ZN4absl12lts_2024072213cord_internal11CordRepFlat6CreateENS0_11string_viewEm, symObjAddr: 0x2E00, symBinAddr: 0x1468C, symSize: 0x64 }
  - { offset: 0xAFB34, size: 0x8, addend: 0x0, symName: __ZN4absl12lts_202407224Cord14PrependPreciseENS0_11string_viewENS0_13cord_internal18CordzUpdateTracker16MethodIdentifierE, symObjAddr: 0x2E64, symBinAddr: 0x146F0, symSize: 0xEC }
  - { offset: 0xAFB3F, size: 0x8, addend: 0x0, symName: __ZN4absl12lts_202407224Cord13AppendPreciseENS0_11string_viewENS0_13cord_internal18CordzUpdateTracker16MethodIdentifierE.cold.4, symObjAddr: 0xB57C, symBinAddr: 0x64FA4, symSize: 0x28 }
  - { offset: 0xAFB57, size: 0x8, addend: 0x0, symName: __ZN4absl12lts_202407224Cord13AppendPreciseENS0_11string_viewENS0_13cord_internal18CordzUpdateTracker16MethodIdentifierE.cold.3, symObjAddr: 0xB554, symBinAddr: 0x64F7C, symSize: 0x28 }
  - { offset: 0xAFBA5, size: 0x8, addend: 0x0, symName: __ZN4absl12lts_202407224Cord13AppendPreciseENS0_11string_viewENS0_13cord_internal18CordzUpdateTracker16MethodIdentifierE.cold.2, symObjAddr: 0xB530, symBinAddr: 0x64F58, symSize: 0x24 }
  - { offset: 0xAFC15, size: 0x8, addend: 0x0, symName: __ZN4absl12lts_2024072213cord_internal11CordRepFlat6CreateENS0_11string_viewEm.cold.1, symObjAddr: 0xB5A4, symBinAddr: 0x64FCC, symSize: 0x28 }
  - { offset: 0xAFC2D, size: 0x8, addend: 0x0, symName: __ZN4absl12lts_202407224Cord14PrependPreciseENS0_11string_viewENS0_13cord_internal18CordzUpdateTracker16MethodIdentifierE, symObjAddr: 0x2E64, symBinAddr: 0x146F0, symSize: 0xEC }
  - { offset: 0xAFEE7, size: 0x8, addend: 0x0, symName: __ZN4absl12lts_202407224Cord12RemovePrefixEm, symObjAddr: 0x2F50, symBinAddr: 0x147DC, symSize: 0x5C8 }
  - { offset: 0xAFEF2, size: 0x8, addend: 0x0, symName: __ZN4absl12lts_202407224Cord14PrependPreciseENS0_11string_viewENS0_13cord_internal18CordzUpdateTracker16MethodIdentifierE.cold.4, symObjAddr: 0xB63C, symBinAddr: 0x6501C, symSize: 0x28 }
  - { offset: 0xAFF0A, size: 0x8, addend: 0x0, symName: __ZN4absl12lts_202407224Cord14PrependPreciseENS0_11string_viewENS0_13cord_internal18CordzUpdateTracker16MethodIdentifierE.cold.3, symObjAddr: 0xB614, symBinAddr: 0x64FF4, symSize: 0x28 }
  - { offset: 0xB00AC, size: 0x8, addend: 0x0, symName: __ZN4absl12lts_202407224Cord12RemovePrefixEm, symObjAddr: 0x2F50, symBinAddr: 0x147DC, symSize: 0x5C8 }
  - { offset: 0xB1445, size: 0x8, addend: 0x0, symName: __ZN4absl12lts_202407228AlphaNumC2Em, symObjAddr: 0x8178, symBinAddr: 0x18CFC, symSize: 0x44 }
  - { offset: 0xB1530, size: 0x8, addend: 0x0, symName: __ZN4absl12lts_202407224Cord13ChunkIteratorC2EPKS1_, symObjAddr: 0x81BC, symBinAddr: 0x18D40, symSize: 0x118 }
  - { offset: 0xB1576, size: 0x8, addend: 0x0, symName: __ZN4absl12lts_202407224Cord9InlineRep13remove_prefixEm, symObjAddr: 0x3518, symBinAddr: 0x14DA4, symSize: 0xF4 }
  - { offset: 0xB1837, size: 0x8, addend: 0x0, symName: __ZN4absl12lts_2024072213cord_internal16CordRepSubstring9SubstringEPNS1_7CordRepEmm, symObjAddr: 0x360C, symBinAddr: 0x14E98, symSize: 0xD0 }
  - { offset: 0xB18FA, size: 0x8, addend: 0x0, symName: __ZN4absl12lts_202407224Cord9InlineRep13remove_prefixEm.cold.5, symObjAddr: 0xB76C, symBinAddr: 0x6506C, symSize: 0x28 }
  - { offset: 0xB1927, size: 0x8, addend: 0x0, symName: __ZN4absl12lts_202407224Cord9InlineRep13remove_prefixEm.cold.4, symObjAddr: 0xB744, symBinAddr: 0x65044, symSize: 0x28 }
  - { offset: 0xB1993, size: 0x8, addend: 0x0, symName: __ZN4absl12lts_202407224Cord9InlineRep13remove_prefixEm.cold.6, symObjAddr: 0xB794, symBinAddr: 0x65094, symSize: 0x28 }
  - { offset: 0xB19BF, size: 0x8, addend: 0x0, symName: __ZN4absl12lts_2024072213cord_internal16CordRepSubstring9SubstringEPNS1_7CordRepEmm, symObjAddr: 0x360C, symBinAddr: 0x14E98, symSize: 0xD0 }
  - { offset: 0xB1CFE, size: 0x8, addend: 0x0, symName: __ZN4absl12lts_202407224Cord12RemoveSuffixEm, symObjAddr: 0x36DC, symBinAddr: 0x14F68, symSize: 0x594 }
  - { offset: 0xB1D09, size: 0x8, addend: 0x0, symName: __ZN4absl12lts_2024072213cord_internal16CordRepSubstring9SubstringEPNS1_7CordRepEmm.cold.5, symObjAddr: 0xB858, symBinAddr: 0x65134, symSize: 0x28 }
  - { offset: 0xB1D21, size: 0x8, addend: 0x0, symName: __ZN4absl12lts_2024072213cord_internal16CordRepSubstring9SubstringEPNS1_7CordRepEmm.cold.4, symObjAddr: 0xB830, symBinAddr: 0x6510C, symSize: 0x28 }
  - { offset: 0xB1D39, size: 0x8, addend: 0x0, symName: __ZN4absl12lts_2024072213cord_internal16CordRepSubstring9SubstringEPNS1_7CordRepEmm.cold.1, symObjAddr: 0xB7BC, symBinAddr: 0x650BC, symSize: 0x28 }
  - { offset: 0xB1D51, size: 0x8, addend: 0x0, symName: __ZN4absl12lts_2024072213cord_internal16CordRepSubstring9SubstringEPNS1_7CordRepEmm.cold.3, symObjAddr: 0xB808, symBinAddr: 0x650E4, symSize: 0x28 }
  - { offset: 0xB1D7E, size: 0x8, addend: 0x0, symName: __ZN4absl12lts_202407224Cord12RemoveSuffixEm, symObjAddr: 0x36DC, symBinAddr: 0x14F68, symSize: 0x594 }
  - { offset: 0xB3279, size: 0x8, addend: 0x0, symName: __ZNK4absl12lts_202407224Cord7SubcordEmm, symObjAddr: 0x3C70, symBinAddr: 0x154FC, symSize: 0x43C }
  - { offset: 0xB3A4A, size: 0x8, addend: 0x0, symName: __ZN4absl12lts_202407224Cord13ChunkIterator17AdvanceBytesBtreeEm, symObjAddr: 0x8504, symBinAddr: 0x19088, symSize: 0x84 }
  - { offset: 0xB3B19, size: 0x8, addend: 0x0, symName: __ZN4absl12lts_2024072213cord_internal18CordRepBtreeReader4SeekEm, symObjAddr: 0x8588, symBinAddr: 0x1910C, symSize: 0xEC }
  - { offset: 0xB3B24, size: 0x8, addend: 0x0, symName: __ZN4absl12lts_202407224Cord15SetCrcCordStateENS0_12crc_internal12CrcCordStateE, symObjAddr: 0x40AC, symBinAddr: 0x15938, symSize: 0x228 }
  - { offset: 0xB41E5, size: 0x8, addend: 0x0, symName: __ZN4absl12lts_202407224Cord15SetCrcCordStateENS0_12crc_internal12CrcCordStateE.cold.1, symObjAddr: 0xB968, symBinAddr: 0x6515C, symSize: 0x24 }
  - { offset: 0xB4213, size: 0x8, addend: 0x0, symName: __ZN4absl12lts_202407224Cord15SetCrcCordStateENS0_12crc_internal12CrcCordStateE.cold.2, symObjAddr: 0xB98C, symBinAddr: 0x65180, symSize: 0x24 }
  - { offset: 0xB42A1, size: 0x8, addend: 0x0, symName: __ZN4absl12lts_202407224Cord19SetExpectedChecksumEj, symObjAddr: 0x42D4, symBinAddr: 0x15B60, symSize: 0xB4 }
  - { offset: 0xB44CD, size: 0x8, addend: 0x0, symName: __ZN4absl12lts_2024072212crc_internal12CrcCordState11mutable_repEv, symObjAddr: 0x4388, symBinAddr: 0x15C14, symSize: 0x84 }
  - { offset: 0xB474B, size: 0x8, addend: 0x0, symName: __ZNSt3__15dequeIN4absl12lts_2024072212crc_internal12CrcCordState9PrefixCrcENS_9allocatorIS5_EEE9push_backEOS5_, symObjAddr: 0x440C, symBinAddr: 0x15C98, symSize: 0x88 }
  - { offset: 0xB494F, size: 0x8, addend: 0x0, symName: __ZNSt3__15dequeIN4absl12lts_2024072212crc_internal12CrcCordState9PrefixCrcENS_9allocatorIS5_EEEaSERKS8_, symObjAddr: 0x884C, symBinAddr: 0x193D0, symSize: 0x88 }
  - { offset: 0xB4A27, size: 0x8, addend: 0x0, symName: __ZN4absl12lts_2024072212crc_internal12CrcCordState5UnrefEPNS2_13RefcountedRepE, symObjAddr: 0x87FC, symBinAddr: 0x19380, symSize: 0x50 }
  - { offset: 0xB4B1F, size: 0x8, addend: 0x0, symName: __ZNSt3__15dequeIN4absl12lts_2024072212crc_internal12CrcCordState9PrefixCrcENS_9allocatorIS5_EEEaSERKS8_, symObjAddr: 0x884C, symBinAddr: 0x193D0, symSize: 0x88 }
  - { offset: 0xB4C50, size: 0x8, addend: 0x0, symName: __ZNSt3__15dequeIN4absl12lts_2024072212crc_internal12CrcCordState9PrefixCrcENS_9allocatorIS5_EEE19__add_back_capacityEv, symObjAddr: 0x9CB8, symBinAddr: 0x1A704, symSize: 0x2F4 }
  - { offset: 0xB5974, size: 0x8, addend: 0x0, symName: __ZNK4absl12lts_202407224Cord20MaybeGetCrcCordStateEv, symObjAddr: 0x4494, symBinAddr: 0x15D20, symSize: 0x28 }
  - { offset: 0xB59A0, size: 0x8, addend: 0x0, symName: __ZNK4absl12lts_202407224Cord20MaybeGetCrcCordStateEv, symObjAddr: 0x4494, symBinAddr: 0x15D20, symSize: 0x28 }
  - { offset: 0xB59BC, size: 0x8, addend: 0x0, symName: __ZNK4absl12lts_202407224Cord20MaybeGetCrcCordStateEv, symObjAddr: 0x4494, symBinAddr: 0x15D20, symSize: 0x28 }
  - { offset: 0xB59D8, size: 0x8, addend: 0x0, symName: __ZNK4absl12lts_202407224Cord20MaybeGetCrcCordStateEv, symObjAddr: 0x4494, symBinAddr: 0x15D20, symSize: 0x28 }
  - { offset: 0xB5A86, size: 0x8, addend: 0x0, symName: __ZNK4absl12lts_202407224Cord16ExpectedChecksumEv, symObjAddr: 0x44BC, symBinAddr: 0x15D48, symSize: 0x48 }
  - { offset: 0xB5AB2, size: 0x8, addend: 0x0, symName: __ZNK4absl12lts_202407224Cord16ExpectedChecksumEv, symObjAddr: 0x44BC, symBinAddr: 0x15D48, symSize: 0x48 }
  - { offset: 0xB5ACE, size: 0x8, addend: 0x0, symName: __ZNK4absl12lts_202407224Cord16ExpectedChecksumEv, symObjAddr: 0x44BC, symBinAddr: 0x15D48, symSize: 0x48 }
  - { offset: 0xB5AEA, size: 0x8, addend: 0x0, symName: __ZNK4absl12lts_202407224Cord16ExpectedChecksumEv, symObjAddr: 0x44BC, symBinAddr: 0x15D48, symSize: 0x48 }
  - { offset: 0xB5B98, size: 0x8, addend: 0x0, symName: __ZNK4absl12lts_202407224Cord10EqualsImplENS0_11string_viewEm, symObjAddr: 0x4504, symBinAddr: 0x15D90, symSize: 0x28 }
  - { offset: 0xB5C04, size: 0x8, addend: 0x0, symName: __ZNK4absl12lts_202407224Cord9InlineRep18FindFlatStartPieceEv, symObjAddr: 0xA13C, symBinAddr: 0x1AB88, symSize: 0x158 }
  - { offset: 0xB6192, size: 0x8, addend: 0x0, symName: __ZN4absl12lts_2024072212_GLOBAL__N_113CompareChunksEPNS0_11string_viewES3_Pm, symObjAddr: 0xA294, symBinAddr: 0x1ACE0, symSize: 0x98 }
  - { offset: 0xB61B9, size: 0x8, addend: 0x0, symName: __ZNK4absl12lts_202407224Cord15CompareSlowPathENS0_11string_viewEmm, symObjAddr: 0x9FAC, symBinAddr: 0x1A9F8, symSize: 0x190 }
  - { offset: 0xB64D1, size: 0x8, addend: 0x0, symName: __ZN4absl12lts_2024072214GenericCompareIbNS0_11string_viewEEET_RKNS0_4CordERKT0_m.cold.1, symObjAddr: 0xBA1C, symBinAddr: 0x651A4, symSize: 0x24 }
  - { offset: 0xB64E9, size: 0x8, addend: 0x0, symName: __ZNK4absl12lts_202407224Cord10EqualsImplERKS1_m, symObjAddr: 0x45E4, symBinAddr: 0x15E70, symSize: 0x4 }
  - { offset: 0xB6519, size: 0x8, addend: 0x0, symName: __ZNK4absl12lts_202407224Cord10EqualsImplERKS1_m, symObjAddr: 0x45E4, symBinAddr: 0x15E70, symSize: 0x4 }
  - { offset: 0xB653A, size: 0x8, addend: 0x0, symName: __ZNK4absl12lts_202407224Cord15CompareSlowPathERKS1_mm, symObjAddr: 0xA32C, symBinAddr: 0x1AD78, symSize: 0x224 }
  - { offset: 0xB69F5, size: 0x8, addend: 0x0, symName: __ZNK4absl12lts_202407224Cord7CompareENS0_11string_viewE, symObjAddr: 0x46D4, symBinAddr: 0x15F60, symSize: 0x6C }
  - { offset: 0xB6BEC, size: 0x8, addend: 0x0, symName: __ZNK4absl12lts_202407224Cord11CompareImplERKS1_, symObjAddr: 0x4740, symBinAddr: 0x15FCC, symSize: 0x74 }
  - { offset: 0xB7004, size: 0x8, addend: 0x0, symName: __ZNK4absl12lts_202407224Cord8EndsWithENS0_11string_viewE, symObjAddr: 0x47B4, symBinAddr: 0x16040, symSize: 0xF0 }
  - { offset: 0xB748D, size: 0x8, addend: 0x0, symName: __ZNK4absl12lts_202407224Cord8EndsWithERKS1_, symObjAddr: 0x4920, symBinAddr: 0x161AC, symSize: 0x104 }
  - { offset: 0xB7BA1, size: 0x8, addend: 0x0, symName: __ZNK4absl12lts_202407224CordcvNSt3__112basic_stringIcNS2_11char_traitsIcEENS2_9allocatorIcEEEEEv, symObjAddr: 0x4A24, symBinAddr: 0x162B0, symSize: 0x48 }
  - { offset: 0xB7DD5, size: 0x8, addend: 0x0, symName: __ZNK4absl12lts_202407224Cord9InlineRep6CopyToEPNSt3__112basic_stringIcNS3_11char_traitsIcEENS3_9allocatorIcEEEE, symObjAddr: 0x4ACC, symBinAddr: 0x16358, symSize: 0x70 }
  - { offset: 0xB7FA3, size: 0x8, addend: 0x0, symName: __ZNK4absl12lts_202407224Cord19CopyToArraySlowPathEPc, symObjAddr: 0x4B3C, symBinAddr: 0x163C8, symSize: 0x128 }
  - { offset: 0xB7FAE, size: 0x8, addend: 0x0, symName: __ZN4absl12lts_2024072216strings_internal25ResizeUninitializedTraitsINSt3__112basic_stringIcNS3_11char_traitsIcEENS3_9allocatorIcEEEEvE6ResizeEPS9_m, symObjAddr: 0x9B38, symBinAddr: 0x1A62C, symSize: 0xD8 }
  - { offset: 0xB82FB, size: 0x8, addend: 0x0, symName: __ZNK4absl12lts_202407224Cord19CopyToArraySlowPathEPc, symObjAddr: 0x4B3C, symBinAddr: 0x163C8, symSize: 0x128 }
  - { offset: 0xB869E, size: 0x8, addend: 0x0, symName: __ZN4absl12lts_202407224Cord10GetFlatAuxEPNS0_13cord_internal7CordRepEPNS0_11string_viewE, symObjAddr: 0x4D8C, symBinAddr: 0x16618, symSize: 0x134 }
  - { offset: 0xB897B, size: 0x8, addend: 0x0, symName: __ZN4absl12lts_202407224Cord13ChunkIterator19AdvanceAndReadBytesEm, symObjAddr: 0x4EC0, symBinAddr: 0x1674C, symSize: 0x4AC }
  - { offset: 0xB89B0, size: 0x8, addend: 0x0, symName: __ZNK4absl12lts_202407224Cord19CopyToArraySlowPathEPc.cold.3, symObjAddr: 0xBAF4, symBinAddr: 0x651C8, symSize: 0x28 }
  - { offset: 0xB8A73, size: 0x8, addend: 0x0, symName: __ZN4absl12lts_2024072216strings_internal25AppendUninitializedTraitsINSt3__112basic_stringIcNS3_11char_traitsIcEENS3_9allocatorIcEEEEvE6AppendEPS9_m, symObjAddr: 0xA70C, symBinAddr: 0x1B158, symSize: 0xA8 }
  - { offset: 0xB8AA8, size: 0x8, addend: 0x0, symName: __ZN4absl12lts_2024072216strings_internal25AppendUninitializedTraitsINSt3__112basic_stringIcNS3_11char_traitsIcEENS3_9allocatorIcEEEEvE6AppendEPS9_m, symObjAddr: 0xA70C, symBinAddr: 0x1B158, symSize: 0xA8 }
  - { offset: 0xB8C9E, size: 0x8, addend: 0x0, symName: __ZN4absl12lts_202407224Cord10GetFlatAuxEPNS0_13cord_internal7CordRepEPNS0_11string_viewE.cold.7, symObjAddr: 0xBC1C, symBinAddr: 0x651F0, symSize: 0x28 }
  - { offset: 0xB8E66, size: 0x8, addend: 0x0, symName: __ZN4absl12lts_202407224Cord13ChunkIterator19AdvanceAndReadBytesEm, symObjAddr: 0x4EC0, symBinAddr: 0x1674C, symSize: 0x4AC }
  - { offset: 0xB9906, size: 0x8, addend: 0x0, symName: __ZN4absl12lts_2024072213cord_internal18CordRepBtreeReader4NextEv, symObjAddr: 0x53A8, symBinAddr: 0x16BF8, symSize: 0x110 }
  - { offset: 0xB9911, size: 0x8, addend: 0x0, symName: __ZN4absl12lts_202407224Cord13ChunkIterator19AdvanceAndReadBytesEm.cold.1, symObjAddr: 0xBC44, symBinAddr: 0x65218, symSize: 0x28 }
  - { offset: 0xB9A42, size: 0x8, addend: 0x0, symName: __ZN4absl12lts_2024072213cord_internal21CordRepBtreeNavigator6NextUpEv, symObjAddr: 0x9970, symBinAddr: 0x1A464, symSize: 0xEC }
  - { offset: 0xB9BDA, size: 0x8, addend: 0x0, symName: __ZN4absl12lts_202407224Cord13ChunkIteratorC2EPNS0_13cord_internal7CordRepE, symObjAddr: 0x9A5C, symBinAddr: 0x1A550, symSize: 0xDC }
  - { offset: 0xB9BE5, size: 0x8, addend: 0x0, symName: __ZN4absl12lts_2024072213cord_internal18CordRepBtreeReader4NextEv.cold.7, symObjAddr: 0xBD7C, symBinAddr: 0x652D0, symSize: 0x28 }
  - { offset: 0xB9BFD, size: 0x8, addend: 0x0, symName: __ZN4absl12lts_2024072213cord_internal18CordRepBtreeReader4NextEv.cold.3, symObjAddr: 0xBCEC, symBinAddr: 0x65288, symSize: 0x24 }
  - { offset: 0xB9C2A, size: 0x8, addend: 0x0, symName: __ZN4absl12lts_2024072213cord_internal18CordRepBtreeReader4NextEv.cold.2, symObjAddr: 0xBCC8, symBinAddr: 0x65264, symSize: 0x24 }
  - { offset: 0xB9C6C, size: 0x8, addend: 0x0, symName: __ZN4absl12lts_2024072213cord_internal18CordRepBtreeReader4NextEv.cold.1, symObjAddr: 0xBCA4, symBinAddr: 0x65240, symSize: 0x24 }
  - { offset: 0xB9CAE, size: 0x8, addend: 0x0, symName: __ZN4absl12lts_2024072213cord_internal18CordRepBtreeReader4NextEv.cold.6, symObjAddr: 0xBD58, symBinAddr: 0x652AC, symSize: 0x24 }
  - { offset: 0xB9D98, size: 0x8, addend: 0x0, symName: __ZNK4absl12lts_202407224CordixEm, symObjAddr: 0x54B8, symBinAddr: 0x16D08, symSize: 0xD0 }
  - { offset: 0xB9FD2, size: 0x8, addend: 0x0, symName: __ZNK4absl12lts_202407224Cord8FindImplENS1_12CharIteratorENS0_11string_viewE, symObjAddr: 0x5588, symBinAddr: 0x16DD8, symSize: 0x3D4 }
  - { offset: 0xBA006, size: 0x8, addend: 0x0, symName: __ZNK4absl12lts_202407224CordixEm.cold.5, symObjAddr: 0xBE40, symBinAddr: 0x65370, symSize: 0x28 }
  - { offset: 0xBA034, size: 0x8, addend: 0x0, symName: __ZNK4absl12lts_202407224CordixEm.cold.1, symObjAddr: 0xBDA4, symBinAddr: 0x652F8, symSize: 0x28 }
  - { offset: 0xBA04C, size: 0x8, addend: 0x0, symName: __ZNK4absl12lts_202407224CordixEm.cold.4, symObjAddr: 0xBE18, symBinAddr: 0x65348, symSize: 0x28 }
  - { offset: 0xBA064, size: 0x8, addend: 0x0, symName: __ZNK4absl12lts_202407224CordixEm.cold.2, symObjAddr: 0xBDCC, symBinAddr: 0x65320, symSize: 0x28 }
  - { offset: 0xBA230, size: 0x8, addend: 0x0, symName: __ZNK4absl12lts_202407224Cord8FindImplENS1_12CharIteratorENS0_11string_viewE, symObjAddr: 0x5588, symBinAddr: 0x16DD8, symSize: 0x3D4 }
  - { offset: 0xBAA59, size: 0x8, addend: 0x0, symName: __ZN4absl12lts_2024072213cord_internal18CordRepBtreeReader4SeekEm, symObjAddr: 0x8588, symBinAddr: 0x1910C, symSize: 0xEC }
  - { offset: 0xBAC8E, size: 0x8, addend: 0x0, symName: __ZN4absl12lts_2024072213cord_internal21CordRepBtreeNavigator4SeekEm, symObjAddr: 0x8674, symBinAddr: 0x191F8, symSize: 0x154 }
  - { offset: 0xBAC99, size: 0x8, addend: 0x0, symName: __ZNK4absl12lts_202407224Cord8FindImplENS1_12CharIteratorENS0_11string_viewE.cold.5, symObjAddr: 0xBEF8, symBinAddr: 0x65404, symSize: 0x28 }
  - { offset: 0xBACC7, size: 0x8, addend: 0x0, symName: __ZNK4absl12lts_202407224Cord8FindImplENS1_12CharIteratorENS0_11string_viewE.cold.4, symObjAddr: 0xBED4, symBinAddr: 0x653E0, symSize: 0x24 }
  - { offset: 0xBAD61, size: 0x8, addend: 0x0, symName: __ZNK4absl12lts_202407224Cord8FindImplENS1_12CharIteratorENS0_11string_viewE.cold.9, symObjAddr: 0xBF8C, symBinAddr: 0x6542C, symSize: 0x28 }
  - { offset: 0xBADEF, size: 0x8, addend: 0x0, symName: __ZNK4absl12lts_202407224Cord8FindImplENS1_12CharIteratorENS0_11string_viewE.cold.1, symObjAddr: 0xBE68, symBinAddr: 0x65398, symSize: 0x24 }
  - { offset: 0xBAE33, size: 0x8, addend: 0x0, symName: __ZNK4absl12lts_202407224Cord8FindImplENS1_12CharIteratorENS0_11string_viewE.cold.11, symObjAddr: 0xBFDC, symBinAddr: 0x6547C, symSize: 0x28 }
  - { offset: 0xBAE4B, size: 0x8, addend: 0x0, symName: __ZNK4absl12lts_202407224Cord8FindImplENS1_12CharIteratorENS0_11string_viewE.cold.10, symObjAddr: 0xBFB4, symBinAddr: 0x65454, symSize: 0x28 }
  - { offset: 0xBAE63, size: 0x8, addend: 0x0, symName: __ZNK4absl12lts_202407224Cord8FindImplENS1_12CharIteratorENS0_11string_viewE.cold.2, symObjAddr: 0xBE8C, symBinAddr: 0x653BC, symSize: 0x24 }
  - { offset: 0xBAF37, size: 0x8, addend: 0x0, symName: __ZNK4absl12lts_202407224Cord4FindENS0_11string_viewE, symObjAddr: 0x595C, symBinAddr: 0x171AC, symSize: 0x13C }
  - { offset: 0xBB3E5, size: 0x8, addend: 0x0, symName: __ZNK4absl12lts_202407224Cord4FindERKS1_, symObjAddr: 0x5A98, symBinAddr: 0x172E8, symSize: 0x4F4 }
  - { offset: 0xBC437, size: 0x8, addend: 0x0, symName: __ZN4absl12lts_2024072212_GLOBAL__N_117IsSubcordInCordAtENS0_4Cord12CharIteratorES3_S3_.cold.4, symObjAddr: 0xC100, symBinAddr: 0x654A4, symSize: 0x28 }
  - { offset: 0xBC4BA, size: 0x8, addend: 0x0, symName: __ZNK4absl12lts_202407224Cord8ContainsENS0_11string_viewE, symObjAddr: 0x614C, symBinAddr: 0x1799C, symSize: 0x64 }
  - { offset: 0xBC55F, size: 0x8, addend: 0x0, symName: __ZNK4absl12lts_202407224Cord8ContainsERKS1_, symObjAddr: 0x61B0, symBinAddr: 0x17A00, symSize: 0x7C }
  - { offset: 0xBC7DF, size: 0x8, addend: 0x0, symName: __ZN4absl12lts_202407224Cord15FlattenSlowPathEv.cold.3, symObjAddr: 0xC194, symBinAddr: 0x654CC, symSize: 0x28 }
  - { offset: 0xBC88E, size: 0x8, addend: 0x0, symName: __ZN4absl12lts_202407224Cord15ForEachChunkAuxEPNS0_13cord_internal7CordRepENS0_11FunctionRefIFvNS0_11string_viewEEEE, symObjAddr: 0x6424, symBinAddr: 0x17C74, symSize: 0x154 }
  - { offset: 0xBCB88, size: 0x8, addend: 0x0, symName: __ZN4absl12lts_202407224Cord13ChunkIteratorC2EPNS0_13cord_internal7CordRepE, symObjAddr: 0x9A5C, symBinAddr: 0x1A550, symSize: 0xDC }
  - { offset: 0xBCDFF, size: 0x8, addend: 0x0, symName: __ZN4absl12lts_2024072216strings_internal25ResizeUninitializedTraitsINSt3__112basic_stringIcNS3_11char_traitsIcEENS3_9allocatorIcEEEEvE6ResizeEPS9_m, symObjAddr: 0x9B38, symBinAddr: 0x1A62C, symSize: 0xD8 }
  - { offset: 0xBCE54, size: 0x8, addend: 0x0, symName: __ZN4absl12lts_202407224Cord15ForEachChunkAuxEPNS0_13cord_internal7CordRepENS0_11FunctionRefIFvNS0_11string_viewEEEE.cold.5, symObjAddr: 0xC250, symBinAddr: 0x6551C, symSize: 0x28 }
  - { offset: 0xBCE6C, size: 0x8, addend: 0x0, symName: __ZN4absl12lts_202407224Cord15ForEachChunkAuxEPNS0_13cord_internal7CordRepENS0_11FunctionRefIFvNS0_11string_viewEEEE.cold.4, symObjAddr: 0xC228, symBinAddr: 0x654F4, symSize: 0x28 }
  - { offset: 0xBCECE, size: 0x8, addend: 0x0, symName: __ZN4absl12lts_2024072216strings_internal14CordTestAccess12FlatOverheadEv, symObjAddr: 0x665C, symBinAddr: 0x17EAC, symSize: 0x8 }
  - { offset: 0xBCEE5, size: 0x8, addend: 0x0, symName: __ZN4absl12lts_2024072216strings_internal14CordTestAccess13MaxFlatLengthEv, symObjAddr: 0x6664, symBinAddr: 0x17EB4, symSize: 0x8 }
  - { offset: 0xBCEFC, size: 0x8, addend: 0x0, symName: __ZN4absl12lts_2024072216strings_internal14CordTestAccess15FlatTagToLengthEh, symObjAddr: 0x666C, symBinAddr: 0x17EBC, symSize: 0x44 }
  - { offset: 0xBCF26, size: 0x8, addend: 0x0, symName: __ZN4absl12lts_2024072216strings_internal14CordTestAccess15FlatTagToLengthEh, symObjAddr: 0x666C, symBinAddr: 0x17EBC, symSize: 0x44 }
  - { offset: 0xBCF42, size: 0x8, addend: 0x0, symName: __ZN4absl12lts_2024072216strings_internal14CordTestAccess15FlatTagToLengthEh, symObjAddr: 0x666C, symBinAddr: 0x17EBC, symSize: 0x44 }
  - { offset: 0xBCF5D, size: 0x8, addend: 0x0, symName: __ZN4absl12lts_2024072216strings_internal14CordTestAccess11LengthToTagEm, symObjAddr: 0x66B0, symBinAddr: 0x17F00, symSize: 0x190 }
  - { offset: 0xBD608, size: 0x8, addend: 0x0, symName: __ZN4absl12lts_2024072216strings_internal14CordTestAccess11LengthToTagEm.cold.1, symObjAddr: 0xC2E4, symBinAddr: 0x65544, symSize: 0x24 }
  - { offset: 0xBD636, size: 0x8, addend: 0x0, symName: __ZN4absl12lts_2024072216strings_internal14CordTestAccess21SizeofCordRepExternalEv, symObjAddr: 0x6840, symBinAddr: 0x18090, symSize: 0x8 }
  - { offset: 0xBD64D, size: 0x8, addend: 0x0, symName: __ZN4absl12lts_2024072216strings_internal14CordTestAccess22SizeofCordRepSubstringEv, symObjAddr: 0x6848, symBinAddr: 0x18098, symSize: 0x8 }
  - { offset: 0xBE170, size: 0x8, addend: 0x0, symName: __ZN4absl12lts_2024072223inlined_vector_internal7StorageIPNS0_13cord_internal7CordRepELm2ENSt3__19allocatorIS5_EEE15EmplaceBackSlowIJRKS5_EEERS5_DpOT_, symObjAddr: 0x6E8C, symBinAddr: 0x186CC, symSize: 0xD8 }
  - { offset: 0xBE910, size: 0x8, addend: 0x0, symName: __ZN4absl12lts_2024072223inlined_vector_internal13MallocAdapterINSt3__19allocatorIPNS0_13cord_internal7CordRepEEELb0EE8AllocateERS8_m, symObjAddr: 0x6F64, symBinAddr: 0x187A4, symSize: 0x34 }
  - { offset: 0xBF926, size: 0x8, addend: 0x0, symName: __ZN4absl12lts_2024072213cord_internal19CordRepExternalImplIZNS0_L17CordRepFromStringEONSt3__112basic_stringIcNS3_11char_traitsIcEENS3_9allocatorIcEEEEE14StringReleaserE7ReleaseEPNS1_15CordRepExternalE, symObjAddr: 0x7C54, symBinAddr: 0x187D8, symSize: 0x70 }
  - { offset: 0xBFA38, size: 0x8, addend: 0x0, symName: __ZN4absl12lts_2024072213cord_internal19CordRepExternalImplIZNS0_L17CordRepFromStringEONSt3__112basic_stringIcNS3_11char_traitsIcEENS3_9allocatorIcEEEEE14StringReleaserE7ReleaseEPNS1_15CordRepExternalE, symObjAddr: 0x7C54, symBinAddr: 0x187D8, symSize: 0x70 }
  - { offset: 0xBFCF5, size: 0x8, addend: 0x0, symName: __ZN4absl12lts_2024072213cord_internal10InlineData15set_inline_dataEPKcm.cold.1, symObjAddr: 0xC358, symBinAddr: 0x65568, symSize: 0x28 }
  - { offset: 0xBFD23, size: 0x8, addend: 0x0, symName: __ZN4absl12lts_2024072213cord_internal10InlineData18is_either_profiledERKS2_S4_.cold.1, symObjAddr: 0xC380, symBinAddr: 0x65590, symSize: 0x28 }
  - { offset: 0xBFD75, size: 0x8, addend: 0x0, symName: __ZN4absl12lts_2024072213cord_internal12CordRepBtree15GetAppendBufferEm.cold.1, symObjAddr: 0xC3A8, symBinAddr: 0x655B8, symSize: 0x28 }
  - { offset: 0xBFDB7, size: 0x8, addend: 0x0, symName: __ZN4absl12lts_2024072213cord_internal12CordRepBtree15GetAppendBufferEm.cold.2, symObjAddr: 0xC3D0, symBinAddr: 0x655E0, symSize: 0x24 }
  - { offset: 0xBFE76, size: 0x8, addend: 0x0, symName: __ZN4absl12lts_2024072213cord_internal11CordRepFlat6DeleteEPNS1_7CordRepE, symObjAddr: 0x8158, symBinAddr: 0x18CDC, symSize: 0x20 }
  - { offset: 0xBFEA9, size: 0x8, addend: 0x0, symName: __ZN4absl12lts_202407228AlphaNumC2Em, symObjAddr: 0x8178, symBinAddr: 0x18CFC, symSize: 0x44 }
  - { offset: 0xBFEB4, size: 0x8, addend: 0x0, symName: __ZN4absl12lts_2024072213cord_internal11CordRepFlat6DeleteEPNS1_7CordRepE.cold.1, symObjAddr: 0xC4A8, symBinAddr: 0x65604, symSize: 0x28 }
  - { offset: 0xBFF24, size: 0x8, addend: 0x0, symName: __ZN4absl12lts_2024072213cord_internal18CordRepBtreeReader4InitEPNS1_12CordRepBtreeE, symObjAddr: 0x82D4, symBinAddr: 0x18E58, symSize: 0xB0 }
  - { offset: 0xC0104, size: 0x8, addend: 0x0, symName: __ZN4absl12lts_2024072213cord_internal8EdgeDataEPKNS1_7CordRepE, symObjAddr: 0x8384, symBinAddr: 0x18F08, symSize: 0x8C }
  - { offset: 0xC0243, size: 0x8, addend: 0x0, symName: __ZN4absl12lts_2024072213cord_internal21CordRepBtreeNavigator4InitILNS1_12CordRepBtree8EdgeTypeE0EEEPNS1_7CordRepEPS4_, symObjAddr: 0x8410, symBinAddr: 0x18F94, symSize: 0xF4 }
  - { offset: 0xC04C1, size: 0x8, addend: 0x0, symName: __ZN4absl12lts_202407224Cord13ChunkIterator17AdvanceBytesBtreeEm, symObjAddr: 0x8504, symBinAddr: 0x19088, symSize: 0x84 }
  - { offset: 0xC04D6, size: 0x8, addend: 0x0, symName: __ZN4absl12lts_2024072213cord_internal18CordRepBtreeReader4InitEPNS1_12CordRepBtreeE.cold.5, symObjAddr: 0xC638, symBinAddr: 0x6562C, symSize: 0x28 }
  - { offset: 0xC06A6, size: 0x8, addend: 0x0, symName: __ZN4absl12lts_2024072213cord_internal21CordRepBtreeNavigator4InitILNS1_12CordRepBtree8EdgeTypeE0EEEPNS1_7CordRepEPS4_.cold.8, symObjAddr: 0xC818, symBinAddr: 0x656A4, symSize: 0x28 }
  - { offset: 0xC06BE, size: 0x8, addend: 0x0, symName: __ZN4absl12lts_2024072213cord_internal21CordRepBtreeNavigator4InitILNS1_12CordRepBtree8EdgeTypeE0EEEPNS1_7CordRepEPS4_.cold.7, symObjAddr: 0xC7F0, symBinAddr: 0x6567C, symSize: 0x28 }
  - { offset: 0xC06D6, size: 0x8, addend: 0x0, symName: __ZN4absl12lts_2024072213cord_internal21CordRepBtreeNavigator4InitILNS1_12CordRepBtree8EdgeTypeE0EEEPNS1_7CordRepEPS4_.cold.6, symObjAddr: 0xC7C8, symBinAddr: 0x65654, symSize: 0x28 }
  - { offset: 0xC072C, size: 0x8, addend: 0x0, symName: __ZN4absl12lts_202407224Cord13ChunkIterator17AdvanceBytesBtreeEm.cold.2, symObjAddr: 0xC868, symBinAddr: 0x656F4, symSize: 0x28 }
  - { offset: 0xC0744, size: 0x8, addend: 0x0, symName: __ZN4absl12lts_202407224Cord13ChunkIterator17AdvanceBytesBtreeEm.cold.1, symObjAddr: 0xC840, symBinAddr: 0x656CC, symSize: 0x28 }
  - { offset: 0xC0772, size: 0x8, addend: 0x0, symName: __ZN4absl12lts_2024072213cord_internal21CordRepBtreeNavigator4SeekEm, symObjAddr: 0x8674, symBinAddr: 0x191F8, symSize: 0x154 }
  - { offset: 0xC09B5, size: 0x8, addend: 0x0, symName: __ZN4absl12lts_202407224CordD2Ev, symObjAddr: 0x87C8, symBinAddr: 0x1934C, symSize: 0x34 }
  - { offset: 0xC0AEC, size: 0x8, addend: 0x0, symName: __ZN4absl12lts_2024072213cord_internal21CordRepBtreeNavigator4SeekEm.cold.3, symObjAddr: 0xC990, symBinAddr: 0x6571C, symSize: 0x28 }
  - { offset: 0xC0B41, size: 0x8, addend: 0x0, symName: __ZN4absl12lts_2024072213cord_internal21CordRepBtreeNavigator4SeekEm.cold.7, symObjAddr: 0xCA24, symBinAddr: 0x65744, symSize: 0x28 }
  - { offset: 0xC0BE3, size: 0x8, addend: 0x0, symName: __ZNSt3__15dequeIN4absl12lts_2024072212crc_internal12CrcCordState9PrefixCrcENS_9allocatorIS5_EEED2B8ne190102Ev, symObjAddr: 0x988C, symBinAddr: 0x1A380, symSize: 0x98 }
  - { offset: 0xC0EF3, size: 0x8, addend: 0x0, symName: __ZN4absl12lts_2024072212crc_internal12CrcCordState5UnrefEPNS2_13RefcountedRepE.cold.1, symObjAddr: 0xCA4C, symBinAddr: 0x6576C, symSize: 0x28 }
  - { offset: 0xC0F87, size: 0x8, addend: 0x0, symName: __ZNSt3__15dequeIN4absl12lts_2024072212crc_internal12CrcCordState9PrefixCrcENS_9allocatorIS5_EEE6assignINS_16__deque_iteratorIS5_PKS5_RSB_PKSC_lLl256EEELi0EEEvT_SH_, symObjAddr: 0x88D4, symBinAddr: 0x19458, symSize: 0x34 }
  - { offset: 0xC100F, size: 0x8, addend: 0x0, symName: __ZNSt3__15dequeIN4absl12lts_2024072212crc_internal12CrcCordState9PrefixCrcENS_9allocatorIS5_EEE32__assign_with_size_random_accessB8ne190102INS_16__deque_iteratorIS5_PKS5_RSB_PKSC_lLl256EEEEEvT_l, symObjAddr: 0x8908, symBinAddr: 0x1948C, symSize: 0x11C }
  - { offset: 0xC1466, size: 0x8, addend: 0x0, symName: __ZNKSt3__116__deque_iteratorIN4absl12lts_2024072212crc_internal12CrcCordState9PrefixCrcEPKS5_RS6_PKS7_lLl256EEplB8ne190102El, symObjAddr: 0x8A24, symBinAddr: 0x195A8, symSize: 0x5C }
  - { offset: 0xC14DB, size: 0x8, addend: 0x0, symName: __ZNSt3__15dequeIN4absl12lts_2024072212crc_internal12CrcCordState9PrefixCrcENS_9allocatorIS5_EEE18__append_with_sizeB8ne190102INS_16__deque_iteratorIS5_PKS5_RSB_PKSC_lLl256EEEEEvT_m, symObjAddr: 0x8A80, symBinAddr: 0x19604, symSize: 0x134 }
  - { offset: 0xC175B, size: 0x8, addend: 0x0, symName: __ZNSt3__15dequeIN4absl12lts_2024072212crc_internal12CrcCordState9PrefixCrcENS_9allocatorIS5_EEE14__erase_to_endENS_16__deque_iteratorIS5_PKS5_RSA_PKSB_lLl256EEE, symObjAddr: 0x8BB4, symBinAddr: 0x19738, symSize: 0xF0 }
  - { offset: 0xC1A6E, size: 0x8, addend: 0x0, symName: __ZNSt3__15dequeIN4absl12lts_2024072212crc_internal12CrcCordState9PrefixCrcENS_9allocatorIS5_EEE19__add_back_capacityEm, symObjAddr: 0x8E2C, symBinAddr: 0x199B0, symSize: 0x548 }
  - { offset: 0xC315A, size: 0x8, addend: 0x0, symName: __ZNSt3__15dequeIN4absl12lts_2024072212crc_internal12CrcCordState9PrefixCrcENS_9allocatorIS5_EEE25__maybe_remove_back_spareB8ne190102Eb, symObjAddr: 0x9820, symBinAddr: 0x1A314, symSize: 0x6C }
  - { offset: 0xC3C81, size: 0x8, addend: 0x0, symName: __ZNSt3__114__split_bufferIPN4absl12lts_2024072212crc_internal12CrcCordState9PrefixCrcENS_9allocatorIS6_EEE9push_backEOS6_, symObjAddr: 0x93D0, symBinAddr: 0x19EF8, symSize: 0x104 }
  - { offset: 0xC4085, size: 0x8, addend: 0x0, symName: __ZNSt3__114__split_bufferIPN4absl12lts_2024072212crc_internal12CrcCordState9PrefixCrcERNS_9allocatorIS6_EEE9push_backEOS6_, symObjAddr: 0x95E0, symBinAddr: 0x1A108, symSize: 0x104 }
  - { offset: 0xC44CE, size: 0x8, addend: 0x0, symName: __ZNSt3__114__split_bufferIPN4absl12lts_2024072212crc_internal12CrcCordState9PrefixCrcERNS_9allocatorIS6_EEE10push_frontERKS6_, symObjAddr: 0x96E4, symBinAddr: 0x1A20C, symSize: 0x108 }
  - { offset: 0xC4937, size: 0x8, addend: 0x0, symName: __ZNSt3__114__split_bufferIPN4absl12lts_2024072212crc_internal12CrcCordState9PrefixCrcENS_9allocatorIS6_EEE10push_frontEOS6_, symObjAddr: 0x94D4, symBinAddr: 0x19FFC, symSize: 0x10C }
  - { offset: 0xC4EE1, size: 0x8, addend: 0x0, symName: __ZNSt3__114__split_bufferIPN4absl12lts_2024072212crc_internal12CrcCordState9PrefixCrcENS_9allocatorIS6_EEED2Ev, symObjAddr: 0x9924, symBinAddr: 0x1A418, symSize: 0x4C }
  - { offset: 0xC507C, size: 0x8, addend: 0x0, symName: __ZN4absl12lts_2024072213cord_internal21CordRepBtreeNavigator6NextUpEv.cold.1, symObjAddr: 0xCA74, symBinAddr: 0x65794, symSize: 0x28 }
  - { offset: 0xC5540, size: 0x8, addend: 0x0, symName: __ZNK4absl12lts_202407224Cord15CompareSlowPathENS0_11string_viewEmm.cold.5, symObjAddr: 0xCC50, symBinAddr: 0x657E4, symSize: 0x28 }
  - { offset: 0xC5558, size: 0x8, addend: 0x0, symName: __ZNK4absl12lts_202407224Cord15CompareSlowPathENS0_11string_viewEmm.cold.4, symObjAddr: 0xCC28, symBinAddr: 0x657BC, symSize: 0x28 }
  - { offset: 0xC55DD, size: 0x8, addend: 0x0, symName: __ZNK4absl12lts_202407224Cord9InlineRep18FindFlatStartPieceEv.cold.12, symObjAddr: 0xCE10, symBinAddr: 0x65884, symSize: 0x28 }
  - { offset: 0xC5654, size: 0x8, addend: 0x0, symName: __ZNK4absl12lts_202407224Cord9InlineRep18FindFlatStartPieceEv.cold.9, symObjAddr: 0xCDA0, symBinAddr: 0x6585C, symSize: 0x28 }
  - { offset: 0xC566C, size: 0x8, addend: 0x0, symName: __ZNK4absl12lts_202407224Cord9InlineRep18FindFlatStartPieceEv.cold.1, symObjAddr: 0xCC78, symBinAddr: 0x6580C, symSize: 0x28 }
  - { offset: 0xC56BA, size: 0x8, addend: 0x0, symName: __ZNK4absl12lts_202407224Cord9InlineRep18FindFlatStartPieceEv.cold.5, symObjAddr: 0xCD0C, symBinAddr: 0x65834, symSize: 0x28 }
  - { offset: 0xC574F, size: 0x8, addend: 0x0, symName: __ZN4absl12lts_2024072212_GLOBAL__N_113CompareChunksEPNS0_11string_viewES3_Pm.cold.3, symObjAddr: 0xCE80, symBinAddr: 0x658AC, symSize: 0x28 }
  - { offset: 0xC58BE, size: 0x8, addend: 0x0, symName: __ZNK4absl12lts_202407224Cord15CompareSlowPathERKS1_mm.cold.8, symObjAddr: 0xCFA8, symBinAddr: 0x658FC, symSize: 0x28 }
  - { offset: 0xC58D6, size: 0x8, addend: 0x0, symName: __ZNK4absl12lts_202407224Cord15CompareSlowPathERKS1_mm.cold.7, symObjAddr: 0xCF80, symBinAddr: 0x658D4, symSize: 0x28 }
  - { offset: 0xC5998, size: 0x8, addend: 0x0, symName: '__ZN4absl12lts_2024072213cord_internal19CordRepExternalImplIZNS0_4Cord15FlattenSlowPathEvE3$_0E7ReleaseEPNS1_15CordRepExternalE', symObjAddr: 0xA7B4, symBinAddr: 0x1B200, symSize: 0x68 }
  - { offset: 0xC5B6F, size: 0x8, addend: 0x0, symName: _OUTLINED_FUNCTION_0, symObjAddr: 0xD018, symBinAddr: 0x1B268, symSize: 0xC }
  - { offset: 0xC5B87, size: 0x8, addend: 0x0, symName: _OUTLINED_FUNCTION_2, symObjAddr: 0xD02C, symBinAddr: 0x1B274, symSize: 0x8 }
  - { offset: 0xC5B9F, size: 0x8, addend: 0x0, symName: _OUTLINED_FUNCTION_3, symObjAddr: 0xD034, symBinAddr: 0x1B27C, symSize: 0x8 }
  - { offset: 0xC5BB7, size: 0x8, addend: 0x0, symName: _OUTLINED_FUNCTION_4, symObjAddr: 0xD03C, symBinAddr: 0x1B284, symSize: 0x8 }
  - { offset: 0xC5BCF, size: 0x8, addend: 0x0, symName: _OUTLINED_FUNCTION_5, symObjAddr: 0xD044, symBinAddr: 0x1B28C, symSize: 0x8 }
  - { offset: 0xC5BE7, size: 0x8, addend: 0x0, symName: _OUTLINED_FUNCTION_6, symObjAddr: 0xD04C, symBinAddr: 0x1B294, symSize: 0x8 }
  - { offset: 0xC5BFF, size: 0x8, addend: 0x0, symName: _OUTLINED_FUNCTION_7, symObjAddr: 0xD054, symBinAddr: 0x1B29C, symSize: 0x8 }
  - { offset: 0xC5C17, size: 0x8, addend: 0x0, symName: _OUTLINED_FUNCTION_8, symObjAddr: 0xD05C, symBinAddr: 0x1B2A4, symSize: 0x8 }
  - { offset: 0xC5C2F, size: 0x8, addend: 0x0, symName: _OUTLINED_FUNCTION_9, symObjAddr: 0xD064, symBinAddr: 0x1B2AC, symSize: 0x8 }
  - { offset: 0xC5C47, size: 0x8, addend: 0x0, symName: _OUTLINED_FUNCTION_10, symObjAddr: 0xD06C, symBinAddr: 0x1B2B4, symSize: 0x8 }
  - { offset: 0xC5C5F, size: 0x8, addend: 0x0, symName: _OUTLINED_FUNCTION_11, symObjAddr: 0xD074, symBinAddr: 0x1B2BC, symSize: 0x8 }
  - { offset: 0xC5C77, size: 0x8, addend: 0x0, symName: _OUTLINED_FUNCTION_12, symObjAddr: 0xD07C, symBinAddr: 0x1B2C4, symSize: 0x8 }
  - { offset: 0xC5C8F, size: 0x8, addend: 0x0, symName: _OUTLINED_FUNCTION_13, symObjAddr: 0xD084, symBinAddr: 0x1B2CC, symSize: 0x8 }
  - { offset: 0xC5CA7, size: 0x8, addend: 0x0, symName: _OUTLINED_FUNCTION_14, symObjAddr: 0xD08C, symBinAddr: 0x1B2D4, symSize: 0x8 }
  - { offset: 0xC5CBF, size: 0x8, addend: 0x0, symName: _OUTLINED_FUNCTION_15, symObjAddr: 0xD094, symBinAddr: 0x1B2DC, symSize: 0x8 }
  - { offset: 0xC5CD7, size: 0x8, addend: 0x0, symName: _OUTLINED_FUNCTION_16, symObjAddr: 0xD09C, symBinAddr: 0x1B2E4, symSize: 0x8 }
  - { offset: 0xC5CEF, size: 0x8, addend: 0x0, symName: _OUTLINED_FUNCTION_17, symObjAddr: 0xD0A4, symBinAddr: 0x1B2EC, symSize: 0x8 }
  - { offset: 0xC5D07, size: 0x8, addend: 0x0, symName: _OUTLINED_FUNCTION_18, symObjAddr: 0xD0AC, symBinAddr: 0x1B2F4, symSize: 0x8 }
  - { offset: 0xC5D1F, size: 0x8, addend: 0x0, symName: _OUTLINED_FUNCTION_19, symObjAddr: 0xD0B4, symBinAddr: 0x1B2FC, symSize: 0x8 }
  - { offset: 0xC5D37, size: 0x8, addend: 0x0, symName: _OUTLINED_FUNCTION_20, symObjAddr: 0xD0BC, symBinAddr: 0x1B304, symSize: 0x8 }
  - { offset: 0xC5D4F, size: 0x8, addend: 0x0, symName: _OUTLINED_FUNCTION_21, symObjAddr: 0xD0C4, symBinAddr: 0x1B30C, symSize: 0x8 }
  - { offset: 0xC5D67, size: 0x8, addend: 0x0, symName: _OUTLINED_FUNCTION_22, symObjAddr: 0xD0CC, symBinAddr: 0x1B314, symSize: 0xC }
  - { offset: 0xC5D7F, size: 0x8, addend: 0x0, symName: _OUTLINED_FUNCTION_23, symObjAddr: 0xD0D8, symBinAddr: 0x1B320, symSize: 0xC }
  - { offset: 0xC5D97, size: 0x8, addend: 0x0, symName: _OUTLINED_FUNCTION_24, symObjAddr: 0xD0E4, symBinAddr: 0x1B32C, symSize: 0x8 }
  - { offset: 0xC5DAF, size: 0x8, addend: 0x0, symName: _OUTLINED_FUNCTION_25, symObjAddr: 0xD0EC, symBinAddr: 0x1B334, symSize: 0x8 }
  - { offset: 0xC5DC7, size: 0x8, addend: 0x0, symName: _OUTLINED_FUNCTION_26, symObjAddr: 0xD0F4, symBinAddr: 0x1B33C, symSize: 0x8 }
  - { offset: 0xC5DDF, size: 0x8, addend: 0x0, symName: _OUTLINED_FUNCTION_27, symObjAddr: 0xD0FC, symBinAddr: 0x1B344, symSize: 0x8 }
  - { offset: 0xC5DF7, size: 0x8, addend: 0x0, symName: _OUTLINED_FUNCTION_28, symObjAddr: 0xD104, symBinAddr: 0x1B34C, symSize: 0x1C }
  - { offset: 0xC5E0F, size: 0x8, addend: 0x0, symName: _OUTLINED_FUNCTION_29, symObjAddr: 0xD120, symBinAddr: 0x1B368, symSize: 0x8 }
  - { offset: 0xC5E27, size: 0x8, addend: 0x0, symName: _OUTLINED_FUNCTION_30, symObjAddr: 0xD128, symBinAddr: 0x1B370, symSize: 0x8 }
  - { offset: 0xC5E3F, size: 0x8, addend: 0x0, symName: _OUTLINED_FUNCTION_31, symObjAddr: 0xD130, symBinAddr: 0x1B378, symSize: 0xC }
  - { offset: 0xC5E57, size: 0x8, addend: 0x0, symName: _OUTLINED_FUNCTION_32, symObjAddr: 0xD13C, symBinAddr: 0x1B384, symSize: 0x8 }
  - { offset: 0xC7D19, size: 0x8, addend: 0x0, symName: __ZN4absl12lts_2024072213cord_internal23GetEstimatedMemoryUsageEPKNS1_7CordRepE, symObjAddr: 0x0, symBinAddr: 0x1B38C, symSize: 0x80 }
  - { offset: 0xC7E99, size: 0x8, addend: 0x0, symName: __ZN4absl12lts_2024072213cord_internal12_GLOBAL__N_115AnalyzeDataEdgeILNS2_4ModeE1EEEvNS2_10CordRepRefIXT_EEERNS2_8RawUsageIXT_EEE, symObjAddr: 0x298, symBinAddr: 0x1B624, symSize: 0xBC }
  - { offset: 0xC7FA1, size: 0x8, addend: 0x0, symName: __ZN4absl12lts_2024072213cord_internal12_GLOBAL__N_112AnalyzeBtreeILNS2_4ModeE1EEEvNS2_10CordRepRefIXT_EEERNS2_8RawUsageIXT_EEE, symObjAddr: 0x354, symBinAddr: 0x1B6E0, symSize: 0xA4 }
  - { offset: 0xC7FB6, size: 0x8, addend: 0x0, symName: __ZN4absl12lts_2024072213cord_internal12_GLOBAL__N_112AnalyzeBtreeILNS2_4ModeE1EEEvNS2_10CordRepRefIXT_EEERNS2_8RawUsageIXT_EEE, symObjAddr: 0x354, symBinAddr: 0x1B6E0, symSize: 0xA4 }
  - { offset: 0xC81B2, size: 0x8, addend: 0x0, symName: __ZN4absl12lts_2024072213cord_internal12_GLOBAL__N_115AnalyzeDataEdgeILNS2_4ModeE0EEEvNS2_10CordRepRefIXT_EEERNS2_8RawUsageIXT_EEE, symObjAddr: 0x3F8, symBinAddr: 0x1B784, symSize: 0xF0 }
  - { offset: 0xC82DA, size: 0x8, addend: 0x0, symName: __ZN4absl12lts_2024072213cord_internal12_GLOBAL__N_115AnalyzeDataEdgeILNS2_4ModeE0EEEvNS2_10CordRepRefIXT_EEERNS2_8RawUsageIXT_EEE, symObjAddr: 0x3F8, symBinAddr: 0x1B784, symSize: 0xF0 }
  - { offset: 0xC84BD, size: 0x8, addend: 0x0, symName: __ZN4absl12lts_2024072213cord_internal12_GLOBAL__N_112AnalyzeBtreeILNS2_4ModeE0EEEvNS2_10CordRepRefIXT_EEERNS2_8RawUsageIXT_EEE, symObjAddr: 0x4E8, symBinAddr: 0x1B874, symSize: 0x110 }
  - { offset: 0xC84D2, size: 0x8, addend: 0x0, symName: __ZN4absl12lts_2024072213cord_internal12_GLOBAL__N_112AnalyzeBtreeILNS2_4ModeE0EEEvNS2_10CordRepRefIXT_EEERNS2_8RawUsageIXT_EEE, symObjAddr: 0x4E8, symBinAddr: 0x1B874, symSize: 0x110 }
  - { offset: 0xC8888, size: 0x8, addend: 0x0, symName: __ZN4absl12lts_2024072213cord_internal12_GLOBAL__N_115AnalyzeDataEdgeILNS2_4ModeE2EEEvNS2_10CordRepRefIXT_EEERNS2_8RawUsageIXT_EEE, symObjAddr: 0x5F8, symBinAddr: 0x1B984, symSize: 0x124 }
  - { offset: 0xC8939, size: 0x8, addend: 0x0, symName: __ZN4absl12lts_2024072213cord_internal12_GLOBAL__N_115AnalyzeDataEdgeILNS2_4ModeE2EEEvNS2_10CordRepRefIXT_EEERNS2_8RawUsageIXT_EEE, symObjAddr: 0x5F8, symBinAddr: 0x1B984, symSize: 0x124 }
  - { offset: 0xC8B52, size: 0x8, addend: 0x0, symName: __ZN4absl12lts_2024072213cord_internal12_GLOBAL__N_112AnalyzeBtreeILNS2_4ModeE2EEEvNS2_10CordRepRefIXT_EEERNS2_8RawUsageIXT_EEE, symObjAddr: 0x71C, symBinAddr: 0x1BAA8, symSize: 0xC8 }
  - { offset: 0xC8B67, size: 0x8, addend: 0x0, symName: __ZN4absl12lts_2024072213cord_internal12_GLOBAL__N_112AnalyzeBtreeILNS2_4ModeE2EEEvNS2_10CordRepRefIXT_EEERNS2_8RawUsageIXT_EEE, symObjAddr: 0x71C, symBinAddr: 0x1BAA8, symSize: 0xC8 }
  - { offset: 0xC8DBB, size: 0x8, addend: 0x0, symName: __ZNSt3__112__hash_tableIPKN4absl12lts_2024072213cord_internal7CordRepENS_4hashIS6_EENS_8equal_toIS6_EENS_9allocatorIS6_EEE25__emplace_unique_key_argsIS6_JRKS6_EEENS_4pairINS_15__hash_iteratorIPNS_11__hash_nodeIS6_PvEEEEbEERKT_DpOT0_, symObjAddr: 0x7E4, symBinAddr: 0x1BB70, symSize: 0x250 }
  - { offset: 0xC8DED, size: 0x8, addend: 0x0, symName: __ZN4absl12lts_2024072213cord_internal23GetEstimatedMemoryUsageEPKNS1_7CordRepE, symObjAddr: 0x0, symBinAddr: 0x1B38C, symSize: 0x80 }
  - { offset: 0xC8EF2, size: 0x8, addend: 0x0, symName: __ZN4absl12lts_2024072213cord_internal32GetEstimatedFairShareMemoryUsageEPKNS1_7CordRepE, symObjAddr: 0x80, symBinAddr: 0x1B40C, symSize: 0xE0 }
  - { offset: 0xC8EFD, size: 0x8, addend: 0x0, symName: __ZN4absl12lts_2024072213cord_internal32GetEstimatedFairShareMemoryUsageEPKNS1_7CordRepE, symObjAddr: 0x80, symBinAddr: 0x1B40C, symSize: 0xE0 }
  - { offset: 0xC91B2, size: 0x8, addend: 0x0, symName: __ZN4absl12lts_2024072213cord_internal25GetMorePreciseMemoryUsageEPKNS1_7CordRepE, symObjAddr: 0x160, symBinAddr: 0x1B4EC, symSize: 0x138 }
  - { offset: 0xC91BD, size: 0x8, addend: 0x0, symName: __ZN4absl12lts_2024072213cord_internal25GetMorePreciseMemoryUsageEPKNS1_7CordRepE, symObjAddr: 0x160, symBinAddr: 0x1B4EC, symSize: 0x138 }
  - { offset: 0xCDAB5, size: 0x8, addend: 0x0, symName: __ZN4absl12lts_2024072213cord_internal23GetEstimatedMemoryUsageEPKNS1_7CordRepE.cold.1, symObjAddr: 0xCD8, symBinAddr: 0x65924, symSize: 0x28 }
  - { offset: 0xCE018, size: 0x8, addend: 0x0, symName: __ZNSt3__112__hash_tableIPKN4absl12lts_2024072213cord_internal7CordRepENS_4hashIS6_EENS_8equal_toIS6_EENS_9allocatorIS6_EEE25__emplace_unique_key_argsIS6_JRKS6_EEENS_4pairINS_15__hash_iteratorIPNS_11__hash_nodeIS6_PvEEEEbEERKT_DpOT0_, symObjAddr: 0x7E4, symBinAddr: 0x1BB70, symSize: 0x250 }
  - { offset: 0xCE6E5, size: 0x8, addend: 0x0, symName: __ZNSt3__112__hash_tableIPKN4absl12lts_2024072213cord_internal7CordRepENS_4hashIS6_EENS_8equal_toIS6_EENS_9allocatorIS6_EEED2Ev, symObjAddr: 0xC90, symBinAddr: 0x1BFF4, symSize: 0x48 }
  - { offset: 0xCE9C5, size: 0x8, addend: 0x0, symName: __ZN4absl12lts_2024072213cord_internal12_GLOBAL__N_115AnalyzeDataEdgeILNS2_4ModeE1EEEvNS2_10CordRepRefIXT_EEERNS2_8RawUsageIXT_EEE.cold.1, symObjAddr: 0xD28, symBinAddr: 0x6594C, symSize: 0x24 }
  - { offset: 0xCEA90, size: 0x8, addend: 0x0, symName: __ZN4absl12lts_2024072213cord_internal12_GLOBAL__N_112AnalyzeBtreeILNS2_4ModeE1EEEvNS2_10CordRepRefIXT_EEERNS2_8RawUsageIXT_EEE.cold.1, symObjAddr: 0xD94, symBinAddr: 0x65970, symSize: 0x24 }
  - { offset: 0xCEB63, size: 0x8, addend: 0x0, symName: __ZN4absl12lts_2024072213cord_internal12_GLOBAL__N_115AnalyzeDataEdgeILNS2_4ModeE2EEEvNS2_10CordRepRefIXT_EEERNS2_8RawUsageIXT_EEE.cold.2, symObjAddr: 0xE6C, symBinAddr: 0x65994, symSize: 0x28 }
  - { offset: 0xCF09B, size: 0x8, addend: 0x0, symName: __ZNSt3__112__hash_tableIPKN4absl12lts_2024072213cord_internal7CordRepENS_4hashIS6_EENS_8equal_toIS6_EENS_9allocatorIS6_EEE8__rehashILb1EEEvm, symObjAddr: 0xA5C, symBinAddr: 0x1BDC0, symSize: 0xDC }
  - { offset: 0xCF190, size: 0x8, addend: 0x0, symName: __ZNSt3__112__hash_tableIPKN4absl12lts_2024072213cord_internal7CordRepENS_4hashIS6_EENS_8equal_toIS6_EENS_9allocatorIS6_EEE11__do_rehashILb1EEEvm, symObjAddr: 0xB38, symBinAddr: 0x1BE9C, symSize: 0x158 }
  - { offset: 0xCF609, size: 0x8, addend: 0x0, symName: __ZNSt3__112__hash_tableIPKN4absl12lts_2024072213cord_internal7CordRepENS_4hashIS6_EENS_8equal_toIS6_EENS_9allocatorIS6_EEED2Ev, symObjAddr: 0xC90, symBinAddr: 0x1BFF4, symSize: 0x48 }
  - { offset: 0xCF7CC, size: 0x8, addend: 0x0, symName: _OUTLINED_FUNCTION_1, symObjAddr: 0xF08, symBinAddr: 0x1C03C, symSize: 0x8 }
  - { offset: 0xCF7E4, size: 0x8, addend: 0x0, symName: _OUTLINED_FUNCTION_2, symObjAddr: 0xF10, symBinAddr: 0x1C044, symSize: 0x8 }
  - { offset: 0xD16B2, size: 0x8, addend: 0x0, symName: __ZN4absl12lts_2024072210CordBuffer13kDefaultLimitE, symObjAddr: 0x0, symBinAddr: 0x6F0F8, symSize: 0x0 }
  - { offset: 0xD16C6, size: 0x8, addend: 0x0, symName: __ZN4absl12lts_2024072210CordBuffer12kCustomLimitE, symObjAddr: 0x8, symBinAddr: 0x6F100, symSize: 0x0 }
  - { offset: 0xD4163, size: 0x8, addend: 0x0, symName: __ZN4absl12lts_2024072213cord_internal16LogFatalNodeTypeEPNS1_7CordRepE, symObjAddr: 0x0, symBinAddr: 0x1C04C, symSize: 0xC0 }
  - { offset: 0xD418C, size: 0x8, addend: 0x0, symName: __ZN4absl12lts_2024072213cord_internal24shallow_subcords_enabledE, symObjAddr: 0x2B8E0, symBinAddr: 0x86C88, symSize: 0x0 }
  - { offset: 0xD419A, size: 0x8, addend: 0x0, symName: __ZN4absl12lts_2024072213cord_internal16LogFatalNodeTypeEPNS1_7CordRepE, symObjAddr: 0x0, symBinAddr: 0x1C04C, symSize: 0xC0 }
  - { offset: 0xD6C20, size: 0x8, addend: 0x0, symName: __ZN4absl12lts_202407228AlphaNumC2Ei, symObjAddr: 0x1C4, symBinAddr: 0x1C1F0, symSize: 0x44 }
  - { offset: 0xD6CD9, size: 0x8, addend: 0x0, symName: __ZN4absl12lts_2024072213cord_internal7CordRep7DestroyEPS2_.cold.1, symObjAddr: 0x208, symBinAddr: 0x659BC, symSize: 0x28 }
  - { offset: 0xD6DDB, size: 0x8, addend: 0x0, symName: __ZN4absl12lts_2024072213cord_internal7CordRep7DestroyEPS2_, symObjAddr: 0xC0, symBinAddr: 0x1C10C, symSize: 0xE4 }
  - { offset: 0xD6F7C, size: 0x8, addend: 0x0, symName: __ZN4absl12lts_2024072213cord_internal7CordRep7DestroyEPS2_.cold.1, symObjAddr: 0x208, symBinAddr: 0x659BC, symSize: 0x28 }
  - { offset: 0xD6FB5, size: 0x8, addend: 0x0, symName: __ZN4absl12lts_202407228AlphaNumC2Ei, symObjAddr: 0x1C4, symBinAddr: 0x1C1F0, symSize: 0x44 }
  - { offset: 0xD6FC0, size: 0x8, addend: 0x0, symName: __ZN4absl12lts_2024072213cord_internal7CordRep7DestroyEPS2_.cold.2, symObjAddr: 0x230, symBinAddr: 0x659E4, symSize: 0x28 }
  - { offset: 0xD6FED, size: 0x8, addend: 0x0, symName: __ZN4absl12lts_2024072213cord_internal7CordRep7DestroyEPS2_.cold.5, symObjAddr: 0x2A8, symBinAddr: 0x65A5C, symSize: 0x28 }
  - { offset: 0xD7005, size: 0x8, addend: 0x0, symName: __ZN4absl12lts_2024072213cord_internal7CordRep7DestroyEPS2_.cold.3, symObjAddr: 0x258, symBinAddr: 0x65A0C, symSize: 0x28 }
  - { offset: 0xD7032, size: 0x8, addend: 0x0, symName: __ZN4absl12lts_2024072213cord_internal7CordRep7DestroyEPS2_.cold.4, symObjAddr: 0x280, symBinAddr: 0x65A34, symSize: 0x28 }
  - { offset: 0xD8FF9, size: 0x8, addend: 0x0, symName: __ZN4absl12lts_2024072213cord_internal12CordRepBtree12kMaxCapacityE, symObjAddr: 0x8D38, symBinAddr: 0x6F108, symSize: 0x0 }
  - { offset: 0xD9C11, size: 0x8, addend: 0x0, symName: __ZN4absl12lts_2024072213cord_internal12_GLOBAL__N_132cord_btree_exhaustive_validationE.0, symObjAddr: 0x77828, symBinAddr: 0x86CC0, symSize: 0x0 }
  - { offset: 0xD9FCD, size: 0x8, addend: 0x0, symName: __ZN4absl12lts_2024072213cord_internal12_GLOBAL__N_17DumpAllEPKNS1_7CordRepEbRNSt3__113basic_ostreamIcNS6_11char_traitsIcEEEEm, symObjAddr: 0x1ADC, symBinAddr: 0x1DD10, symSize: 0x6A4 }
  - { offset: 0xDBC73, size: 0x8, addend: 0x0, symName: __ZN4absl12lts_2024072213cord_internal12_GLOBAL__N_114DeleteLeafEdgeEPNS1_7CordRepE, symObjAddr: 0x243C, symBinAddr: 0x1E670, symSize: 0x10C }
  - { offset: 0xDBE64, size: 0x8, addend: 0x0, symName: __ZN4absl12lts_2024072213cord_internal12CordRepBtree7IsValidEPKS2_b, symObjAddr: 0x2548, symBinAddr: 0x1E77C, symSize: 0x3C8 }
  - { offset: 0xDBEEB, size: 0x8, addend: 0x0, symName: __ZN4absl12lts_2024072213cord_internal12_GLOBAL__N_115CreateSubstringEPNS1_7CordRepEmm, symObjAddr: 0x5808, symBinAddr: 0x21354, symSize: 0xF4 }
  - { offset: 0xDC267, size: 0x8, addend: 0x0, symName: __ZN4absl12lts_2024072216strings_internal15IntegerToStringImEENSt3__112basic_stringIcNS3_11char_traitsIcEENS3_9allocatorIcEEEET_, symObjAddr: 0x58FC, symBinAddr: 0x21448, symSize: 0xCC }
  - { offset: 0xDC272, size: 0x8, addend: 0x0, symName: __ZN4absl12lts_2024072213cord_internal12_GLOBAL__N_110ResizeEdgeEPNS1_7CordRepEmb, symObjAddr: 0x3720, symBinAddr: 0x1F904, symSize: 0x84 }
  - { offset: 0xDC30B, size: 0x8, addend: 0x0, symName: __ZN4absl12lts_2024072213cord_internal12CordRepBtree7SubTreeEmm, symObjAddr: 0x37A4, symBinAddr: 0x1F988, symSize: 0x47C }
  - { offset: 0xDC381, size: 0x8, addend: 0x0, symName: __ZN4absl12lts_2024072213cord_internal32SetCordBtreeExhaustiveValidationEb, symObjAddr: 0x19FC, symBinAddr: 0x1DC30, symSize: 0xC }
  - { offset: 0xDC3B2, size: 0x8, addend: 0x0, symName: __ZN4absl12lts_2024072213cord_internal32SetCordBtreeExhaustiveValidationEb, symObjAddr: 0x19FC, symBinAddr: 0x1DC30, symSize: 0xC }
  - { offset: 0xDC3D9, size: 0x8, addend: 0x0, symName: __ZN4absl12lts_2024072213cord_internal32SetCordBtreeExhaustiveValidationEb, symObjAddr: 0x19FC, symBinAddr: 0x1DC30, symSize: 0xC }
  - { offset: 0xDC3FA, size: 0x8, addend: 0x0, symName: __ZN4absl12lts_2024072213cord_internal38IsCordBtreeExhaustiveValidationEnabledEv, symObjAddr: 0x1A08, symBinAddr: 0x1DC3C, symSize: 0x10 }
  - { offset: 0xDC411, size: 0x8, addend: 0x0, symName: __ZN4absl12lts_2024072213cord_internal38IsCordBtreeExhaustiveValidationEnabledEv, symObjAddr: 0x1A08, symBinAddr: 0x1DC3C, symSize: 0x10 }
  - { offset: 0xDC42C, size: 0x8, addend: 0x0, symName: __ZN4absl12lts_2024072213cord_internal38IsCordBtreeExhaustiveValidationEnabledEv, symObjAddr: 0x1A08, symBinAddr: 0x1DC3C, symSize: 0x10 }
  - { offset: 0xDD16F, size: 0x8, addend: 0x0, symName: __ZN4absl12lts_2024072216strings_internal15IntegerToStringImEENSt3__112basic_stringIcNS3_11char_traitsIcEENS3_9allocatorIcEEEET_, symObjAddr: 0x58FC, symBinAddr: 0x21448, symSize: 0xCC }
  - { offset: 0xDD51F, size: 0x8, addend: 0x0, symName: __ZN4absl12lts_2024072213AbslStringifyINS0_16strings_internal13StringifySinkEEEvRT_NS0_3HexE, symObjAddr: 0x52F8, symBinAddr: 0x21290, symSize: 0xC4 }
  - { offset: 0xDD74B, size: 0x8, addend: 0x0, symName: '__ZN4absl12lts_2024072219functional_internal12InvokeObjectIZNS0_13cord_internal12CordRepBtree10CreateSlowEPNS3_7CordRepEE3$_0vJS6_mmEEET0_NS1_7VoidPtrEDpNS1_8ForwardTIT1_E4typeE', symObjAddr: 0x5C98, symBinAddr: 0x2170C, symSize: 0x100 }
  - { offset: 0xDDB56, size: 0x8, addend: 0x0, symName: '__ZN4absl12lts_2024072219functional_internal12InvokeObjectIZNS0_13cord_internal12CordRepBtree10AppendSlowEPS4_PNS3_7CordRepEE3$_0vJS7_mmEEET0_NS1_7VoidPtrEDpNS1_8ForwardTIT1_E4typeE', symObjAddr: 0x5D98, symBinAddr: 0x2180C, symSize: 0x98 }
  - { offset: 0xDDD13, size: 0x8, addend: 0x0, symName: '__ZN4absl12lts_2024072219functional_internal12InvokeObjectIZNS0_13cord_internal12CordRepBtree11PrependSlowEPS4_PNS3_7CordRepEE3$_0vJS7_mmEEET0_NS1_7VoidPtrEDpNS1_8ForwardTIT1_E4typeE', symObjAddr: 0x5E30, symBinAddr: 0x218A4, symSize: 0x98 }
  - { offset: 0xE18C5, size: 0x8, addend: 0x0, symName: __ZN4absl12lts_2024072213cord_internal12CordRepBtree10CreateSlowEPNS1_7CordRepE, symObjAddr: 0x4978, symBinAddr: 0x20A94, symSize: 0x40 }
  - { offset: 0xE1942, size: 0x8, addend: 0x0, symName: __ZN4absl12lts_2024072213cord_internal12CordRepBtree10CreateSlowEPNS1_7CordRepE, symObjAddr: 0x4978, symBinAddr: 0x20A94, symSize: 0x40 }
  - { offset: 0xE1981, size: 0x8, addend: 0x0, symName: __ZN4absl12lts_2024072213cord_internal12CordRepBtree10AppendSlowEPS2_PNS1_7CordRepE, symObjAddr: 0x49B8, symBinAddr: 0x20AD4, symSize: 0x5C }
  - { offset: 0xE1A44, size: 0x8, addend: 0x0, symName: __ZN4absl12lts_2024072213cord_internal12CordRepBtree11PrependSlowEPS2_PNS1_7CordRepE, symObjAddr: 0x4A14, symBinAddr: 0x20B30, symSize: 0x60 }
  - { offset: 0xE1CB0, size: 0x8, addend: 0x0, symName: __ZN4absl12lts_2024072213cord_internal12CordRepBtree10AddCordRepILNS2_8EdgeTypeE0EEEPS2_S5_PNS1_7CordRepE, symObjAddr: 0x0, symBinAddr: 0x1C234, symSize: 0x1F0 }
  - { offset: 0xE2053, size: 0x8, addend: 0x0, symName: __ZN4absl12lts_2024072213cord_internal12CordRepBtree7AddEdgeILNS2_8EdgeTypeE0EEENS2_8OpResultEbPNS1_7CordRepEm, symObjAddr: 0x1F0, symBinAddr: 0x1C424, symSize: 0x1AC }
  - { offset: 0xE275F, size: 0x8, addend: 0x0, symName: __ZN4absl12lts_2024072213cord_internal12CordRepBtree10AddCordRepILNS2_8EdgeTypeE1EEEPS2_S5_PNS1_7CordRepE, symObjAddr: 0x39C, symBinAddr: 0x1C5D0, symSize: 0x1F0 }
  - { offset: 0xE2774, size: 0x8, addend: 0x0, symName: __ZN4absl12lts_2024072213cord_internal12CordRepBtree7SetEdgeILNS2_8EdgeTypeE0EEENS2_8OpResultEbPNS1_7CordRepEm, symObjAddr: 0x5EC8, symBinAddr: 0x2193C, symSize: 0x134 }
  - { offset: 0xE2C14, size: 0x8, addend: 0x0, symName: __ZN4absl12lts_2024072213cord_internal12_GLOBAL__N_115StackOperationsILNS1_12CordRepBtree8EdgeTypeE0EE8FinalizeEPS4_NS4_8OpResultE, symObjAddr: 0x5B9C, symBinAddr: 0x21610, symSize: 0xFC }
  - { offset: 0xE2F2D, size: 0x8, addend: 0x0, symName: '__ZN4absl12lts_2024072219functional_internal12InvokeObjectIZNS0_13cord_internal12CordRepBtree10CreateSlowEPNS3_7CordRepEE3$_0vJS6_mmEEET0_NS1_7VoidPtrEDpNS1_8ForwardTIT1_E4typeE', symObjAddr: 0x5C98, symBinAddr: 0x2170C, symSize: 0x100 }
  - { offset: 0xE34C8, size: 0x8, addend: 0x0, symName: __ZN4absl12lts_2024072213cord_internal12CordRepBtree10AddCordRepILNS2_8EdgeTypeE1EEEPS2_S5_PNS1_7CordRepE, symObjAddr: 0x39C, symBinAddr: 0x1C5D0, symSize: 0x1F0 }
  - { offset: 0xE386B, size: 0x8, addend: 0x0, symName: __ZN4absl12lts_2024072213cord_internal12CordRepBtree7AddEdgeILNS2_8EdgeTypeE1EEENS2_8OpResultEbPNS1_7CordRepEm, symObjAddr: 0x58C, symBinAddr: 0x1C7C0, symSize: 0x178 }
  - { offset: 0xE3EEE, size: 0x8, addend: 0x0, symName: __ZN4absl12lts_2024072213cord_internal12CordRepBtree7SetEdgeILNS2_8EdgeTypeE1EEENS2_8OpResultEbPNS1_7CordRepEm, symObjAddr: 0x5FFC, symBinAddr: 0x21A70, symSize: 0x148 }
  - { offset: 0xE4386, size: 0x8, addend: 0x0, symName: __ZN4absl12lts_2024072213cord_internal12_GLOBAL__N_115StackOperationsILNS1_12CordRepBtree8EdgeTypeE1EE8FinalizeEPS4_NS4_8OpResultE, symObjAddr: 0x5AA0, symBinAddr: 0x21514, symSize: 0xFC }
  - { offset: 0xE469F, size: 0x8, addend: 0x0, symName: __ZN4absl12lts_2024072213cord_internal12_GLOBAL__N_115StackOperationsILNS1_12CordRepBtree8EdgeTypeE0EE8FinalizeEPS4_NS4_8OpResultE, symObjAddr: 0x5B9C, symBinAddr: 0x21610, symSize: 0xFC }
  - { offset: 0xE476F, size: 0x8, addend: 0x0, symName: __ZN4absl12lts_2024072213cord_internal12CordRepBtree7AddEdgeILNS2_8EdgeTypeE1EEENS2_8OpResultEbPNS1_7CordRepEm.cold.2, symObjAddr: 0x621C, symBinAddr: 0x65A84, symSize: 0x54 }
  - { offset: 0xE48CC, size: 0x8, addend: 0x0, symName: __ZN4absl12lts_2024072213cord_internal12CordRepBtree7AddDataILNS2_8EdgeTypeE0EEEPS2_S5_NS0_11string_viewEm, symObjAddr: 0x704, symBinAddr: 0x1C938, symSize: 0x6EC }
  - { offset: 0xE53B4, size: 0x8, addend: 0x0, symName: __ZN4absl12lts_2024072213cord_internal12CordRepBtree7AddDataILNS2_8EdgeTypeE0EEENS0_11string_viewES5_m, symObjAddr: 0xDF0, symBinAddr: 0x1D024, symSize: 0x170 }
  - { offset: 0xE5407, size: 0x8, addend: 0x0, symName: __ZN4absl12lts_2024072213cord_internal12CordRepBtree7AddDataILNS2_8EdgeTypeE0EEENS0_11string_viewES5_m, symObjAddr: 0xDF0, symBinAddr: 0x1D024, symSize: 0x170 }
  - { offset: 0xE56A3, size: 0x8, addend: 0x0, symName: __ZN4absl12lts_2024072213cord_internal12CordRepBtree7NewLeafILNS2_8EdgeTypeE0EEEPS2_NS0_11string_viewEm, symObjAddr: 0xF60, symBinAddr: 0x1D194, symSize: 0x12C }
  - { offset: 0xE56B8, size: 0x8, addend: 0x0, symName: __ZN4absl12lts_2024072213cord_internal12CordRepBtree7NewLeafILNS2_8EdgeTypeE0EEEPS2_NS0_11string_viewEm, symObjAddr: 0xF60, symBinAddr: 0x1D194, symSize: 0x12C }
  - { offset: 0xE5AE6, size: 0x8, addend: 0x0, symName: __ZNK4absl12lts_2024072213cord_internal12CordRepBtree12GetCharacterEm, symObjAddr: 0x46E8, symBinAddr: 0x20804, symSize: 0xF8 }
  - { offset: 0xE5AF1, size: 0x8, addend: 0x0, symName: __ZN4absl12lts_2024072213cord_internal12CordRepBtree7AddDataILNS2_8EdgeTypeE0EEEPS2_S5_NS0_11string_viewEm.cold.6, symObjAddr: 0x6328, symBinAddr: 0x65B24, symSize: 0x28 }
  - { offset: 0xE5B3F, size: 0x8, addend: 0x0, symName: __ZN4absl12lts_2024072213cord_internal12CordRepBtree7AddDataILNS2_8EdgeTypeE0EEEPS2_S5_NS0_11string_viewEm.cold.9, symObjAddr: 0x639C, symBinAddr: 0x65B74, symSize: 0x28 }
  - { offset: 0xE5B6D, size: 0x8, addend: 0x0, symName: __ZN4absl12lts_2024072213cord_internal12CordRepBtree7AddDataILNS2_8EdgeTypeE0EEEPS2_S5_NS0_11string_viewEm.cold.8, symObjAddr: 0x6374, symBinAddr: 0x65B4C, symSize: 0x28 }
  - { offset: 0xE5BC6, size: 0x8, addend: 0x0, symName: __ZN4absl12lts_2024072213cord_internal12CordRepBtree7AddDataILNS2_8EdgeTypeE0EEEPS2_S5_NS0_11string_viewEm.cold.5, symObjAddr: 0x6304, symBinAddr: 0x65B00, symSize: 0x24 }
  - { offset: 0xE5BDE, size: 0x8, addend: 0x0, symName: __ZN4absl12lts_2024072213cord_internal12CordRepBtree7AddDataILNS2_8EdgeTypeE0EEEPS2_S5_NS0_11string_viewEm.cold.4, symObjAddr: 0x62DC, symBinAddr: 0x65AD8, symSize: 0x28 }
  - { offset: 0xE5DD0, size: 0x8, addend: 0x0, symName: __ZN4absl12lts_2024072213cord_internal12_GLOBAL__N_115CreateSubstringEPNS1_7CordRepEmm, symObjAddr: 0x5808, symBinAddr: 0x21354, symSize: 0xF4 }
  - { offset: 0xE5DEC, size: 0x8, addend: 0x0, symName: __ZN4absl12lts_2024072213cord_internal12CordRepBtree7AddDataILNS2_8EdgeTypeE0EEENS0_11string_viewES5_m.cold.2, symObjAddr: 0x63EC, symBinAddr: 0x65BC4, symSize: 0x28 }
  - { offset: 0xE5E04, size: 0x8, addend: 0x0, symName: __ZN4absl12lts_2024072213cord_internal12CordRepBtree7AddDataILNS2_8EdgeTypeE0EEENS0_11string_viewES5_m.cold.1, symObjAddr: 0x63C4, symBinAddr: 0x65B9C, symSize: 0x28 }
  - { offset: 0xE5F28, size: 0x8, addend: 0x0, symName: __ZN4absl12lts_2024072213cord_internal12CordRepBtree7AddDataILNS2_8EdgeTypeE1EEEPS2_S5_NS0_11string_viewEm, symObjAddr: 0x108C, symBinAddr: 0x1D2C0, symSize: 0x6F0 }
  - { offset: 0xE6A13, size: 0x8, addend: 0x0, symName: __ZN4absl12lts_2024072213cord_internal12CordRepBtree7AddDataILNS2_8EdgeTypeE1EEENS0_11string_viewES5_m, symObjAddr: 0x177C, symBinAddr: 0x1D9B0, symSize: 0x14C }
  - { offset: 0xE6A66, size: 0x8, addend: 0x0, symName: __ZN4absl12lts_2024072213cord_internal12CordRepBtree7AddDataILNS2_8EdgeTypeE1EEENS0_11string_viewES5_m, symObjAddr: 0x177C, symBinAddr: 0x1D9B0, symSize: 0x14C }
  - { offset: 0xE6D13, size: 0x8, addend: 0x0, symName: __ZN4absl12lts_2024072213cord_internal12CordRepBtree7NewLeafILNS2_8EdgeTypeE1EEEPS2_NS0_11string_viewEm, symObjAddr: 0x18C8, symBinAddr: 0x1DAFC, symSize: 0x134 }
  - { offset: 0xE714D, size: 0x8, addend: 0x0, symName: __ZN4absl12lts_2024072213cord_internal12CordRepBtree7AddDataILNS2_8EdgeTypeE1EEENS0_11string_viewES5_m.cold.2, symObjAddr: 0x6590, symBinAddr: 0x65C14, symSize: 0x28 }
  - { offset: 0xE7165, size: 0x8, addend: 0x0, symName: __ZN4absl12lts_2024072213cord_internal12CordRepBtree7AddDataILNS2_8EdgeTypeE1EEENS0_11string_viewES5_m.cold.1, symObjAddr: 0x6568, symBinAddr: 0x65BEC, symSize: 0x28 }
  - { offset: 0xE71E9, size: 0x8, addend: 0x0, symName: __ZN4absl12lts_2024072213cord_internal12CordRepBtree4DumpEPKNS1_7CordRepENS0_11string_viewEbRNSt3__113basic_ostreamIcNS7_11char_traitsIcEEEE, symObjAddr: 0x1A18, symBinAddr: 0x1DC4C, symSize: 0xC4 }
  - { offset: 0xE7A6C, size: 0x8, addend: 0x0, symName: __ZN4absl12lts_2024072213AbslStringifyINS0_16strings_internal13StringifySinkEEEvRT_NS0_3HexE, symObjAddr: 0x52F8, symBinAddr: 0x21290, symSize: 0xC4 }
  - { offset: 0xE7C79, size: 0x8, addend: 0x0, symName: __ZN4absl12lts_2024072213cord_internal12_GLOBAL__N_17DumpAllEPKNS1_7CordRepEbRNSt3__113basic_ostreamIcNS6_11char_traitsIcEEEEm.cold.1, symObjAddr: 0x65B8, symBinAddr: 0x65C3C, symSize: 0x28 }
  - { offset: 0xE7CAE, size: 0x8, addend: 0x0, symName: __ZN4absl12lts_2024072213cord_internal12CordRepBtree4DumpEPKNS1_7CordRepENS0_11string_viewERNSt3__113basic_ostreamIcNS7_11char_traitsIcEEEE, symObjAddr: 0x2180, symBinAddr: 0x1E3B4, symSize: 0xC }
  - { offset: 0xE7D1F, size: 0x8, addend: 0x0, symName: __ZN4absl12lts_2024072213cord_internal12CordRepBtree4DumpEPKNS1_7CordRepERNSt3__113basic_ostreamIcNS6_11char_traitsIcEEEE, symObjAddr: 0x218C, symBinAddr: 0x1E3C0, symSize: 0x14 }
  - { offset: 0xE7DE0, size: 0x8, addend: 0x0, symName: __ZN4absl12lts_2024072213cord_internal12CordRepBtree7DestroyEPS2_, symObjAddr: 0x21A0, symBinAddr: 0x1E3D4, symSize: 0x29C }
  - { offset: 0xE850E, size: 0x8, addend: 0x0, symName: __ZN4absl12lts_2024072213cord_internal12_GLOBAL__N_114DeleteLeafEdgeEPNS1_7CordRepE, symObjAddr: 0x243C, symBinAddr: 0x1E670, symSize: 0x10C }
  - { offset: 0xE8519, size: 0x8, addend: 0x0, symName: __ZN4absl12lts_2024072213cord_internal12CordRepBtree7DestroyEPS2_.cold.3, symObjAddr: 0x6628, symBinAddr: 0x65C64, symSize: 0x24 }
  - { offset: 0xE86D8, size: 0x8, addend: 0x0, symName: __ZN4absl12lts_2024072213cord_internal12_GLOBAL__N_114DeleteLeafEdgeEPNS1_7CordRepE.cold.8, symObjAddr: 0x6854, symBinAddr: 0x65CD8, symSize: 0x28 }
  - { offset: 0xE8705, size: 0x8, addend: 0x0, symName: __ZN4absl12lts_2024072213cord_internal12_GLOBAL__N_114DeleteLeafEdgeEPNS1_7CordRepE.cold.1, symObjAddr: 0x6748, symBinAddr: 0x65C88, symSize: 0x28 }
  - { offset: 0xE8781, size: 0x8, addend: 0x0, symName: __ZN4absl12lts_2024072213cord_internal12_GLOBAL__N_114DeleteLeafEdgeEPNS1_7CordRepE.cold.2, symObjAddr: 0x6770, symBinAddr: 0x65CB0, symSize: 0x28 }
  - { offset: 0xE87E2, size: 0x8, addend: 0x0, symName: __ZN4absl12lts_2024072213cord_internal12CordRepBtree7IsValidEPKS2_b, symObjAddr: 0x2548, symBinAddr: 0x1E77C, symSize: 0x3C8 }
  - { offset: 0xE91BB, size: 0x8, addend: 0x0, symName: __ZN4absl12lts_2024072213cord_internal12CordRepBtree11AssertValidEPS2_b, symObjAddr: 0x2910, symBinAddr: 0x1EB44, symSize: 0x30 }
  - { offset: 0xE9211, size: 0x8, addend: 0x0, symName: __ZN4absl12lts_2024072213cord_internal12CordRepBtree11AssertValidEPKS2_b, symObjAddr: 0x2940, symBinAddr: 0x1EB74, symSize: 0x30 }
  - { offset: 0xE9223, size: 0x8, addend: 0x0, symName: __ZN4absl12lts_2024072213cord_internal12CordRepBtree11AssertValidEPS2_b.cold.1, symObjAddr: 0x68A0, symBinAddr: 0x65D00, symSize: 0x58 }
  - { offset: 0xE923B, size: 0x8, addend: 0x0, symName: __ZN4absl12lts_2024072213cord_internal12CordRepBtree11AssertValidEPKS2_b, symObjAddr: 0x2940, symBinAddr: 0x1EB74, symSize: 0x30 }
  - { offset: 0xE9291, size: 0x8, addend: 0x0, symName: __ZN4absl12lts_2024072213cord_internal12CordRepBtree10CopySuffixEm, symObjAddr: 0x2970, symBinAddr: 0x1EBA4, symSize: 0x364 }
  - { offset: 0xE92A3, size: 0x8, addend: 0x0, symName: __ZN4absl12lts_2024072213cord_internal12CordRepBtree11AssertValidEPKS2_b.cold.1, symObjAddr: 0x68F8, symBinAddr: 0x65D58, symSize: 0x58 }
  - { offset: 0xE9385, size: 0x8, addend: 0x0, symName: __ZN4absl12lts_2024072213cord_internal12CordRepBtree10CopySuffixEm, symObjAddr: 0x2970, symBinAddr: 0x1EBA4, symSize: 0x364 }
  - { offset: 0xEA021, size: 0x8, addend: 0x0, symName: __ZN4absl12lts_2024072213cord_internal12CordRepBtree10CopyPrefixEmb, symObjAddr: 0x2CD4, symBinAddr: 0x1EF08, symSize: 0x41C }
  - { offset: 0xEA081, size: 0x8, addend: 0x0, symName: __ZN4absl12lts_2024072213cord_internal12CordRepBtree10CopySuffixEm.cold.10, symObjAddr: 0x6AA0, symBinAddr: 0x65E28, symSize: 0x28 }
  - { offset: 0xEA0D8, size: 0x8, addend: 0x0, symName: __ZN4absl12lts_2024072213cord_internal12CordRepBtree10CopySuffixEm.cold.8, symObjAddr: 0x6A54, symBinAddr: 0x65E00, symSize: 0x28 }
  - { offset: 0xEA106, size: 0x8, addend: 0x0, symName: __ZN4absl12lts_2024072213cord_internal12CordRepBtree10CopySuffixEm.cold.6, symObjAddr: 0x6A08, symBinAddr: 0x65DD8, symSize: 0x28 }
  - { offset: 0xEA134, size: 0x8, addend: 0x0, symName: __ZN4absl12lts_2024072213cord_internal12CordRepBtree10CopySuffixEm.cold.1, symObjAddr: 0x6950, symBinAddr: 0x65DB0, symSize: 0x28 }
  - { offset: 0xEA210, size: 0x8, addend: 0x0, symName: __ZN4absl12lts_2024072213cord_internal12CordRepBtree10CopyPrefixEmb, symObjAddr: 0x2CD4, symBinAddr: 0x1EF08, symSize: 0x41C }
  - { offset: 0xEAF19, size: 0x8, addend: 0x0, symName: __ZN4absl12lts_2024072213cord_internal12CordRepBtree12ExtractFrontEPS2_, symObjAddr: 0x30F0, symBinAddr: 0x1F324, symSize: 0x130 }
  - { offset: 0xEAFB8, size: 0x8, addend: 0x0, symName: __ZN4absl12lts_2024072213cord_internal12CordRepBtree10CopyPrefixEmb.cold.11, symObjAddr: 0x6C80, symBinAddr: 0x65E98, symSize: 0x24 }
  - { offset: 0xEAFE6, size: 0x8, addend: 0x0, symName: __ZN4absl12lts_2024072213cord_internal12CordRepBtree10CopyPrefixEmb.cold.10, symObjAddr: 0x6C5C, symBinAddr: 0x65E74, symSize: 0x24 }
  - { offset: 0xEB029, size: 0x8, addend: 0x0, symName: __ZN4absl12lts_2024072213cord_internal12CordRepBtree10CopyPrefixEmb.cold.17, symObjAddr: 0x6D5C, symBinAddr: 0x65EE4, symSize: 0x28 }
  - { offset: 0xEB041, size: 0x8, addend: 0x0, symName: __ZN4absl12lts_2024072213cord_internal12CordRepBtree10CopyPrefixEmb.cold.16, symObjAddr: 0x6D34, symBinAddr: 0x65EBC, symSize: 0x28 }
  - { offset: 0xEB059, size: 0x8, addend: 0x0, symName: __ZN4absl12lts_2024072213cord_internal12CordRepBtree10CopyPrefixEmb.cold.2, symObjAddr: 0x6B3C, symBinAddr: 0x65E50, symSize: 0x24 }
  - { offset: 0xEB1A1, size: 0x8, addend: 0x0, symName: __ZN4absl12lts_2024072213cord_internal12CordRepBtree12ExtractFrontEPS2_, symObjAddr: 0x30F0, symBinAddr: 0x1F324, symSize: 0x130 }
  - { offset: 0xEB53D, size: 0x8, addend: 0x0, symName: __ZN4absl12lts_2024072213cord_internal12CordRepBtree12ExtractFrontEPS2_.cold.4, symObjAddr: 0x6DF0, symBinAddr: 0x65F0C, symSize: 0x24 }
  - { offset: 0xEB631, size: 0x8, addend: 0x0, symName: __ZN4absl12lts_2024072213cord_internal12CordRepBtree14ConsumeBeginToEPS2_mm, symObjAddr: 0x3270, symBinAddr: 0x1F454, symSize: 0x1CC }
  - { offset: 0xEBCA8, size: 0x8, addend: 0x0, symName: __ZN4absl12lts_2024072213cord_internal12CordRepBtree14ConsumeBeginToEPS2_mm.cold.9, symObjAddr: 0x6FA4, symBinAddr: 0x65F58, symSize: 0x28 }
  - { offset: 0xEBCEA, size: 0x8, addend: 0x0, symName: __ZN4absl12lts_2024072213cord_internal12CordRepBtree14ConsumeBeginToEPS2_mm.cold.7, symObjAddr: 0x6F58, symBinAddr: 0x65F30, symSize: 0x28 }
  - { offset: 0xEBD9E, size: 0x8, addend: 0x0, symName: __ZN4absl12lts_2024072213cord_internal12CordRepBtree12RemoveSuffixEPS2_m, symObjAddr: 0x343C, symBinAddr: 0x1F620, symSize: 0x2E4 }
  - { offset: 0xEC484, size: 0x8, addend: 0x0, symName: __ZN4absl12lts_2024072213cord_internal12CordRepBtree12RemoveSuffixEPS2_m.cold.3, symObjAddr: 0x7014, symBinAddr: 0x65F80, symSize: 0x28 }
  - { offset: 0xEC4B1, size: 0x8, addend: 0x0, symName: __ZN4absl12lts_2024072213cord_internal12CordRepBtree12RemoveSuffixEPS2_m.cold.9, symObjAddr: 0x70F0, symBinAddr: 0x65FA8, symSize: 0x24 }
  - { offset: 0xEC509, size: 0x8, addend: 0x0, symName: __ZN4absl12lts_2024072213cord_internal12CordRepBtree12RemoveSuffixEPS2_m.cold.14, symObjAddr: 0x71A8, symBinAddr: 0x65FF4, symSize: 0x28 }
  - { offset: 0xEC521, size: 0x8, addend: 0x0, symName: __ZN4absl12lts_2024072213cord_internal12CordRepBtree12RemoveSuffixEPS2_m.cold.13, symObjAddr: 0x7180, symBinAddr: 0x65FCC, symSize: 0x28 }
  - { offset: 0xEC5AD, size: 0x8, addend: 0x0, symName: __ZN4absl12lts_2024072213cord_internal12_GLOBAL__N_110ResizeEdgeEPNS1_7CordRepEmb.cold.3, symObjAddr: 0x7220, symBinAddr: 0x6606C, symSize: 0x28 }
  - { offset: 0xEC5C5, size: 0x8, addend: 0x0, symName: __ZN4absl12lts_2024072213cord_internal12_GLOBAL__N_110ResizeEdgeEPNS1_7CordRepEmb.cold.2, symObjAddr: 0x71F8, symBinAddr: 0x66044, symSize: 0x28 }
  - { offset: 0xEC5DD, size: 0x8, addend: 0x0, symName: __ZN4absl12lts_2024072213cord_internal12_GLOBAL__N_110ResizeEdgeEPNS1_7CordRepEmb.cold.1, symObjAddr: 0x71D0, symBinAddr: 0x6601C, symSize: 0x28 }
  - { offset: 0xEC631, size: 0x8, addend: 0x0, symName: __ZN4absl12lts_2024072213cord_internal12CordRepBtree7SubTreeEmm, symObjAddr: 0x37A4, symBinAddr: 0x1F988, symSize: 0x47C }
  - { offset: 0xED43D, size: 0x8, addend: 0x0, symName: __ZN4absl12lts_2024072213cord_internal12CordRepBtree10MergeTreesEPS2_S3_, symObjAddr: 0x3C20, symBinAddr: 0x1FE04, symSize: 0x28 }
  - { offset: 0xED487, size: 0x8, addend: 0x0, symName: __ZN4absl12lts_2024072213cord_internal12CordRepBtree7SubTreeEmm.cold.13, symObjAddr: 0x7404, symBinAddr: 0x66108, symSize: 0x28 }
  - { offset: 0xED49F, size: 0x8, addend: 0x0, symName: __ZN4absl12lts_2024072213cord_internal12CordRepBtree7SubTreeEmm.cold.12, symObjAddr: 0x73DC, symBinAddr: 0x660E0, symSize: 0x28 }
  - { offset: 0xED4F6, size: 0x8, addend: 0x0, symName: __ZN4absl12lts_2024072213cord_internal12CordRepBtree7SubTreeEmm.cold.9, symObjAddr: 0x736C, symBinAddr: 0x660BC, symSize: 0x24 }
  - { offset: 0xED578, size: 0x8, addend: 0x0, symName: __ZN4absl12lts_2024072213cord_internal12CordRepBtree7SubTreeEmm.cold.4, symObjAddr: 0x72B4, symBinAddr: 0x66094, symSize: 0x28 }
  - { offset: 0xED590, size: 0x8, addend: 0x0, symName: __ZN4absl12lts_2024072213cord_internal12CordRepBtree10MergeTreesEPS2_S3_, symObjAddr: 0x3C20, symBinAddr: 0x1FE04, symSize: 0x28 }
  - { offset: 0xED61C, size: 0x8, addend: 0x0, symName: __ZN4absl12lts_2024072213cord_internal12CordRepBtree5MergeILNS2_8EdgeTypeE0EEEPS2_S5_S5_, symObjAddr: 0x402C, symBinAddr: 0x20210, symSize: 0x424 }
  - { offset: 0xEE185, size: 0x8, addend: 0x0, symName: __ZN4absl12lts_2024072213cord_internal12CordRepBtree5MergeILNS2_8EdgeTypeE1EEEPS2_S5_S5_, symObjAddr: 0x3C48, symBinAddr: 0x1FE2C, symSize: 0x3E4 }
  - { offset: 0xEED3B, size: 0x8, addend: 0x0, symName: __ZN4absl12lts_2024072213cord_internal12CordRepBtree5MergeILNS2_8EdgeTypeE1EEEPS2_S5_S5_.cold.7, symObjAddr: 0x7534, symBinAddr: 0x66130, symSize: 0x28 }
  - { offset: 0xEEED6, size: 0x8, addend: 0x0, symName: __ZNK4absl12lts_2024072213cord_internal12CordRepBtree6IsFlatEPNS0_11string_viewE, symObjAddr: 0x4450, symBinAddr: 0x20634, symSize: 0x64 }
  - { offset: 0xEEFD3, size: 0x8, addend: 0x0, symName: __ZNK4absl12lts_2024072213cord_internal12CordRepBtree6IsFlatEmmPNS0_11string_viewE, symObjAddr: 0x44B4, symBinAddr: 0x20698, symSize: 0x16C }
  - { offset: 0xEF0B2, size: 0x8, addend: 0x0, symName: __ZNK4absl12lts_2024072213cord_internal12CordRepBtree6IsFlatEmmPNS0_11string_viewE, symObjAddr: 0x44B4, symBinAddr: 0x20698, symSize: 0x16C }
  - { offset: 0xEF456, size: 0x8, addend: 0x0, symName: __ZNK4absl12lts_2024072213cord_internal12CordRepBtree6IsFlatEmmPNS0_11string_viewE.cold.10, symObjAddr: 0x77AC, symBinAddr: 0x661D0, symSize: 0x28 }
  - { offset: 0xEF46E, size: 0x8, addend: 0x0, symName: __ZNK4absl12lts_2024072213cord_internal12CordRepBtree6IsFlatEmmPNS0_11string_viewE.cold.9, symObjAddr: 0x7784, symBinAddr: 0x661A8, symSize: 0x28 }
  - { offset: 0xEF486, size: 0x8, addend: 0x0, symName: __ZNK4absl12lts_2024072213cord_internal12CordRepBtree6IsFlatEmmPNS0_11string_viewE.cold.5, symObjAddr: 0x76EC, symBinAddr: 0x66158, symSize: 0x28 }
  - { offset: 0xEF4B4, size: 0x8, addend: 0x0, symName: __ZNK4absl12lts_2024072213cord_internal12CordRepBtree6IsFlatEmmPNS0_11string_viewE.cold.8, symObjAddr: 0x775C, symBinAddr: 0x66180, symSize: 0x28 }
  - { offset: 0xEF6D0, size: 0x8, addend: 0x0, symName: __ZNK4absl12lts_2024072213cord_internal12CordRepBtree12GetCharacterEm, symObjAddr: 0x46E8, symBinAddr: 0x20804, symSize: 0xF8 }
  - { offset: 0xEF93B, size: 0x8, addend: 0x0, symName: __ZN4absl12lts_2024072213cord_internal12CordRepBtree19GetAppendBufferSlowEm, symObjAddr: 0x47E0, symBinAddr: 0x208FC, symSize: 0x198 }
  - { offset: 0xEF99A, size: 0x8, addend: 0x0, symName: __ZNK4absl12lts_2024072213cord_internal12CordRepBtree12GetCharacterEm.cold.1, symObjAddr: 0x78CC, symBinAddr: 0x661F8, symSize: 0x28 }
  - { offset: 0xEFA07, size: 0x8, addend: 0x0, symName: __ZNK4absl12lts_2024072213cord_internal12CordRepBtree12GetCharacterEm.cold.5, symObjAddr: 0x7964, symBinAddr: 0x66220, symSize: 0x28 }
  - { offset: 0xEFA4B, size: 0x8, addend: 0x0, symName: __ZN4absl12lts_2024072213cord_internal12CordRepBtree19GetAppendBufferSlowEm, symObjAddr: 0x47E0, symBinAddr: 0x208FC, symSize: 0x198 }
  - { offset: 0xEFDFC, size: 0x8, addend: 0x0, symName: __ZN4absl12lts_2024072213cord_internal12CordRepBtree19GetAppendBufferSlowEm.cold.4, symObjAddr: 0x7A8C, symBinAddr: 0x66270, symSize: 0x28 }
  - { offset: 0xEFE14, size: 0x8, addend: 0x0, symName: __ZN4absl12lts_2024072213cord_internal12CordRepBtree19GetAppendBufferSlowEm.cold.1, symObjAddr: 0x7A1C, symBinAddr: 0x66248, symSize: 0x28 }
  - { offset: 0xEFE91, size: 0x8, addend: 0x0, symName: __ZN4absl12lts_2024072213cord_internal12CordRepBtree6AppendEPS2_NS0_11string_viewEm, symObjAddr: 0x4A74, symBinAddr: 0x20B90, symSize: 0x4 }
  - { offset: 0xEFED3, size: 0x8, addend: 0x0, symName: __ZN4absl12lts_2024072213cord_internal12CordRepBtree6AppendEPS2_NS0_11string_viewEm, symObjAddr: 0x4A74, symBinAddr: 0x20B90, symSize: 0x4 }
  - { offset: 0xEFEFB, size: 0x8, addend: 0x0, symName: __ZN4absl12lts_2024072213cord_internal12CordRepBtree7PrependEPS2_NS0_11string_viewEm, symObjAddr: 0x4A78, symBinAddr: 0x20B94, symSize: 0x4 }
  - { offset: 0xEFF3D, size: 0x8, addend: 0x0, symName: __ZN4absl12lts_2024072213cord_internal12CordRepBtree7PrependEPS2_NS0_11string_viewEm, symObjAddr: 0x4A78, symBinAddr: 0x20B94, symSize: 0x4 }
  - { offset: 0xEFFE3, size: 0x8, addend: 0x0, symName: __ZN4absl12lts_2024072213cord_internal12CordRepBtree7RebuildEPPS2_S3_b, symObjAddr: 0x4A7C, symBinAddr: 0x20B98, symSize: 0x400 }
  - { offset: 0xF0DC0, size: 0x8, addend: 0x0, symName: __ZN4absl12lts_2024072213cord_internal12CordRepBtree7RebuildEPPS2_S3_b.cold.3, symObjAddr: 0x7AFC, symBinAddr: 0x66298, symSize: 0x24 }
  - { offset: 0xF0E23, size: 0x8, addend: 0x0, symName: __ZN4absl12lts_2024072213cord_internal12CordRepBtree7RebuildEPS2_, symObjAddr: 0x4E7C, symBinAddr: 0x20F98, symSize: 0xD8 }
  - { offset: 0xF10DC, size: 0x8, addend: 0x0, symName: __ZN4absl12lts_2024072213cord_internal12CordRepBtree7RebuildEPS2_.cold.1, symObjAddr: 0x7B68, symBinAddr: 0x662BC, symSize: 0x28 }
  - { offset: 0xF110A, size: 0x8, addend: 0x0, symName: __ZN4absl12lts_2024072213cord_internal12CordRepBtree19ExtractAppendBufferEPS2_m, symObjAddr: 0x4F54, symBinAddr: 0x21070, symSize: 0x220 }
  - { offset: 0xF1B46, size: 0x8, addend: 0x0, symName: __ZN4absl12lts_2024072213cord_internal12_GLOBAL__N_115CreateSubstringEPNS1_7CordRepEmm.cold.6, symObjAddr: 0x7D54, symBinAddr: 0x6635C, symSize: 0x28 }
  - { offset: 0xF1B5E, size: 0x8, addend: 0x0, symName: __ZN4absl12lts_2024072213cord_internal12_GLOBAL__N_115CreateSubstringEPNS1_7CordRepEmm.cold.5, symObjAddr: 0x7D2C, symBinAddr: 0x66334, symSize: 0x28 }
  - { offset: 0xF1B76, size: 0x8, addend: 0x0, symName: __ZN4absl12lts_2024072213cord_internal12_GLOBAL__N_115CreateSubstringEPNS1_7CordRepEmm.cold.4, symObjAddr: 0x7D04, symBinAddr: 0x6630C, symSize: 0x28 }
  - { offset: 0xF1BA2, size: 0x8, addend: 0x0, symName: __ZN4absl12lts_2024072213cord_internal12_GLOBAL__N_115CreateSubstringEPNS1_7CordRepEmm.cold.1, symObjAddr: 0x7C94, symBinAddr: 0x662E4, symSize: 0x28 }
  - { offset: 0xF1FCF, size: 0x8, addend: 0x0, symName: __ZN4absl12lts_2024072213cord_internal12_GLOBAL__N_115StackOperationsILNS1_12CordRepBtree8EdgeTypeE1EE8FinalizeEPS4_NS4_8OpResultE.cold.4, symObjAddr: 0x7DE8, symBinAddr: 0x66384, symSize: 0x78 }
  - { offset: 0xF205F, size: 0x8, addend: 0x0, symName: __ZN4absl12lts_2024072213cord_internal12_GLOBAL__N_115StackOperationsILNS1_12CordRepBtree8EdgeTypeE1EE8FinalizeEPS4_NS4_8OpResultE.cold.5, symObjAddr: 0x7E60, symBinAddr: 0x663FC, symSize: 0x28 }
  - { offset: 0xF24B7, size: 0x8, addend: 0x0, symName: _OUTLINED_FUNCTION_4, symObjAddr: 0x8164, symBinAddr: 0x21BB8, symSize: 0x8 }
  - { offset: 0xF24CF, size: 0x8, addend: 0x0, symName: _OUTLINED_FUNCTION_8, symObjAddr: 0x8184, symBinAddr: 0x21BC0, symSize: 0x8 }
  - { offset: 0xF24E7, size: 0x8, addend: 0x0, symName: _OUTLINED_FUNCTION_9, symObjAddr: 0x818C, symBinAddr: 0x21BC8, symSize: 0x8 }
  - { offset: 0xF24FF, size: 0x8, addend: 0x0, symName: _OUTLINED_FUNCTION_10, symObjAddr: 0x8194, symBinAddr: 0x21BD0, symSize: 0x8 }
  - { offset: 0xF2517, size: 0x8, addend: 0x0, symName: _OUTLINED_FUNCTION_12, symObjAddr: 0x81A4, symBinAddr: 0x21BD8, symSize: 0x18 }
  - { offset: 0xF252F, size: 0x8, addend: 0x0, symName: _OUTLINED_FUNCTION_13, symObjAddr: 0x81BC, symBinAddr: 0x21BF0, symSize: 0x8 }
  - { offset: 0xF2547, size: 0x8, addend: 0x0, symName: _OUTLINED_FUNCTION_14, symObjAddr: 0x81C4, symBinAddr: 0x21BF8, symSize: 0x8 }
  - { offset: 0xF255F, size: 0x8, addend: 0x0, symName: _OUTLINED_FUNCTION_15, symObjAddr: 0x81CC, symBinAddr: 0x21C00, symSize: 0x8 }
  - { offset: 0xF2577, size: 0x8, addend: 0x0, symName: _OUTLINED_FUNCTION_16, symObjAddr: 0x81D4, symBinAddr: 0x21C08, symSize: 0xC }
  - { offset: 0xF258F, size: 0x8, addend: 0x0, symName: _OUTLINED_FUNCTION_17, symObjAddr: 0x81E0, symBinAddr: 0x21C14, symSize: 0xC }
  - { offset: 0xF25A7, size: 0x8, addend: 0x0, symName: _OUTLINED_FUNCTION_18, symObjAddr: 0x81EC, symBinAddr: 0x21C20, symSize: 0xC }
  - { offset: 0xF25BF, size: 0x8, addend: 0x0, symName: _OUTLINED_FUNCTION_19, symObjAddr: 0x81F8, symBinAddr: 0x21C2C, symSize: 0x8 }
  - { offset: 0xF4488, size: 0x8, addend: 0x0, symName: __ZN4absl12lts_2024072213cord_internal21CordRepBtreeNavigator4SkipEm, symObjAddr: 0x0, symBinAddr: 0x21C34, symSize: 0x18C }
  - { offset: 0xF5139, size: 0x8, addend: 0x0, symName: __ZN4absl12lts_2024072213cord_internal12_GLOBAL__N_19SubstringEPNS1_7CordRepEmm, symObjAddr: 0x550, symBinAddr: 0x22184, symSize: 0x104 }
  - { offset: 0xF5600, size: 0x8, addend: 0x0, symName: __ZN4absl12lts_2024072213cord_internal21CordRepBtreeNavigator4SkipEm, symObjAddr: 0x0, symBinAddr: 0x21C34, symSize: 0x18C }
  - { offset: 0xF57FA, size: 0x8, addend: 0x0, symName: __ZN4absl12lts_2024072213cord_internal21CordRepBtreeNavigator4ReadEmm, symObjAddr: 0x18C, symBinAddr: 0x21DC0, symSize: 0x3C4 }
  - { offset: 0xF5805, size: 0x8, addend: 0x0, symName: __ZN4absl12lts_2024072213cord_internal21CordRepBtreeNavigator4SkipEm.cold.5, symObjAddr: 0x6E8, symBinAddr: 0x6644C, symSize: 0x28 }
  - { offset: 0xF586D, size: 0x8, addend: 0x0, symName: __ZN4absl12lts_2024072213cord_internal21CordRepBtreeNavigator4SkipEm.cold.3, symObjAddr: 0x69C, symBinAddr: 0x66424, symSize: 0x28 }
  - { offset: 0xF5BD3, size: 0x8, addend: 0x0, symName: __ZN4absl12lts_2024072213cord_internal21CordRepBtreeNavigator4ReadEmm, symObjAddr: 0x18C, symBinAddr: 0x21DC0, symSize: 0x3C4 }
  - { offset: 0xF6828, size: 0x8, addend: 0x0, symName: __ZN4absl12lts_2024072213cord_internal21CordRepBtreeNavigator4ReadEmm.cold.2, symObjAddr: 0x77C, symBinAddr: 0x66474, symSize: 0x28 }
  - { offset: 0xF6868, size: 0x8, addend: 0x0, symName: __ZN4absl12lts_2024072213cord_internal21CordRepBtreeNavigator4ReadEmm.cold.3, symObjAddr: 0x7A4, symBinAddr: 0x6649C, symSize: 0x28 }
  - { offset: 0xF6900, size: 0x8, addend: 0x0, symName: __ZN4absl12lts_2024072213cord_internal12_GLOBAL__N_19SubstringEPNS1_7CordRepEmm.cold.5, symObjAddr: 0x96C, symBinAddr: 0x66564, symSize: 0x28 }
  - { offset: 0xF6918, size: 0x8, addend: 0x0, symName: __ZN4absl12lts_2024072213cord_internal12_GLOBAL__N_19SubstringEPNS1_7CordRepEmm.cold.1, symObjAddr: 0x8CC, symBinAddr: 0x664C4, symSize: 0x28 }
  - { offset: 0xF6930, size: 0x8, addend: 0x0, symName: __ZN4absl12lts_2024072213cord_internal12_GLOBAL__N_19SubstringEPNS1_7CordRepEmm.cold.4, symObjAddr: 0x944, symBinAddr: 0x6653C, symSize: 0x28 }
  - { offset: 0xF6948, size: 0x8, addend: 0x0, symName: __ZN4absl12lts_2024072213cord_internal12_GLOBAL__N_19SubstringEPNS1_7CordRepEmm.cold.2, symObjAddr: 0x8F4, symBinAddr: 0x664EC, symSize: 0x28 }
  - { offset: 0xF6960, size: 0x8, addend: 0x0, symName: __ZN4absl12lts_2024072213cord_internal12_GLOBAL__N_19SubstringEPNS1_7CordRepEmm.cold.3, symObjAddr: 0x91C, symBinAddr: 0x66514, symSize: 0x28 }
  - { offset: 0xF8803, size: 0x8, addend: 0x0, symName: __ZN4absl12lts_2024072213cord_internal18CordRepBtreeReader4ReadEmmRPNS1_7CordRepE, symObjAddr: 0x0, symBinAddr: 0x22288, symSize: 0x20C }
  - { offset: 0xF986F, size: 0x8, addend: 0x0, symName: __ZN4absl12lts_2024072213cord_internal18CordRepBtreeReader4ReadEmmRPNS1_7CordRepE, symObjAddr: 0x0, symBinAddr: 0x22288, symSize: 0x20C }
  - { offset: 0xF9E86, size: 0x8, addend: 0x0, symName: __ZN4absl12lts_2024072213cord_internal18CordRepBtreeReader4ReadEmmRPNS1_7CordRepE.cold.11, symObjAddr: 0x534, symBinAddr: 0x665B4, symSize: 0x28 }
  - { offset: 0xF9E9E, size: 0x8, addend: 0x0, symName: __ZN4absl12lts_2024072213cord_internal18CordRepBtreeReader4ReadEmmRPNS1_7CordRepE.cold.10, symObjAddr: 0x50C, symBinAddr: 0x6658C, symSize: 0x28 }
  - { offset: 0xFBFFE, size: 0x8, addend: 0x0, symName: __ZN4absl12lts_2024072213cord_internal7ConsumeEPNS1_7CordRepENS0_11FunctionRefIFvS3_mmEEE, symObjAddr: 0x0, symBinAddr: 0x22494, symSize: 0xDC }
  - { offset: 0xFCC6C, size: 0x8, addend: 0x0, symName: __ZN4absl12lts_2024072213cord_internal7ConsumeEPNS1_7CordRepENS0_11FunctionRefIFvS3_mmEEE, symObjAddr: 0x0, symBinAddr: 0x22494, symSize: 0xDC }
  - { offset: 0xFCE66, size: 0x8, addend: 0x0, symName: __ZN4absl12lts_2024072213cord_internal14ReverseConsumeEPNS1_7CordRepENS0_11FunctionRefIFvS3_mmEEE, symObjAddr: 0xDC, symBinAddr: 0x22570, symSize: 0x4 }
  - { offset: 0xFCE9B, size: 0x8, addend: 0x0, symName: __ZN4absl12lts_2024072213cord_internal14ReverseConsumeEPNS1_7CordRepENS0_11FunctionRefIFvS3_mmEEE, symObjAddr: 0xDC, symBinAddr: 0x22570, symSize: 0x4 }
  - { offset: 0xFD07E, size: 0x8, addend: 0x0, symName: __ZN4absl12lts_2024072213cord_internal7ConsumeEPNS1_7CordRepENS0_11FunctionRefIFvS3_mmEEE.cold.2, symObjAddr: 0x108, symBinAddr: 0x665DC, symSize: 0x28 }
  - { offset: 0xFEFA0, size: 0x8, addend: 0x0, symName: __ZN4absl12lts_2024072213cord_internal10CordRepCrc3NewEPNS1_7CordRepENS0_12crc_internal12CrcCordStateE, symObjAddr: 0x0, symBinAddr: 0x22574, symSize: 0x148 }
  - { offset: 0x100D78, size: 0x8, addend: 0x0, symName: __ZN4absl12lts_2024072213cord_internal10CordRepCrc3NewEPNS1_7CordRepENS0_12crc_internal12CrcCordStateE, symObjAddr: 0x0, symBinAddr: 0x22574, symSize: 0x148 }
  - { offset: 0x101213, size: 0x8, addend: 0x0, symName: __ZN4absl12lts_2024072213cord_internal10CordRepCrc7DestroyEPS2_, symObjAddr: 0x148, symBinAddr: 0x226BC, symSize: 0x68 }
  - { offset: 0x1031E1, size: 0x8, addend: 0x0, symName: __ZN4absl12lts_2024072213cord_internal23get_cordz_mean_intervalEv, symObjAddr: 0x0, symBinAddr: 0x22724, symSize: 0x10 }
  - { offset: 0x10320B, size: 0x8, addend: 0x0, symName: __ZN4absl12lts_2024072213cord_internal12_GLOBAL__N_121g_cordz_mean_intervalE.0, symObjAddr: 0x20, symBinAddr: 0x86A68, symSize: 0x0 }
  - { offset: 0x103219, size: 0x8, addend: 0x0, symName: __ZN4absl12lts_2024072213cord_internal23get_cordz_mean_intervalEv, symObjAddr: 0x0, symBinAddr: 0x22724, symSize: 0x10 }
  - { offset: 0x10323A, size: 0x8, addend: 0x0, symName: __ZN4absl12lts_2024072213cord_internal23get_cordz_mean_intervalEv, symObjAddr: 0x0, symBinAddr: 0x22724, symSize: 0x10 }
  - { offset: 0x103254, size: 0x8, addend: 0x0, symName: __ZN4absl12lts_2024072213cord_internal23get_cordz_mean_intervalEv, symObjAddr: 0x0, symBinAddr: 0x22724, symSize: 0x10 }
  - { offset: 0x10326E, size: 0x8, addend: 0x0, symName: __ZN4absl12lts_2024072213cord_internal23set_cordz_mean_intervalEi, symObjAddr: 0x10, symBinAddr: 0x22734, symSize: 0x10 }
  - { offset: 0x103298, size: 0x8, addend: 0x0, symName: __ZN4absl12lts_2024072213cord_internal23set_cordz_mean_intervalEi, symObjAddr: 0x10, symBinAddr: 0x22734, symSize: 0x10 }
  - { offset: 0x1032B9, size: 0x8, addend: 0x0, symName: __ZN4absl12lts_2024072213cord_internal23set_cordz_mean_intervalEi, symObjAddr: 0x10, symBinAddr: 0x22734, symSize: 0x10 }
  - { offset: 0x105E50, size: 0x8, addend: 0x0, symName: __ZN4absl12lts_2024072213cord_internal12_GLOBAL__N_111GlobalQueueEv, symObjAddr: 0x74, symBinAddr: 0x227B8, symSize: 0x28 }
  - { offset: 0x105E7B, size: 0x8, addend: 0x0, symName: __MergedGlobals, symObjAddr: 0x37240, symBinAddr: 0x86CC8, symSize: 0x0 }
  - { offset: 0x1096E0, size: 0x8, addend: 0x0, symName: __ZN4absl12lts_2024072213cord_internal12_GLOBAL__N_111GlobalQueueEv.cold.1, symObjAddr: 0x834, symBinAddr: 0x66604, symSize: 0x40 }
  - { offset: 0x10A8AD, size: 0x8, addend: 0x0, symName: __ZN4absl12lts_2024072213cord_internal11CordzHandleC2Eb, symObjAddr: 0x0, symBinAddr: 0x22744, symSize: 0x74 }
  - { offset: 0x10AA21, size: 0x8, addend: 0x0, symName: __ZN4absl12lts_2024072213cord_internal12_GLOBAL__N_111GlobalQueueEv.cold.1, symObjAddr: 0x834, symBinAddr: 0x66604, symSize: 0x40 }
  - { offset: 0x10AB92, size: 0x8, addend: 0x0, symName: __ZN4absl12lts_2024072213cord_internal11CordzHandleC1Eb, symObjAddr: 0x9C, symBinAddr: 0x227E0, symSize: 0x4 }
  - { offset: 0x10ABD1, size: 0x8, addend: 0x0, symName: __ZN4absl12lts_2024072213cord_internal11CordzHandleC1Eb, symObjAddr: 0x9C, symBinAddr: 0x227E0, symSize: 0x4 }
  - { offset: 0x10AFFB, size: 0x8, addend: 0x0, symName: __ZN4absl12lts_2024072213cord_internal11CordzHandleD2Ev, symObjAddr: 0xA0, symBinAddr: 0x227E4, symSize: 0x1C4 }
  - { offset: 0x10B66B, size: 0x8, addend: 0x0, symName: __ZNKSt3__16vectorIPN4absl12lts_2024072213cord_internal11CordzHandleENS_9allocatorIS5_EEE20__throw_length_errorB8ne190102Ev, symObjAddr: 0x708, symBinAddr: 0x22E3C, symSize: 0x14 }
  - { offset: 0x10B69F, size: 0x8, addend: 0x0, symName: __ZN4absl12lts_2024072213cord_internal11CordzHandleD1Ev, symObjAddr: 0x274, symBinAddr: 0x229A8, symSize: 0x4 }
  - { offset: 0x10B6C1, size: 0x8, addend: 0x0, symName: __ZN4absl12lts_2024072213cord_internal11CordzHandleD1Ev, symObjAddr: 0x274, symBinAddr: 0x229A8, symSize: 0x4 }
  - { offset: 0x10B6F0, size: 0x8, addend: 0x0, symName: __ZN4absl12lts_2024072213cord_internal11CordzHandleD0Ev, symObjAddr: 0x278, symBinAddr: 0x229AC, symSize: 0x14 }
  - { offset: 0x10B762, size: 0x8, addend: 0x0, symName: __ZNK4absl12lts_2024072213cord_internal11CordzHandle12SafeToDeleteEv, symObjAddr: 0x28C, symBinAddr: 0x229C0, symSize: 0x38 }
  - { offset: 0x10B806, size: 0x8, addend: 0x0, symName: __ZN4absl12lts_2024072213cord_internal11CordzHandle6DeleteEPS2_, symObjAddr: 0x2C4, symBinAddr: 0x229F8, symSize: 0xA0 }
  - { offset: 0x10BA22, size: 0x8, addend: 0x0, symName: __ZN4absl12lts_2024072213cord_internal11CordzHandle6DeleteEPS2_.cold.1, symObjAddr: 0x874, symBinAddr: 0x66644, symSize: 0x28 }
  - { offset: 0x10BE17, size: 0x8, addend: 0x0, symName: __ZN4absl12lts_2024072213cord_internal11CordzHandle25DiagnosticsGetDeleteQueueEv, symObjAddr: 0x364, symBinAddr: 0x22A98, symSize: 0x150 }
  - { offset: 0x10C3FC, size: 0x8, addend: 0x0, symName: __ZNK4absl12lts_2024072213cord_internal11CordzHandle32DiagnosticsHandleIsSafeToInspectEPKS2_, symObjAddr: 0x4B4, symBinAddr: 0x22BE8, symSize: 0xF4 }
  - { offset: 0x10C606, size: 0x8, addend: 0x0, symName: __ZN4absl12lts_2024072213cord_internal11CordzHandle41DiagnosticsGetSafeToInspectDeletedHandlesEv, symObjAddr: 0x5A8, symBinAddr: 0x22CDC, symSize: 0x160 }
  - { offset: 0x10ECCE, size: 0x8, addend: 0x0, symName: __ZN4absl12lts_2024072213cord_internal9CordzInfo14kMaxStackDepthE, symObjAddr: 0x1380, symBinAddr: 0x6F148, symSize: 0x0 }
  - { offset: 0x10F1DE, size: 0x8, addend: 0x0, symName: __ZN4absl12lts_2024072213cord_internal9CordzInfo12global_list_E, symObjAddr: 0x13B8, symBinAddr: 0x86A70, symSize: 0x0 }
  - { offset: 0x110A43, size: 0x8, addend: 0x0, symName: __ZN4absl12lts_2024072213cord_internal9CordzInfo4HeadERKNS1_13CordzSnapshotE, symObjAddr: 0x0, symBinAddr: 0x22E50, symSize: 0x44 }
  - { offset: 0x110B3F, size: 0x8, addend: 0x0, symName: __ZNK4absl12lts_2024072213cord_internal9CordzInfo4NextERKNS1_13CordzSnapshotE, symObjAddr: 0x44, symBinAddr: 0x22E94, symSize: 0x5C }
  - { offset: 0x110B9C, size: 0x8, addend: 0x0, symName: __ZN4absl12lts_2024072213cord_internal9CordzInfo4HeadERKNS1_13CordzSnapshotE.cold.1, symObjAddr: 0xDFC, symBinAddr: 0x6666C, symSize: 0x28 }
  - { offset: 0x110BC9, size: 0x8, addend: 0x0, symName: __ZN4absl12lts_2024072213cord_internal9CordzInfo4HeadERKNS1_13CordzSnapshotE.cold.2, symObjAddr: 0xE24, symBinAddr: 0x66694, symSize: 0x28 }
  - { offset: 0x110BF6, size: 0x8, addend: 0x0, symName: __ZNK4absl12lts_2024072213cord_internal9CordzInfo4NextERKNS1_13CordzSnapshotE, symObjAddr: 0x44, symBinAddr: 0x22E94, symSize: 0x5C }
  - { offset: 0x110D37, size: 0x8, addend: 0x0, symName: __ZN4absl12lts_2024072213cord_internal9CordzInfo9TrackCordERNS1_10InlineDataENS1_18CordzUpdateTracker16MethodIdentifierEx, symObjAddr: 0xA0, symBinAddr: 0x22EF0, symSize: 0x94 }
  - { offset: 0x110DBD, size: 0x8, addend: 0x0, symName: __ZNK4absl12lts_2024072213cord_internal9CordzInfo4NextERKNS1_13CordzSnapshotE.cold.1, symObjAddr: 0xE4C, symBinAddr: 0x666BC, symSize: 0x28 }
  - { offset: 0x110DEA, size: 0x8, addend: 0x0, symName: __ZNK4absl12lts_2024072213cord_internal9CordzInfo4NextERKNS1_13CordzSnapshotE.cold.2, symObjAddr: 0xE74, symBinAddr: 0x666E4, symSize: 0x28 }
  - { offset: 0x110E17, size: 0x8, addend: 0x0, symName: __ZNK4absl12lts_2024072213cord_internal9CordzInfo4NextERKNS1_13CordzSnapshotE.cold.3, symObjAddr: 0xE9C, symBinAddr: 0x6670C, symSize: 0x28 }
  - { offset: 0x110F79, size: 0x8, addend: 0x0, symName: __ZN4absl12lts_2024072213cord_internal9CordzInfo9TrackCordERNS1_10InlineDataENS1_18CordzUpdateTracker16MethodIdentifierEx, symObjAddr: 0xA0, symBinAddr: 0x22EF0, symSize: 0x94 }
  - { offset: 0x11118B, size: 0x8, addend: 0x0, symName: __ZN4absl12lts_2024072213cord_internal9CordzInfoC2EPNS1_7CordRepEPKS2_NS1_18CordzUpdateTracker16MethodIdentifierEx, symObjAddr: 0x5E8, symBinAddr: 0x2340C, symSize: 0x17C }
  - { offset: 0x111699, size: 0x8, addend: 0x0, symName: __ZN4absl12lts_2024072213cord_internal9CordzInfo5TrackEv, symObjAddr: 0x138, symBinAddr: 0x22F88, symSize: 0xAC }
  - { offset: 0x111A28, size: 0x8, addend: 0x0, symName: __ZN4absl12lts_2024072213cord_internal9CordzInfo9TrackCordERNS1_10InlineDataENS1_18CordzUpdateTracker16MethodIdentifierEx.cold.3, symObjAddr: 0xF14, symBinAddr: 0x66784, symSize: 0x28 }
  - { offset: 0x111A40, size: 0x8, addend: 0x0, symName: __ZN4absl12lts_2024072213cord_internal9CordzInfo9TrackCordERNS1_10InlineDataENS1_18CordzUpdateTracker16MethodIdentifierEx.cold.1, symObjAddr: 0xEC4, symBinAddr: 0x66734, symSize: 0x28 }
  - { offset: 0x111A58, size: 0x8, addend: 0x0, symName: __ZN4absl12lts_2024072213cord_internal9CordzInfo9TrackCordERNS1_10InlineDataENS1_18CordzUpdateTracker16MethodIdentifierEx.cold.2, symObjAddr: 0xEEC, symBinAddr: 0x6675C, symSize: 0x28 }
  - { offset: 0x111A86, size: 0x8, addend: 0x0, symName: __ZN4absl12lts_2024072213cord_internal9CordzInfoC1EPNS1_7CordRepEPKS2_NS1_18CordzUpdateTracker16MethodIdentifierEx, symObjAddr: 0x134, symBinAddr: 0x22F84, symSize: 0x4 }
  - { offset: 0x111AC4, size: 0x8, addend: 0x0, symName: __ZN4absl12lts_2024072213cord_internal9CordzInfoC1EPNS1_7CordRepEPKS2_NS1_18CordzUpdateTracker16MethodIdentifierEx, symObjAddr: 0x134, symBinAddr: 0x22F84, symSize: 0x4 }
  - { offset: 0x111D1A, size: 0x8, addend: 0x0, symName: __ZN4absl12lts_2024072213cord_internal9CordzInfo9TrackCordERNS1_10InlineDataERKS3_NS1_18CordzUpdateTracker16MethodIdentifierE, symObjAddr: 0x1E4, symBinAddr: 0x23034, symSize: 0xEC }
  - { offset: 0x112042, size: 0x8, addend: 0x0, symName: __ZN4absl12lts_2024072213cord_internal9CordzInfo7UntrackEv, symObjAddr: 0x2FC, symBinAddr: 0x23120, symSize: 0x1FC }
  - { offset: 0x11204D, size: 0x8, addend: 0x0, symName: __ZN4absl12lts_2024072213cord_internal9CordzInfo7UntrackEv, symObjAddr: 0x2FC, symBinAddr: 0x23120, symSize: 0x1FC }
  - { offset: 0x1126FE, size: 0x8, addend: 0x0, symName: __ZN4absl12lts_2024072213cord_internal9CordzInfo9TrackCordERNS1_10InlineDataERKS3_NS1_18CordzUpdateTracker16MethodIdentifierE.cold.3, symObjAddr: 0xF8C, symBinAddr: 0x667D4, symSize: 0x28 }
  - { offset: 0x112716, size: 0x8, addend: 0x0, symName: __ZN4absl12lts_2024072213cord_internal9CordzInfo9TrackCordERNS1_10InlineDataERKS3_NS1_18CordzUpdateTracker16MethodIdentifierE.cold.2, symObjAddr: 0xF64, symBinAddr: 0x667AC, symSize: 0x28 }
  - { offset: 0x112928, size: 0x8, addend: 0x0, symName: __ZNK4absl12lts_2024072213cord_internal9CordzInfo8ODRCheckEv, symObjAddr: 0x86C, symBinAddr: 0x23630, symSize: 0x24 }
  - { offset: 0x11296A, size: 0x8, addend: 0x0, symName: __ZN4absl12lts_2024072213cord_internal9CordzInfo4LockENS1_18CordzUpdateTracker16MethodIdentifierE, symObjAddr: 0x890, symBinAddr: 0x23654, symSize: 0x44 }
  - { offset: 0x112975, size: 0x8, addend: 0x0, symName: __ZN4absl12lts_2024072213base_internal14SpinLockHolderD1Ev, symObjAddr: 0x824, symBinAddr: 0x235E8, symSize: 0x48 }
  - { offset: 0x112A70, size: 0x8, addend: 0x0, symName: __ZN4absl12lts_2024072213cord_internal9CordzInfo18MaybeTrackCordImplERNS1_10InlineDataERKS3_NS1_18CordzUpdateTracker16MethodIdentifierE, symObjAddr: 0x4F8, symBinAddr: 0x2331C, symSize: 0x7C }
  - { offset: 0x112C52, size: 0x8, addend: 0x0, symName: __ZN4absl12lts_2024072213cord_internal9CordzInfo15GetParentMethodEPKS2_, symObjAddr: 0x574, symBinAddr: 0x23398, symSize: 0x1C }
  - { offset: 0x112C72, size: 0x8, addend: 0x0, symName: __ZN4absl12lts_2024072213cord_internal9CordzInfo18MaybeTrackCordImplERNS1_10InlineDataERKS3_NS1_18CordzUpdateTracker16MethodIdentifierE.cold.2, symObjAddr: 0x102C, symBinAddr: 0x66824, symSize: 0x28 }
  - { offset: 0x112CA0, size: 0x8, addend: 0x0, symName: __ZN4absl12lts_2024072213cord_internal9CordzInfo18MaybeTrackCordImplERNS1_10InlineDataERKS3_NS1_18CordzUpdateTracker16MethodIdentifierE.cold.1, symObjAddr: 0x1004, symBinAddr: 0x667FC, symSize: 0x28 }
  - { offset: 0x112CCE, size: 0x8, addend: 0x0, symName: __ZN4absl12lts_2024072213cord_internal9CordzInfo15GetParentMethodEPKS2_, symObjAddr: 0x574, symBinAddr: 0x23398, symSize: 0x1C }
  - { offset: 0x112CEB, size: 0x8, addend: 0x0, symName: __ZN4absl12lts_2024072213cord_internal9CordzInfo15FillParentStackEPKS2_PPv, symObjAddr: 0x590, symBinAddr: 0x233B4, symSize: 0x58 }
  - { offset: 0x112D14, size: 0x8, addend: 0x0, symName: __ZN4absl12lts_2024072213cord_internal9CordzInfoC2EPNS1_7CordRepEPKS2_NS1_18CordzUpdateTracker16MethodIdentifierEx, symObjAddr: 0x5E8, symBinAddr: 0x2340C, symSize: 0x17C }
  - { offset: 0x112D1F, size: 0x8, addend: 0x0, symName: __ZN4absl12lts_2024072213cord_internal9CordzInfo15FillParentStackEPKS2_PPv.cold.1, symObjAddr: 0x107C, symBinAddr: 0x6684C, symSize: 0x28 }
  - { offset: 0x1130E9, size: 0x8, addend: 0x0, symName: __ZN4absl12lts_2024072213cord_internal9CordzInfoD2Ev, symObjAddr: 0x764, symBinAddr: 0x23588, symSize: 0x48 }
  - { offset: 0x113202, size: 0x8, addend: 0x0, symName: __ZN4absl12lts_2024072213cord_internal9CordzInfoD1Ev, symObjAddr: 0x80C, symBinAddr: 0x235D0, symSize: 0x4 }
  - { offset: 0x113224, size: 0x8, addend: 0x0, symName: __ZN4absl12lts_2024072213cord_internal9CordzInfoD1Ev, symObjAddr: 0x80C, symBinAddr: 0x235D0, symSize: 0x4 }
  - { offset: 0x113254, size: 0x8, addend: 0x0, symName: __ZN4absl12lts_2024072213cord_internal9CordzInfoD0Ev, symObjAddr: 0x810, symBinAddr: 0x235D4, symSize: 0x14 }
  - { offset: 0x1132B2, size: 0x8, addend: 0x0, symName: __ZNK4absl12lts_2024072213cord_internal9CordzInfo8ODRCheckEv.cold.1, symObjAddr: 0x10F4, symBinAddr: 0x66874, symSize: 0x5C }
  - { offset: 0x1132CA, size: 0x8, addend: 0x0, symName: __ZN4absl12lts_2024072213cord_internal9CordzInfo4LockENS1_18CordzUpdateTracker16MethodIdentifierE, symObjAddr: 0x890, symBinAddr: 0x23654, symSize: 0x44 }
  - { offset: 0x1133CF, size: 0x8, addend: 0x0, symName: __ZN4absl12lts_2024072213cord_internal9CordzInfo6UnlockEv, symObjAddr: 0x8D4, symBinAddr: 0x23698, symSize: 0x3C }
  - { offset: 0x1133DA, size: 0x8, addend: 0x0, symName: __ZN4absl12lts_2024072213cord_internal9CordzInfo4LockENS1_18CordzUpdateTracker16MethodIdentifierE.cold.1, symObjAddr: 0x1150, symBinAddr: 0x668D0, symSize: 0x28 }
  - { offset: 0x1133F2, size: 0x8, addend: 0x0, symName: __ZN4absl12lts_2024072213cord_internal9CordzInfo6UnlockEv, symObjAddr: 0x8D4, symBinAddr: 0x23698, symSize: 0x3C }
  - { offset: 0x113435, size: 0x8, addend: 0x0, symName: __ZNK4absl12lts_2024072213cord_internal9CordzInfo8GetStackEv, symObjAddr: 0x910, symBinAddr: 0x236D4, symSize: 0xC }
  - { offset: 0x11345F, size: 0x8, addend: 0x0, symName: __ZNK4absl12lts_2024072213cord_internal9CordzInfo14GetParentStackEv, symObjAddr: 0x91C, symBinAddr: 0x236E0, symSize: 0xC }
  - { offset: 0x113727, size: 0x8, addend: 0x0, symName: __ZNK4absl12lts_2024072213cord_internal9CordzInfo18GetCordzStatisticsEv, symObjAddr: 0x928, symBinAddr: 0x236EC, symSize: 0x1F0 }
  - { offset: 0x113C9E, size: 0x8, addend: 0x0, symName: __ZNK4absl12lts_2024072213cord_internal9CordzInfo18GetCordzStatisticsEv.cold.1, symObjAddr: 0x1178, symBinAddr: 0x668F8, symSize: 0x24 }
  - { offset: 0x113CF6, size: 0x8, addend: 0x0, symName: __ZN4absl12lts_2024072213cord_internal12_GLOBAL__N_115CordRepAnalyzer15CountLinearRepsENS3_6RepRefERNS3_11MemoryUsageE, symObjAddr: 0xB18, symBinAddr: 0x238DC, symSize: 0x1B4 }
  - { offset: 0x113EC0, size: 0x8, addend: 0x0, symName: __ZN4absl12lts_2024072213cord_internal12_GLOBAL__N_115CordRepAnalyzer12AnalyzeBtreeENS3_6RepRefE, symObjAddr: 0xCCC, symBinAddr: 0x23A90, symSize: 0x130 }
  - { offset: 0x113ECB, size: 0x8, addend: 0x0, symName: __ZNK4absl12lts_2024072213cord_internal9CordzInfo18GetCordzStatisticsEv.cold.3, symObjAddr: 0x11C0, symBinAddr: 0x6691C, symSize: 0x28 }
  - { offset: 0x113F0E, size: 0x8, addend: 0x0, symName: __ZN4absl12lts_2024072213cord_internal12_GLOBAL__N_115CordRepAnalyzer12AnalyzeBtreeENS3_6RepRefE, symObjAddr: 0xCCC, symBinAddr: 0x23A90, symSize: 0x130 }
  - { offset: 0x11420B, size: 0x8, addend: 0x0, symName: __ZN4absl12lts_2024072213cord_internal9CordzInfo4HeadERKNS1_13CordzSnapshotE.cold.1, symObjAddr: 0xDFC, symBinAddr: 0x6666C, symSize: 0x28 }
  - { offset: 0x11437F, size: 0x8, addend: 0x0, symName: __ZN4absl12lts_2024072213cord_internal12_GLOBAL__N_115CordRepAnalyzer12AnalyzeBtreeENS3_6RepRefE.cold.1, symObjAddr: 0x125C, symBinAddr: 0x66944, symSize: 0x28 }
  - { offset: 0x1143AC, size: 0x8, addend: 0x0, symName: _OUTLINED_FUNCTION_0, symObjAddr: 0x1284, symBinAddr: 0x23BC0, symSize: 0x8 }
  - { offset: 0x11625E, size: 0x8, addend: 0x0, symName: __ZN4absl12lts_2024072212crc_internal10GetCpuTypeEv, symObjAddr: 0x0, symBinAddr: 0x23BC8, symSize: 0x8 }
  - { offset: 0x11630D, size: 0x8, addend: 0x0, symName: __ZN4absl12lts_2024072212crc_internal10GetCpuTypeEv, symObjAddr: 0x0, symBinAddr: 0x23BC8, symSize: 0x8 }
  - { offset: 0x11632C, size: 0x8, addend: 0x0, symName: __ZN4absl12lts_2024072212crc_internal21SupportsArmCRC32PMULLEv, symObjAddr: 0x8, symBinAddr: 0x23BD0, symSize: 0x8 }
  - { offset: 0x118D72, size: 0x8, addend: 0x0, symName: __ZN4absl12lts_2024072212crc_internal7CRCImpl13FillWordTableEjjiPA256_j, symObjAddr: 0x0, symBinAddr: 0x23BD8, symSize: 0xB8 }
  - { offset: 0x1193AE, size: 0x8, addend: 0x0, symName: __ZN4absl12lts_2024072212crc_internal3CRC6Crc32cEv, symObjAddr: 0xAD0, symBinAddr: 0x246A8, symSize: 0x70 }
  - { offset: 0x1193D2, size: 0x8, addend: 0x0, symName: __ZZN4absl12lts_2024072212crc_internal3CRC6Crc32cEvE9singleton, symObjAddr: 0xC640, symBinAddr: 0x86CE0, symSize: 0x0 }
  - { offset: 0x11942A, size: 0x8, addend: 0x0, symName: __ZN4absl12lts_2024072212crc_internal7CRCImpl13FillWordTableEjjiPA256_j, symObjAddr: 0x0, symBinAddr: 0x23BD8, symSize: 0xB8 }
  - { offset: 0x119475, size: 0x8, addend: 0x0, symName: __ZN4absl12lts_2024072212crc_internal7CRCImpl13FillWordTableEjjiPA256_j, symObjAddr: 0x0, symBinAddr: 0x23BD8, symSize: 0xB8 }
  - { offset: 0x119508, size: 0x8, addend: 0x0, symName: __ZN4absl12lts_2024072212crc_internal7CRCImpl15FillZeroesTableEjPA256_j, symObjAddr: 0xB8, symBinAddr: 0x23C90, symSize: 0xD8 }
  - { offset: 0x11967C, size: 0x8, addend: 0x0, symName: __ZN4absl12lts_2024072212crc_internal7CRCImpl11NewInternalEv, symObjAddr: 0x190, symBinAddr: 0x23D68, symSize: 0x5C }
  - { offset: 0x119687, size: 0x8, addend: 0x0, symName: __ZN4absl12lts_2024072212crc_internal7CRCImpl15FillZeroesTableEjPA256_j.cold.1, symObjAddr: 0xB48, symBinAddr: 0x6696C, symSize: 0x5C }
  - { offset: 0x11970E, size: 0x8, addend: 0x0, symName: __ZN4absl12lts_2024072212crc_internal7CRCImpl11NewInternalEv, symObjAddr: 0x190, symBinAddr: 0x23D68, symSize: 0x5C }
  - { offset: 0x11978C, size: 0x8, addend: 0x0, symName: __ZN4absl12lts_2024072212crc_internal5CRC3210InitTablesEv, symObjAddr: 0x1EC, symBinAddr: 0x23DC4, symSize: 0x138 }
  - { offset: 0x11993A, size: 0x8, addend: 0x0, symName: __ZNK4absl12lts_2024072212crc_internal5CRC326ExtendEPjPKvm, symObjAddr: 0x324, symBinAddr: 0x23EFC, symSize: 0x600 }
  - { offset: 0x119945, size: 0x8, addend: 0x0, symName: __ZN4absl12lts_2024072212crc_internal5CRC3210InitTablesEv.cold.2, symObjAddr: 0xC00, symBinAddr: 0x66A24, symSize: 0x5C }
  - { offset: 0x11995D, size: 0x8, addend: 0x0, symName: __ZN4absl12lts_2024072212crc_internal5CRC3210InitTablesEv.cold.1, symObjAddr: 0xBA4, symBinAddr: 0x669C8, symSize: 0x5C }
  - { offset: 0x11997A, size: 0x8, addend: 0x0, symName: __ZNK4absl12lts_2024072212crc_internal5CRC326ExtendEPjPKvm, symObjAddr: 0x324, symBinAddr: 0x23EFC, symSize: 0x600 }
  - { offset: 0x11A4AF, size: 0x8, addend: 0x0, symName: __ZN4absl12lts_2024072212crc_internal5CRC3218ExtendByZeroesImplEPjmPKjS5_, symObjAddr: 0x924, symBinAddr: 0x244FC, symSize: 0xEC }
  - { offset: 0x11A5CC, size: 0x8, addend: 0x0, symName: __ZNK4absl12lts_2024072212crc_internal5CRC3214ExtendByZeroesEPjm, symObjAddr: 0xA10, symBinAddr: 0x245E8, symSize: 0x18 }
  - { offset: 0x11A632, size: 0x8, addend: 0x0, symName: __ZNK4absl12lts_2024072212crc_internal5CRC3216UnextendByZeroesEPjm, symObjAddr: 0xA28, symBinAddr: 0x24600, symSize: 0x54 }
  - { offset: 0x11A9EA, size: 0x8, addend: 0x0, symName: __ZNK4absl12lts_2024072212crc_internal5CRC328ScrambleEPj, symObjAddr: 0xA7C, symBinAddr: 0x24654, symSize: 0x1C }
  - { offset: 0x11AA55, size: 0x8, addend: 0x0, symName: __ZNK4absl12lts_2024072212crc_internal5CRC3210UnscrambleEPj, symObjAddr: 0xA98, symBinAddr: 0x24670, symSize: 0x1C }
  - { offset: 0x11AAD2, size: 0x8, addend: 0x0, symName: __ZN4absl12lts_2024072212crc_internal3CRCD2Ev, symObjAddr: 0xAB4, symBinAddr: 0x2468C, symSize: 0x4 }
  - { offset: 0x11AAFE, size: 0x8, addend: 0x0, symName: __ZN4absl12lts_2024072212crc_internal3CRCD1Ev, symObjAddr: 0xAB8, symBinAddr: 0x24690, symSize: 0x4 }
  - { offset: 0x11AB28, size: 0x8, addend: 0x0, symName: __ZN4absl12lts_2024072212crc_internal3CRCD0Ev, symObjAddr: 0xABC, symBinAddr: 0x24694, symSize: 0x4 }
  - { offset: 0x11AB52, size: 0x8, addend: 0x0, symName: __ZN4absl12lts_2024072212crc_internal3CRCC2Ev, symObjAddr: 0xAC0, symBinAddr: 0x24698, symSize: 0x10 }
  - { offset: 0x11AB7E, size: 0x8, addend: 0x0, symName: __ZN4absl12lts_2024072212crc_internal5CRC32D1Ev, symObjAddr: 0xB40, symBinAddr: 0x24718, symSize: 0x4 }
  - { offset: 0x11ABA7, size: 0x8, addend: 0x0, symName: __ZN4absl12lts_2024072212crc_internal5CRC32D0Ev, symObjAddr: 0xB44, symBinAddr: 0x2471C, symSize: 0x4 }
  - { offset: 0x11D614, size: 0x8, addend: 0x0, symName: __ZN4absl12lts_2024072212crc_internal22UnextendCrc32cByZeroesENS0_8crc32c_tEm, symObjAddr: 0x0, symBinAddr: 0x24720, symSize: 0x4C }
  - { offset: 0x11D63E, size: 0x8, addend: 0x0, symName: __ZN4absl12lts_2024072212_GLOBAL__N_19CrcEngineEv, symObjAddr: 0x4C, symBinAddr: 0x2476C, symSize: 0x70 }
  - { offset: 0x11D668, size: 0x8, addend: 0x0, symName: __ZZN4absl12lts_2024072212_GLOBAL__N_19CrcEngineEvE6engine, symObjAddr: 0x9F90, symBinAddr: 0x86CF0, symSize: 0x0 }
  - { offset: 0x11D76B, size: 0x8, addend: 0x0, symName: __ZN4absl12lts_2024072212crc_internal22UnextendCrc32cByZeroesENS0_8crc32c_tEm, symObjAddr: 0x0, symBinAddr: 0x24720, symSize: 0x4C }
  - { offset: 0x11D7DC, size: 0x8, addend: 0x0, symName: __ZN4absl12lts_2024072212crc_internal20ExtendCrc32cInternalENS0_8crc32c_tENS0_11string_viewE, symObjAddr: 0xBC, symBinAddr: 0x247DC, symSize: 0x54 }
  - { offset: 0x11D8E7, size: 0x8, addend: 0x0, symName: __ZN4absl12lts_2024072213ComputeCrc32cENS0_11string_viewE, symObjAddr: 0x110, symBinAddr: 0x24830, symSize: 0x54 }
  - { offset: 0x11D98E, size: 0x8, addend: 0x0, symName: __ZN4absl12lts_2024072220ExtendCrc32cByZeroesENS0_8crc32c_tEm, symObjAddr: 0x164, symBinAddr: 0x24884, symSize: 0x4C }
  - { offset: 0x11D9FF, size: 0x8, addend: 0x0, symName: __ZN4absl12lts_2024072212ConcatCrc32cENS0_8crc32c_tES1_m, symObjAddr: 0x1B0, symBinAddr: 0x248D0, symSize: 0x4C }
  - { offset: 0x11DA97, size: 0x8, addend: 0x0, symName: __ZN4absl12lts_2024072218RemoveCrc32cPrefixENS0_8crc32c_tES1_m, symObjAddr: 0x1FC, symBinAddr: 0x2491C, symSize: 0x4C }
  - { offset: 0x11DB34, size: 0x8, addend: 0x0, symName: __ZN4absl12lts_2024072212MemcpyCrc32cEPvPKvmNS0_8crc32c_tE, symObjAddr: 0x248, symBinAddr: 0x24968, symSize: 0xC }
  - { offset: 0x11DBF1, size: 0x8, addend: 0x0, symName: __ZN4absl12lts_2024072218RemoveCrc32cSuffixENS0_8crc32c_tES1_m, symObjAddr: 0x254, symBinAddr: 0x24974, symSize: 0x48 }
  - { offset: 0x11E858, size: 0x8, addend: 0x0, symName: __ZN4absl12lts_2024072212crc_internal9CrcMemcpy10CrcAndCopyEPvPKvmNS0_8crc32c_tEb, symObjAddr: 0x29C, symBinAddr: 0x249BC, symSize: 0xBC }
  - { offset: 0x11E878, size: 0x8, addend: 0x0, symName: __ZZN4absl12lts_2024072212crc_internal9CrcMemcpy10CrcAndCopyEPvPKvmNS0_8crc32c_tEbE7engines, symObjAddr: 0x378, symBinAddr: 0x86A80, symSize: 0x0 }
  - { offset: 0x123607, size: 0x8, addend: 0x0, symName: __ZN4absl12lts_2024072212crc_internal12CrcCordState17RefSharedEmptyRepEv, symObjAddr: 0x0, symBinAddr: 0x24A78, symSize: 0x7C }
  - { offset: 0x123629, size: 0x8, addend: 0x0, symName: __MergedGlobals, symObjAddr: 0x38E08, symBinAddr: 0x86D00, symSize: 0x0 }
  - { offset: 0x123848, size: 0x8, addend: 0x0, symName: __ZN4absl12lts_2024072212crc_internal12CrcCordState17RefSharedEmptyRepEv.cold.4, symObjAddr: 0x1BAC, symBinAddr: 0x66B28, symSize: 0x28 }
  - { offset: 0x123860, size: 0x8, addend: 0x0, symName: __ZN4absl12lts_2024072212crc_internal12CrcCordState17RefSharedEmptyRepEv.cold.2, symObjAddr: 0x1B5C, symBinAddr: 0x66AD8, symSize: 0x28 }
  - { offset: 0x123878, size: 0x8, addend: 0x0, symName: __ZN4absl12lts_2024072212crc_internal12CrcCordState17RefSharedEmptyRepEv.cold.3, symObjAddr: 0x1B84, symBinAddr: 0x66B00, symSize: 0x28 }
  - { offset: 0x123890, size: 0x8, addend: 0x0, symName: __ZN4absl12lts_2024072212crc_internal12CrcCordState17RefSharedEmptyRepEv.cold.1, symObjAddr: 0x1B04, symBinAddr: 0x66A80, symSize: 0x58 }
  - { offset: 0x123D10, size: 0x8, addend: 0x0, symName: __ZN4absl12lts_2024072212crc_internal12CrcCordStateC2Ev, symObjAddr: 0x7C, symBinAddr: 0x24AF4, symSize: 0x4C }
  - { offset: 0x123F78, size: 0x8, addend: 0x0, symName: __ZN4absl12lts_2024072212crc_internal12CrcCordStateC1Ev, symObjAddr: 0xC8, symBinAddr: 0x24B40, symSize: 0x4C }
  - { offset: 0x1241E6, size: 0x8, addend: 0x0, symName: __ZN4absl12lts_2024072212crc_internal12CrcCordStateC2ERKS2_, symObjAddr: 0x114, symBinAddr: 0x24B8C, symSize: 0x30 }
  - { offset: 0x124252, size: 0x8, addend: 0x0, symName: __ZN4absl12lts_2024072212crc_internal12CrcCordStateC1ERKS2_, symObjAddr: 0x144, symBinAddr: 0x24BBC, symSize: 0x30 }
  - { offset: 0x12425D, size: 0x8, addend: 0x0, symName: __ZN4absl12lts_2024072212crc_internal12CrcCordStateC2ERKS2_.cold.1, symObjAddr: 0x1BD4, symBinAddr: 0x66B50, symSize: 0x24 }
  - { offset: 0x1242B1, size: 0x8, addend: 0x0, symName: __ZN4absl12lts_2024072212crc_internal12CrcCordStateC1ERKS2_, symObjAddr: 0x144, symBinAddr: 0x24BBC, symSize: 0x30 }
  - { offset: 0x12434D, size: 0x8, addend: 0x0, symName: __ZN4absl12lts_2024072212crc_internal12CrcCordStateC2EOS2_, symObjAddr: 0x174, symBinAddr: 0x24BEC, symSize: 0x34 }
  - { offset: 0x124376, size: 0x8, addend: 0x0, symName: __ZN4absl12lts_2024072212crc_internal12CrcCordStateC2EOS2_, symObjAddr: 0x174, symBinAddr: 0x24BEC, symSize: 0x34 }
  - { offset: 0x1243D5, size: 0x8, addend: 0x0, symName: __ZN4absl12lts_2024072212crc_internal12CrcCordStateC1EOS2_, symObjAddr: 0x1A8, symBinAddr: 0x24C20, symSize: 0x34 }
  - { offset: 0x124441, size: 0x8, addend: 0x0, symName: __ZN4absl12lts_2024072212crc_internal12CrcCordStateaSERKS2_, symObjAddr: 0x1DC, symBinAddr: 0x24C54, symSize: 0x54 }
  - { offset: 0x124551, size: 0x8, addend: 0x0, symName: __ZN4absl12lts_2024072212crc_internal12CrcCordStateaSEOS2_, symObjAddr: 0x280, symBinAddr: 0x24CA8, symSize: 0x44 }
  - { offset: 0x1247EC, size: 0x8, addend: 0x0, symName: __ZN4absl12lts_2024072212crc_internal12CrcCordStateaSEOS2_, symObjAddr: 0x280, symBinAddr: 0x24CA8, symSize: 0x44 }
  - { offset: 0x12483E, size: 0x8, addend: 0x0, symName: __ZN4absl12lts_2024072212crc_internal12CrcCordStateD2Ev, symObjAddr: 0x2C4, symBinAddr: 0x24CEC, symSize: 0x2C }
  - { offset: 0x124889, size: 0x8, addend: 0x0, symName: __ZN4absl12lts_2024072212crc_internal12CrcCordStateD1Ev, symObjAddr: 0x300, symBinAddr: 0x24D18, symSize: 0x2C }
  - { offset: 0x124949, size: 0x8, addend: 0x0, symName: __ZNK4absl12lts_2024072212crc_internal12CrcCordState8ChecksumEv, symObjAddr: 0x32C, symBinAddr: 0x24D44, symSize: 0x78 }
  - { offset: 0x124974, size: 0x8, addend: 0x0, symName: __ZNK4absl12lts_2024072212crc_internal12CrcCordState8ChecksumEv, symObjAddr: 0x32C, symBinAddr: 0x24D44, symSize: 0x78 }
  - { offset: 0x124B1E, size: 0x8, addend: 0x0, symName: __ZNK4absl12lts_2024072212crc_internal12CrcCordState29NormalizedPrefixCrcAtNthChunkEm, symObjAddr: 0x3A4, symBinAddr: 0x24DBC, symSize: 0x78 }
  - { offset: 0x124C4F, size: 0x8, addend: 0x0, symName: __ZN4absl12lts_2024072212crc_internal12CrcCordState9NormalizeEv, symObjAddr: 0x41C, symBinAddr: 0x24E34, symSize: 0xC4 }
  - { offset: 0x124C5A, size: 0x8, addend: 0x0, symName: __ZNK4absl12lts_2024072212crc_internal12CrcCordState29NormalizedPrefixCrcAtNthChunkEm.cold.1, symObjAddr: 0x1C68, symBinAddr: 0x66B74, symSize: 0x28 }
  - { offset: 0x124CF8, size: 0x8, addend: 0x0, symName: __ZN4absl12lts_2024072212crc_internal12CrcCordState9NormalizeEv, symObjAddr: 0x41C, symBinAddr: 0x24E34, symSize: 0xC4 }
  - { offset: 0x124D32, size: 0x8, addend: 0x0, symName: __ZN4absl12lts_2024072212crc_internal12CrcCordState9NormalizeEv, symObjAddr: 0x41C, symBinAddr: 0x24E34, symSize: 0xC4 }
  - { offset: 0x124D4D, size: 0x8, addend: 0x0, symName: __ZN4absl12lts_2024072212crc_internal12CrcCordState9NormalizeEv, symObjAddr: 0x41C, symBinAddr: 0x24E34, symSize: 0xC4 }
  - { offset: 0x1250E9, size: 0x8, addend: 0x0, symName: __ZN4absl12lts_2024072212crc_internal12CrcCordState6PoisonEv, symObjAddr: 0x564, symBinAddr: 0x24EF8, symSize: 0xC4 }
  - { offset: 0x125306, size: 0x8, addend: 0x0, symName: __ZNSt3__15dequeIN4absl12lts_2024072212crc_internal12CrcCordState9PrefixCrcENS_9allocatorIS5_EEE12emplace_backIJiNS2_8crc32c_tEEEEvDpOT_, symObjAddr: 0x628, symBinAddr: 0x24FBC, symSize: 0x9C }
  - { offset: 0x1288AF, size: 0x8, addend: 0x0, symName: _OUTLINED_FUNCTION_0, symObjAddr: 0x1C90, symBinAddr: 0x25058, symSize: 0x8 }
  - { offset: 0x12A79D, size: 0x8, addend: 0x0, symName: __ZNK4absl12lts_2024072212crc_internal23FallbackCrcMemcpyEngine7ComputeEPvPKvmNS0_8crc32c_tE, symObjAddr: 0x0, symBinAddr: 0x25060, symSize: 0xC4 }
  - { offset: 0x12BDC9, size: 0x8, addend: 0x0, symName: __ZNK4absl12lts_2024072212crc_internal23FallbackCrcMemcpyEngine7ComputeEPvPKvmNS0_8crc32c_tE, symObjAddr: 0x0, symBinAddr: 0x25060, symSize: 0xC4 }
  - { offset: 0x12BF5D, size: 0x8, addend: 0x0, symName: __ZN4absl12lts_2024072212crc_internal9CrcMemcpy22GetArchSpecificEnginesEv, symObjAddr: 0xC4, symBinAddr: 0x25124, symSize: 0x44 }
  - { offset: 0x12C074, size: 0x8, addend: 0x0, symName: __ZN4absl12lts_2024072212crc_internal9CrcMemcpy22GetArchSpecificEnginesEv, symObjAddr: 0xC4, symBinAddr: 0x25124, symSize: 0x44 }
  - { offset: 0x12C249, size: 0x8, addend: 0x0, symName: __ZN4absl12lts_2024072212crc_internal9CrcMemcpy13GetTestEngineEii, symObjAddr: 0x108, symBinAddr: 0x25168, symSize: 0x34 }
  - { offset: 0x12C350, size: 0x8, addend: 0x0, symName: __ZN4absl12lts_2024072212crc_internal23FallbackCrcMemcpyEngineD1Ev, symObjAddr: 0x13C, symBinAddr: 0x2519C, symSize: 0x4 }
  - { offset: 0x12C37B, size: 0x8, addend: 0x0, symName: __ZN4absl12lts_2024072212crc_internal23FallbackCrcMemcpyEngineD0Ev, symObjAddr: 0x140, symBinAddr: 0x251A0, symSize: 0x4 }
  - { offset: 0x12E273, size: 0x8, addend: 0x0, symName: __ZNK4absl12lts_2024072212crc_internal26CrcNonTemporalMemcpyEngine7ComputeEPvPKvmNS0_8crc32c_tE, symObjAddr: 0x0, symBinAddr: 0x251A4, symSize: 0x214 }
  - { offset: 0x12F276, size: 0x8, addend: 0x0, symName: __ZNK4absl12lts_2024072212crc_internal26CrcNonTemporalMemcpyEngine7ComputeEPvPKvmNS0_8crc32c_tE, symObjAddr: 0x0, symBinAddr: 0x251A4, symSize: 0x214 }
  - { offset: 0x12F774, size: 0x8, addend: 0x0, symName: __ZNK4absl12lts_2024072212crc_internal29CrcNonTemporalMemcpyAVXEngine7ComputeEPvPKvmNS0_8crc32c_tE, symObjAddr: 0x214, symBinAddr: 0x253B8, symSize: 0xC4 }
  - { offset: 0x12F7C7, size: 0x8, addend: 0x0, symName: __ZNK4absl12lts_2024072212crc_internal29CrcNonTemporalMemcpyAVXEngine7ComputeEPvPKvmNS0_8crc32c_tE, symObjAddr: 0x214, symBinAddr: 0x253B8, symSize: 0xC4 }
  - { offset: 0x12F9B7, size: 0x8, addend: 0x0, symName: __ZN4absl12lts_2024072212crc_internal26CrcNonTemporalMemcpyEngineD1Ev, symObjAddr: 0x2D8, symBinAddr: 0x2547C, symSize: 0x4 }
  - { offset: 0x12F9F5, size: 0x8, addend: 0x0, symName: __ZN4absl12lts_2024072212crc_internal26CrcNonTemporalMemcpyEngineD1Ev, symObjAddr: 0x2D8, symBinAddr: 0x2547C, symSize: 0x4 }
  - { offset: 0x12FA20, size: 0x8, addend: 0x0, symName: __ZN4absl12lts_2024072212crc_internal26CrcNonTemporalMemcpyEngineD0Ev, symObjAddr: 0x2DC, symBinAddr: 0x25480, symSize: 0x4 }
  - { offset: 0x12FA4B, size: 0x8, addend: 0x0, symName: __ZN4absl12lts_2024072212crc_internal29CrcNonTemporalMemcpyAVXEngineD1Ev, symObjAddr: 0x2E0, symBinAddr: 0x25484, symSize: 0x4 }
  - { offset: 0x12FA76, size: 0x8, addend: 0x0, symName: __ZN4absl12lts_2024072212crc_internal29CrcNonTemporalMemcpyAVXEngineD0Ev, symObjAddr: 0x2E4, symBinAddr: 0x25488, symSize: 0x4 }
  - { offset: 0x13196A, size: 0x8, addend: 0x0, symName: __ZN4absl12lts_2024072212crc_internal36NewCRC32AcceleratedX86ARMCombinedAllEv, symObjAddr: 0x0, symBinAddr: 0x2548C, symSize: 0xC }
  - { offset: 0x1336D1, size: 0x8, addend: 0x0, symName: __ZN4absl12lts_2024072212crc_internal36NewCRC32AcceleratedX86ARMCombinedAllEv, symObjAddr: 0x0, symBinAddr: 0x2548C, symSize: 0xC }
  - { offset: 0x1336F3, size: 0x8, addend: 0x0, symName: __ZN4absl12lts_2024072212crc_internal36NewCRC32AcceleratedX86ARMCombinedAllEv, symObjAddr: 0x0, symBinAddr: 0x2548C, symSize: 0xC }
  - { offset: 0x13370F, size: 0x8, addend: 0x0, symName: __ZN4absl12lts_2024072212crc_internal36NewCRC32AcceleratedX86ARMCombinedAllEv, symObjAddr: 0x0, symBinAddr: 0x2548C, symSize: 0xC }
  - { offset: 0x13372B, size: 0x8, addend: 0x0, symName: __ZN4absl12lts_2024072212crc_internal36TryNewCRC32AcceleratedX86ARMCombinedEv, symObjAddr: 0xC, symBinAddr: 0x25498, symSize: 0x8 }
  - { offset: 0x135868, size: 0x8, addend: 0x0, symName: __ZN4absl12lts_2024072224synchronization_internal25OneTimeInitThreadIdentityEPNS0_13base_internal14ThreadIdentityE, symObjAddr: 0x0, symBinAddr: 0x254A0, symSize: 0x2C }
  - { offset: 0x135891, size: 0x8, addend: 0x0, symName: __ZN4absl12lts_2024072224synchronization_internalL13freelist_lockE, symObjAddr: 0x1E2F0, symBinAddr: 0x86D58, symSize: 0x0 }
  - { offset: 0x1358AB, size: 0x8, addend: 0x0, symName: __ZN4absl12lts_2024072224synchronization_internalL24thread_identity_freelistE, symObjAddr: 0x1E2E8, symBinAddr: 0x86D50, symSize: 0x0 }
  - { offset: 0x13596A, size: 0x8, addend: 0x0, symName: __ZN4absl12lts_2024072224synchronization_internal25OneTimeInitThreadIdentityEPNS0_13base_internal14ThreadIdentityE, symObjAddr: 0x0, symBinAddr: 0x254A0, symSize: 0x2C }
  - { offset: 0x135B56, size: 0x8, addend: 0x0, symName: __ZN4absl12lts_2024072224synchronization_internal20CreateThreadIdentityEv, symObjAddr: 0x2C, symBinAddr: 0x254CC, symSize: 0x120 }
  - { offset: 0x136052, size: 0x8, addend: 0x0, symName: __ZN4absl12lts_2024072224synchronization_internalL21ReclaimThreadIdentityEPv, symObjAddr: 0x14C, symBinAddr: 0x255EC, symSize: 0xB8 }
  - { offset: 0x139394, size: 0x8, addend: 0x0, symName: __ZN4absl12lts_2024072213base_internal10CycleClock3NowEv, symObjAddr: 0x0, symBinAddr: 0x256A4, symSize: 0x4 }
  - { offset: 0x139F1B, size: 0x8, addend: 0x0, symName: __ZN4absl12lts_2024072213base_internal10CycleClock3NowEv, symObjAddr: 0x0, symBinAddr: 0x256A4, symSize: 0x4 }
  - { offset: 0x139F31, size: 0x8, addend: 0x0, symName: __ZN4absl12lts_2024072213base_internal10CycleClock9FrequencyEv, symObjAddr: 0x4, symBinAddr: 0x256A8, symSize: 0xC }
  - { offset: 0x13BE36, size: 0x8, addend: 0x0, symName: __ZN4absl12lts_2024072216strings_internal32CappedDamerauLevenshteinDistanceENS0_11string_viewES2_h, symObjAddr: 0x0, symBinAddr: 0x256B4, symSize: 0x350 }
  - { offset: 0x13D2FB, size: 0x8, addend: 0x0, symName: __ZN4absl12lts_2024072216strings_internal32CappedDamerauLevenshteinDistanceENS0_11string_viewES2_h, symObjAddr: 0x0, symBinAddr: 0x256B4, symSize: 0x350 }
  - { offset: 0x13D62A, size: 0x8, addend: 0x0, symName: __ZN4absl12lts_2024072216strings_internal32CappedDamerauLevenshteinDistanceENS0_11string_viewES2_h.cold.1, symObjAddr: 0x350, symBinAddr: 0x66B9C, symSize: 0x24 }
  - { offset: 0x13D790, size: 0x8, addend: 0x0, symName: __ZN4absl12lts_2024072216strings_internal32CappedDamerauLevenshteinDistanceENS0_11string_viewES2_h.cold.1, symObjAddr: 0x350, symBinAddr: 0x66B9C, symSize: 0x24 }
  - { offset: 0x13D7D3, size: 0x8, addend: 0x0, symName: _OUTLINED_FUNCTION_0, symObjAddr: 0x3BC, symBinAddr: 0x25A04, symSize: 0x8 }
  - { offset: 0x13F6B6, size: 0x8, addend: 0x0, symName: __ZN4absl12lts_2024072218debugging_internal18DecodeRustPunycodeENS1_25DecodeRustPunycodeOptionsE, symObjAddr: 0x0, symBinAddr: 0x25A0C, symSize: 0x2F4 }
  - { offset: 0x13F8CF, size: 0x8, addend: 0x0, symName: __ZN4absl12lts_2024072218debugging_internal18DecodeRustPunycodeENS1_25DecodeRustPunycodeOptionsE, symObjAddr: 0x0, symBinAddr: 0x25A0C, symSize: 0x2F4 }
  - { offset: 0x13FD03, size: 0x8, addend: 0x0, symName: __ZN4absl12lts_2024072218debugging_internal25BoundedUtf8LengthSequenceILj256EE32InsertAndReturnSumOfPredecessorsEjj, symObjAddr: 0x2F4, symBinAddr: 0x25D00, symSize: 0x108 }
  - { offset: 0x1429B8, size: 0x8, addend: 0x0, symName: __ZN4absl12lts_2024072218debugging_internal8DemangleEPKcPcm, symObjAddr: 0x0, symBinAddr: 0x25E08, symSize: 0x13C }
  - { offset: 0x1429F4, size: 0x8, addend: 0x0, symName: __ZN4absl12lts_2024072218debugging_internalL16kBuiltinTypeListE, symObjAddr: 0x4FA0, symBinAddr: 0x84B30, symSize: 0x0 }
  - { offset: 0x142A44, size: 0x8, addend: 0x0, symName: __ZN4absl12lts_2024072218debugging_internalL13kOperatorListE, symObjAddr: 0x52A0, symBinAddr: 0x84E30, symSize: 0x0 }
  - { offset: 0x142A5E, size: 0x8, addend: 0x0, symName: __ZN4absl12lts_2024072218debugging_internalL17kSubstitutionListE, symObjAddr: 0x5798, symBinAddr: 0x85328, symSize: 0x0 }
  - { offset: 0x142CB2, size: 0x8, addend: 0x0, symName: __ZN4absl12lts_2024072218debugging_internal8DemangleEPKcPcm, symObjAddr: 0x0, symBinAddr: 0x25E08, symSize: 0x13C }
  - { offset: 0x142ECA, size: 0x8, addend: 0x0, symName: __ZN4absl12lts_2024072218debugging_internalL16ParseMangledNameEPNS1_5StateE, symObjAddr: 0x1DC, symBinAddr: 0x25FE4, symSize: 0x80 }
  - { offset: 0x142FD4, size: 0x8, addend: 0x0, symName: __ZN4absl12lts_2024072218debugging_internalL11MaybeAppendEPNS1_5StateEPKc, symObjAddr: 0x25C, symBinAddr: 0x26064, symSize: 0x38 }
  - { offset: 0x143076, size: 0x8, addend: 0x0, symName: __ZN4absl12lts_2024072218debugging_internal14DemangleStringEPKc, symObjAddr: 0x13C, symBinAddr: 0x25F44, symSize: 0xA0 }
  - { offset: 0x1432A8, size: 0x8, addend: 0x0, symName: __ZN4absl12lts_2024072218debugging_internalL17ParseTwoCharTokenEPNS1_5StateEPKc, symObjAddr: 0x294, symBinAddr: 0x2609C, symSize: 0x78 }
  - { offset: 0x14338A, size: 0x8, addend: 0x0, symName: __ZN4absl12lts_2024072218debugging_internalL13ParseEncodingEPNS1_5StateE, symObjAddr: 0x30C, symBinAddr: 0x26114, symSize: 0x4A8 }
  - { offset: 0x1439E1, size: 0x8, addend: 0x0, symName: __ZN4absl12lts_2024072218debugging_internalL21MaybeAppendWithLengthEPNS1_5StateEPKcm, symObjAddr: 0x15F4, symBinAddr: 0x273FC, symSize: 0xD4 }
  - { offset: 0x143B1B, size: 0x8, addend: 0x0, symName: __ZN4absl12lts_2024072218debugging_internalL9ParseNameEPNS1_5StateE, symObjAddr: 0x7B4, symBinAddr: 0x265BC, symSize: 0x36C }
  - { offset: 0x14408E, size: 0x8, addend: 0x0, symName: __ZN4absl12lts_2024072218debugging_internalL21ParseBareFunctionTypeEPNS1_5StateE, symObjAddr: 0xB20, symBinAddr: 0x26928, symSize: 0x17C }
  - { offset: 0x14430B, size: 0x8, addend: 0x0, symName: __ZN4absl12lts_2024072218debugging_internalL24ParseQRequiresClauseExprEPNS1_5StateE, symObjAddr: 0xC9C, symBinAddr: 0x26AA4, symSize: 0xC8 }
  - { offset: 0x144476, size: 0x8, addend: 0x0, symName: __ZN4absl12lts_2024072218debugging_internalL17ParseOneCharTokenEPNS1_5StateEc, symObjAddr: 0x10AC, symBinAddr: 0x26EB4, symSize: 0x60 }
  - { offset: 0x144559, size: 0x8, addend: 0x0, symName: __ZN4absl12lts_2024072218debugging_internalL14ParseCharClassEPNS1_5StateEPKc, symObjAddr: 0x1720, symBinAddr: 0x27528, symSize: 0x78 }
  - { offset: 0x14464B, size: 0x8, addend: 0x0, symName: __ZN4absl12lts_2024072218debugging_internalL9ParseTypeEPNS1_5StateE, symObjAddr: 0x2654, symBinAddr: 0x2845C, symSize: 0x6BC }
  - { offset: 0x145131, size: 0x8, addend: 0x0, symName: __ZN4absl12lts_2024072218debugging_internalL15ParseCallOffsetEPNS1_5StateE, symObjAddr: 0x454C, symBinAddr: 0x2A354, symSize: 0x17C }
  - { offset: 0x1453D3, size: 0x8, addend: 0x0, symName: __ZN4absl12lts_2024072218debugging_internalL11ParseNumberEPNS1_5StateEPi, symObjAddr: 0x1528, symBinAddr: 0x27330, symSize: 0xCC }
  - { offset: 0x1454FE, size: 0x8, addend: 0x0, symName: __ZN4absl12lts_2024072218debugging_internalL10ParseSeqIdEPNS1_5StateE, symObjAddr: 0x41A4, symBinAddr: 0x29FAC, symSize: 0x98 }
  - { offset: 0x145600, size: 0x8, addend: 0x0, symName: __ZN4absl12lts_2024072218debugging_internalL19ParseThreeCharTokenEPNS1_5StateEPKc, symObjAddr: 0x25CC, symBinAddr: 0x283D4, symSize: 0x88 }
  - { offset: 0x1456E2, size: 0x8, addend: 0x0, symName: __ZN4absl12lts_2024072218debugging_internalL16ParseTemplateArgEPNS1_5StateE, symObjAddr: 0x3464, symBinAddr: 0x2926C, symSize: 0x158 }
  - { offset: 0x145A19, size: 0x8, addend: 0x0, symName: __ZN4absl12lts_2024072218debugging_internalL17ParseCVQualifiersEPNS1_5StateE, symObjAddr: 0x110C, symBinAddr: 0x26F14, symSize: 0x158 }
  - { offset: 0x145C8F, size: 0x8, addend: 0x0, symName: __ZN4absl12lts_2024072218debugging_internalL11ParsePrefixEPNS1_5StateE, symObjAddr: 0x1264, symBinAddr: 0x2706C, symSize: 0x160 }
  - { offset: 0x145EB3, size: 0x8, addend: 0x0, symName: __ZN4absl12lts_2024072218debugging_internalL18ParseDiscriminatorEPNS1_5StateE, symObjAddr: 0x3F0C, symBinAddr: 0x29D14, symSize: 0xBC }
  - { offset: 0x146019, size: 0x8, addend: 0x0, symName: __ZN4absl12lts_2024072218debugging_internalL18MaybeAppendDecimalEPNS1_5StateEi, symObjAddr: 0x3C68, symBinAddr: 0x29A70, symSize: 0xAC }
  - { offset: 0x1460A1, size: 0x8, addend: 0x0, symName: __ZN4absl12lts_2024072218debugging_internalL17ParseSubstitutionEPNS1_5StateEb, symObjAddr: 0xD64, symBinAddr: 0x26B6C, symSize: 0x170 }
  - { offset: 0x146259, size: 0x8, addend: 0x0, symName: __ZN4absl12lts_2024072218debugging_internalL17ParseTemplateArgsEPNS1_5StateE, symObjAddr: 0xED4, symBinAddr: 0x26CDC, symSize: 0x110 }
  - { offset: 0x14642F, size: 0x8, addend: 0x0, symName: __ZN4absl12lts_2024072218debugging_internalL17ParseUnscopedNameEPNS1_5StateE, symObjAddr: 0xFE4, symBinAddr: 0x26DEC, symSize: 0xC8 }
  - { offset: 0x146605, size: 0x8, addend: 0x0, symName: __ZN4absl12lts_2024072218debugging_internalL15ParseExpressionEPNS1_5StateE, symObjAddr: 0x1C2C, symBinAddr: 0x27A34, symSize: 0x868 }
  - { offset: 0x1471A9, size: 0x8, addend: 0x0, symName: __ZN4absl12lts_2024072218debugging_internalL20ParseUnqualifiedNameEPNS1_5StateE, symObjAddr: 0x423C, symBinAddr: 0x2A044, symSize: 0x310 }
  - { offset: 0x147699, size: 0x8, addend: 0x0, symName: __ZN4absl12lts_2024072218debugging_internalL15ParseSourceNameEPNS1_5StateE, symObjAddr: 0x13C4, symBinAddr: 0x271CC, symSize: 0x164 }
  - { offset: 0x14791E, size: 0x8, addend: 0x0, symName: __ZN4absl12lts_2024072218debugging_internalL18ParseTemplateParamEPNS1_5StateE, symObjAddr: 0x1798, symBinAddr: 0x275A0, symSize: 0x13C }
  - { offset: 0x147AE7, size: 0x8, addend: 0x0, symName: __ZN4absl12lts_2024072218debugging_internalL13ParseDecltypeEPNS1_5StateE, symObjAddr: 0x18D4, symBinAddr: 0x276DC, symSize: 0xC8 }
  - { offset: 0x147C33, size: 0x8, addend: 0x0, symName: __ZN4absl12lts_2024072218debugging_internalL23ParseVendorExtendedTypeEPNS1_5StateE, symObjAddr: 0x199C, symBinAddr: 0x277A4, symSize: 0xAC }
  - { offset: 0x147D65, size: 0x8, addend: 0x0, symName: __ZN4absl12lts_2024072218debugging_internalL20ParseUnnamedTypeNameEPNS1_5StateE, symObjAddr: 0x1A48, symBinAddr: 0x27850, symSize: 0x1E4 }
  - { offset: 0x148105, size: 0x8, addend: 0x0, symName: __ZN4absl12lts_2024072218debugging_internalL6AppendEPNS1_5StateEPKcm, symObjAddr: 0x16C8, symBinAddr: 0x274D0, symSize: 0x58 }
  - { offset: 0x14814D, size: 0x8, addend: 0x0, symName: __ZN4absl12lts_2024072218debugging_internalL6AppendEPNS1_5StateEPKcm, symObjAddr: 0x16C8, symBinAddr: 0x274D0, symSize: 0x58 }
  - { offset: 0x14816C, size: 0x8, addend: 0x0, symName: __ZN4absl12lts_2024072218debugging_internalL22ParseTemplateParamDeclEPNS1_5StateE, symObjAddr: 0x3DB0, symBinAddr: 0x29BB8, symSize: 0x15C }
  - { offset: 0x14838F, size: 0x8, addend: 0x0, symName: __ZN4absl12lts_2024072218debugging_internalL16ParseExprPrimaryEPNS1_5StateE, symObjAddr: 0x2494, symBinAddr: 0x2829C, symSize: 0x138 }
  - { offset: 0x148576, size: 0x8, addend: 0x0, symName: __ZN4absl12lts_2024072218debugging_internalL18ParseFunctionParamEPNS1_5StateE, symObjAddr: 0x2D10, symBinAddr: 0x28B18, symSize: 0x128 }
  - { offset: 0x148763, size: 0x8, addend: 0x0, symName: __ZN4absl12lts_2024072218debugging_internalL21ParseBracedExpressionEPNS1_5StateE, symObjAddr: 0x2E38, symBinAddr: 0x28C40, symSize: 0x12C }
  - { offset: 0x14892F, size: 0x8, addend: 0x0, symName: __ZN4absl12lts_2024072218debugging_internalL16ParseInitializerEPNS1_5StateE, symObjAddr: 0x2F64, symBinAddr: 0x28D6C, symSize: 0xF4 }
  - { offset: 0x148ACD, size: 0x8, addend: 0x0, symName: __ZN4absl12lts_2024072218debugging_internalL17ParseOperatorNameEPNS1_5StateEPi, symObjAddr: 0x3058, symBinAddr: 0x28E60, symSize: 0x40C }
  - { offset: 0x148F44, size: 0x8, addend: 0x0, symName: __ZN4absl12lts_2024072218debugging_internalL19ParseUnresolvedNameEPNS1_5StateE, symObjAddr: 0x35BC, symBinAddr: 0x293C4, symSize: 0x258 }
  - { offset: 0x149356, size: 0x8, addend: 0x0, symName: __ZN4absl12lts_2024072218debugging_internalL16ParseRequirementEPNS1_5StateE, symObjAddr: 0x3814, symBinAddr: 0x2961C, symSize: 0x114 }
  - { offset: 0x149535, size: 0x8, addend: 0x0, symName: __ZN4absl12lts_2024072218debugging_internalL30ParseExprCastValueAndTrailingEEPNS1_5StateE, symObjAddr: 0x3928, symBinAddr: 0x29730, symSize: 0xE8 }
  - { offset: 0x149806, size: 0x8, addend: 0x0, symName: __ZN4absl12lts_2024072218debugging_internalL18ParseClassEnumTypeEPNS1_5StateE, symObjAddr: 0x3AA8, symBinAddr: 0x298B0, symSize: 0xC0 }
  - { offset: 0x149946, size: 0x8, addend: 0x0, symName: __ZN4absl12lts_2024072218debugging_internalL26ParseTemplateTemplateParamEPNS1_5StateE, symObjAddr: 0x3B68, symBinAddr: 0x29970, symSize: 0x74 }
  - { offset: 0x149A2B, size: 0x8, addend: 0x0, symName: __ZN4absl12lts_2024072218debugging_internalL14ParseLongTokenEPNS1_5StateEPKc, symObjAddr: 0x3BDC, symBinAddr: 0x299E4, symSize: 0x8C }
  - { offset: 0x149BA1, size: 0x8, addend: 0x0, symName: __ZN4absl12lts_2024072218debugging_internalL20ParseLocalSourceNameEPNS1_5StateE, symObjAddr: 0x3D14, symBinAddr: 0x29B1C, symSize: 0x9C }
  - { offset: 0x149CC7, size: 0x8, addend: 0x0, symName: __ZN4absl12lts_2024072218debugging_internalL23ParseBaseUnresolvedNameEPNS1_5StateE, symObjAddr: 0x3FC8, symBinAddr: 0x29DD0, symSize: 0x120 }
  - { offset: 0x149EDA, size: 0x8, addend: 0x0, symName: __ZN4absl12lts_2024072218debugging_internalL29ParseUnresolvedQualifierLevelEPNS1_5StateE, symObjAddr: 0x40E8, symBinAddr: 0x29EF0, symSize: 0xBC }
  - { offset: 0x14A03D, size: 0x8, addend: 0x0, symName: __ZN4absl12lts_2024072218debugging_internalL16ParseFloatNumberEPNS1_5StateE, symObjAddr: 0x3A10, symBinAddr: 0x29818, symSize: 0x98 }
  - { offset: 0x14E69E, size: 0x8, addend: 0x0, symName: __ZN4absl12lts_2024072218debugging_internal26DemangleRustSymbolEncodingEPKcPcm, symObjAddr: 0x0, symBinAddr: 0x2A4D0, symSize: 0x11CC }
  - { offset: 0x14EB52, size: 0x8, addend: 0x0, symName: __ZN4absl12lts_2024072218debugging_internal26DemangleRustSymbolEncodingEPKcPcm, symObjAddr: 0x0, symBinAddr: 0x2A4D0, symSize: 0x11CC }
  - { offset: 0x150ACA, size: 0x8, addend: 0x0, symName: __ZN4absl12lts_2024072218debugging_internal12_GLOBAL__N_116RustSymbolParser12BeginBackrefEv, symObjAddr: 0x1768, symBinAddr: 0x2BC38, symSize: 0x88 }
  - { offset: 0x150B4A, size: 0x8, addend: 0x0, symName: __ZN4absl12lts_2024072218debugging_internal12_GLOBAL__N_116RustSymbolParser17ParseBase62NumberERi, symObjAddr: 0x17F0, symBinAddr: 0x2BCC0, symSize: 0xF0 }
  - { offset: 0x150C87, size: 0x8, addend: 0x0, symName: __ZN4absl12lts_2024072218debugging_internal12_GLOBAL__N_116RustSymbolParser15ParseIdentifierEc, symObjAddr: 0x11CC, symBinAddr: 0x2B69C, symSize: 0x54 }
  - { offset: 0x150CF6, size: 0x8, addend: 0x0, symName: __ZN4absl12lts_2024072218debugging_internal12_GLOBAL__N_116RustSymbolParser18ParseDisambiguatorERi, symObjAddr: 0x129C, symBinAddr: 0x2B76C, symSize: 0x78 }
  - { offset: 0x150D75, size: 0x8, addend: 0x0, symName: __ZN4absl12lts_2024072218debugging_internal12_GLOBAL__N_116RustSymbolParser19ParseOptionalBinderEv, symObjAddr: 0x1314, symBinAddr: 0x2B7E4, symSize: 0x44 }
  - { offset: 0x150DAE, size: 0x8, addend: 0x0, symName: __ZN4absl12lts_2024072218debugging_internal12_GLOBAL__N_116RustSymbolParser19ParseOptionalBinderEv, symObjAddr: 0x1314, symBinAddr: 0x2B7E4, symSize: 0x44 }
  - { offset: 0x150DE4, size: 0x8, addend: 0x0, symName: __ZN4absl12lts_2024072218debugging_internal12_GLOBAL__N_116RustSymbolParser21ParseRequiredLifetimeEv, symObjAddr: 0x1724, symBinAddr: 0x2BBF4, symSize: 0x44 }
  - { offset: 0x150E0D, size: 0x8, addend: 0x0, symName: __ZN4absl12lts_2024072218debugging_internal12_GLOBAL__N_116RustSymbolParser21ParseRequiredLifetimeEv, symObjAddr: 0x1724, symBinAddr: 0x2BBF4, symSize: 0x44 }
  - { offset: 0x150E88, size: 0x8, addend: 0x0, symName: __ZN4absl12lts_2024072218debugging_internal12_GLOBAL__N_116RustSymbolParser30ParseUndisambiguatedIdentifierEci, symObjAddr: 0x1358, symBinAddr: 0x2B828, symSize: 0x3CC }
  - { offset: 0x151207, size: 0x8, addend: 0x0, symName: __ZN4absl12lts_2024072218debugging_internal12_GLOBAL__N_116RustSymbolParser4EmitEPKc, symObjAddr: 0x1220, symBinAddr: 0x2B6F0, symSize: 0x7C }
  - { offset: 0x1531A2, size: 0x8, addend: 0x0, symName: __ZN4absl12lts_2024072215random_internal24InitDiscreteDistributionEPNSt3__16vectorIdNS2_9allocatorIdEEEE, symObjAddr: 0x0, symBinAddr: 0x2BDB0, symSize: 0x638 }
  - { offset: 0x157327, size: 0x8, addend: 0x0, symName: __ZN4absl12lts_2024072215random_internal24InitDiscreteDistributionEPNSt3__16vectorIdNS2_9allocatorIdEEEE.cold.1, symObjAddr: 0x7F4, symBinAddr: 0x66BC0, symSize: 0x28 }
  - { offset: 0x159099, size: 0x8, addend: 0x0, symName: __ZN4absl12lts_2024072215random_internal24InitDiscreteDistributionEPNSt3__16vectorIdNS2_9allocatorIdEEEE, symObjAddr: 0x0, symBinAddr: 0x2BDB0, symSize: 0x638 }
  - { offset: 0x15AC3D, size: 0x8, addend: 0x0, symName: __ZNSt3__16vectorINS_4pairIdmEENS_9allocatorIS2_EEE7reserveEm, symObjAddr: 0x638, symBinAddr: 0x2C3E8, symSize: 0x90 }
  - { offset: 0x15AEC7, size: 0x8, addend: 0x0, symName: __ZN4absl12lts_2024072215random_internal24InitDiscreteDistributionEPNSt3__16vectorIdNS2_9allocatorIdEEEE.cold.2, symObjAddr: 0x81C, symBinAddr: 0x66BE8, symSize: 0x28 }
  - { offset: 0x15AEDF, size: 0x8, addend: 0x0, symName: __ZN4absl12lts_2024072215random_internal24InitDiscreteDistributionEPNSt3__16vectorIdNS2_9allocatorIdEEEE.cold.1, symObjAddr: 0x7F4, symBinAddr: 0x66BC0, symSize: 0x28 }
  - { offset: 0x15CEA0, size: 0x8, addend: 0x0, symName: __ZN4absl12lts_2024072212IDivDurationENS0_8DurationES1_PS1_, symObjAddr: 0x0, symBinAddr: 0x2C478, symSize: 0x1CC }
  - { offset: 0x15D2BE, size: 0x8, addend: 0x0, symName: __ZN4absl12lts_2024072212_GLOBAL__N_112kDisplayNanoE, symObjAddr: 0x1DC8, symBinAddr: 0x854B8, symSize: 0x0 }
  - { offset: 0x15D30B, size: 0x8, addend: 0x0, symName: __ZN4absl12lts_2024072212_GLOBAL__N_113kDisplayMicroE, symObjAddr: 0x1DE8, symBinAddr: 0x854D8, symSize: 0x0 }
  - { offset: 0x15D326, size: 0x8, addend: 0x0, symName: __ZN4absl12lts_2024072212_GLOBAL__N_113kDisplayMilliE, symObjAddr: 0x1E08, symBinAddr: 0x854F8, symSize: 0x0 }
  - { offset: 0x15D341, size: 0x8, addend: 0x0, symName: __ZN4absl12lts_2024072212_GLOBAL__N_112kDisplayHourE, symObjAddr: 0x1E28, symBinAddr: 0x85518, symSize: 0x0 }
  - { offset: 0x15D35C, size: 0x8, addend: 0x0, symName: __ZN4absl12lts_2024072212_GLOBAL__N_111kDisplayMinE, symObjAddr: 0x1E48, symBinAddr: 0x85538, symSize: 0x0 }
  - { offset: 0x15D377, size: 0x8, addend: 0x0, symName: __ZN4absl12lts_2024072212_GLOBAL__N_111kDisplaySecE, symObjAddr: 0x1E68, symBinAddr: 0x85558, symSize: 0x0 }
  - { offset: 0x15D45E, size: 0x8, addend: 0x0, symName: __ZN4absl12lts_2024072212_GLOBAL__N_112IDivSlowPathEbNS0_8DurationES2_PS2_, symObjAddr: 0x1B70, symBinAddr: 0x2DFE8, symSize: 0x200 }
  - { offset: 0x15DB2B, size: 0x8, addend: 0x0, symName: __ZN4absl12lts_2024072212_GLOBAL__N_116AppendNumberUnitEPNSt3__112basic_stringIcNS2_11char_traitsIcEENS2_9allocatorIcEEEExNS1_11DisplayUnitE, symObjAddr: 0x1698, symBinAddr: 0x2DB10, symSize: 0x120 }
  - { offset: 0x15DBEC, size: 0x8, addend: 0x0, symName: __ZN4absl12lts_2024072212_GLOBAL__N_116AppendNumberUnitEPNSt3__112basic_stringIcNS2_11char_traitsIcEENS2_9allocatorIcEEEEdNS1_11DisplayUnitE, symObjAddr: 0x1484, symBinAddr: 0x2D8FC, symSize: 0x214 }
  - { offset: 0x15E0C6, size: 0x8, addend: 0x0, symName: __ZN4absl12lts_2024072212IDivDurationENS0_8DurationES1_PS1_, symObjAddr: 0x0, symBinAddr: 0x2C478, symSize: 0x1CC }
  - { offset: 0x15E1BD, size: 0x8, addend: 0x0, symName: __ZN4absl12lts_20240722ngENS0_8DurationE, symObjAddr: 0x288, symBinAddr: 0x2C700, symSize: 0x50 }
  - { offset: 0x15E1EF, size: 0x8, addend: 0x0, symName: __ZN4absl12lts_20240722ngENS0_8DurationE, symObjAddr: 0x288, symBinAddr: 0x2C700, symSize: 0x50 }
  - { offset: 0x15E327, size: 0x8, addend: 0x0, symName: __ZN4absl12lts_2024072212FDivDurationENS0_8DurationES1_, symObjAddr: 0xB14, symBinAddr: 0x2CF8C, symSize: 0x68 }
  - { offset: 0x15E3DA, size: 0x8, addend: 0x0, symName: __ZN4absl12lts_202407225TruncENS0_8DurationES1_, symObjAddr: 0xB7C, symBinAddr: 0x2CFF4, symSize: 0x64 }
  - { offset: 0x15E50F, size: 0x8, addend: 0x0, symName: __ZN4absl12lts_202407225FloorENS0_8DurationES1_, symObjAddr: 0xBE0, symBinAddr: 0x2D058, symSize: 0xCC }
  - { offset: 0x15E6C9, size: 0x8, addend: 0x0, symName: __ZN4absl12lts_202407224CeilENS0_8DurationES1_, symObjAddr: 0xCAC, symBinAddr: 0x2D124, symSize: 0xCC }
  - { offset: 0x15E85C, size: 0x8, addend: 0x0, symName: __ZN4absl12lts_2024072220DurationFromTimespecE8timespec, symObjAddr: 0xD78, symBinAddr: 0x2D1F0, symSize: 0x88 }
  - { offset: 0x15E998, size: 0x8, addend: 0x0, symName: __ZN4absl12lts_2024072219DurationFromTimevalE7timeval, symObjAddr: 0xE00, symBinAddr: 0x2D278, symSize: 0x90 }
  - { offset: 0x15EAA1, size: 0x8, addend: 0x0, symName: __ZN4absl12lts_2024072218ToInt64NanosecondsENS0_8DurationE, symObjAddr: 0xE90, symBinAddr: 0x2D308, symSize: 0x48 }
  - { offset: 0x15EB15, size: 0x8, addend: 0x0, symName: __ZN4absl12lts_2024072219ToInt64MicrosecondsENS0_8DurationE, symObjAddr: 0xED8, symBinAddr: 0x2D350, symSize: 0x58 }
  - { offset: 0x15EB87, size: 0x8, addend: 0x0, symName: __ZN4absl12lts_2024072219ToInt64MillisecondsENS0_8DurationE, symObjAddr: 0xF30, symBinAddr: 0x2D3A8, symSize: 0x58 }
  - { offset: 0x15EBF2, size: 0x8, addend: 0x0, symName: __ZN4absl12lts_2024072214ToInt64SecondsENS0_8DurationE, symObjAddr: 0xF88, symBinAddr: 0x2D400, symSize: 0x28 }
  - { offset: 0x15EC51, size: 0x8, addend: 0x0, symName: __ZN4absl12lts_2024072214ToInt64MinutesENS0_8DurationE, symObjAddr: 0xFB0, symBinAddr: 0x2D428, symSize: 0x38 }
  - { offset: 0x15EC74, size: 0x8, addend: 0x0, symName: __ZN4absl12lts_2024072212ToInt64HoursENS0_8DurationE, symObjAddr: 0xFE8, symBinAddr: 0x2D460, symSize: 0x3C }
  - { offset: 0x15EC96, size: 0x8, addend: 0x0, symName: __ZN4absl12lts_2024072219ToDoubleNanosecondsENS0_8DurationE, symObjAddr: 0x1024, symBinAddr: 0x2D49C, symSize: 0x10 }
  - { offset: 0x15ECEB, size: 0x8, addend: 0x0, symName: __ZN4absl12lts_2024072220ToDoubleMicrosecondsENS0_8DurationE, symObjAddr: 0x1034, symBinAddr: 0x2D4AC, symSize: 0x10 }
  - { offset: 0x15ED42, size: 0x8, addend: 0x0, symName: __ZN4absl12lts_2024072220ToDoubleMillisecondsENS0_8DurationE, symObjAddr: 0x1044, symBinAddr: 0x2D4BC, symSize: 0x14 }
  - { offset: 0x15ED92, size: 0x8, addend: 0x0, symName: __ZN4absl12lts_2024072215ToDoubleSecondsENS0_8DurationE, symObjAddr: 0x1058, symBinAddr: 0x2D4D0, symSize: 0x10 }
  - { offset: 0x15EDE7, size: 0x8, addend: 0x0, symName: __ZN4absl12lts_2024072215ToDoubleMinutesENS0_8DurationE, symObjAddr: 0x1068, symBinAddr: 0x2D4E0, symSize: 0x10 }
  - { offset: 0x15EE3D, size: 0x8, addend: 0x0, symName: __ZN4absl12lts_2024072213ToDoubleHoursENS0_8DurationE, symObjAddr: 0x1078, symBinAddr: 0x2D4F0, symSize: 0x10 }
  - { offset: 0x15EE94, size: 0x8, addend: 0x0, symName: __ZN4absl12lts_2024072210ToTimespecENS0_8DurationE, symObjAddr: 0x1088, symBinAddr: 0x2D500, symSize: 0x6C }
  - { offset: 0x15EF3F, size: 0x8, addend: 0x0, symName: __ZN4absl12lts_202407229ToTimevalENS0_8DurationE, symObjAddr: 0x10F4, symBinAddr: 0x2D56C, symSize: 0x68 }
  - { offset: 0x15EFA6, size: 0x8, addend: 0x0, symName: __ZN4absl12lts_2024072219ToChronoNanosecondsENS0_8DurationE, symObjAddr: 0x115C, symBinAddr: 0x2D5D4, symSize: 0x20 }
  - { offset: 0x15F033, size: 0x8, addend: 0x0, symName: __ZN4absl12lts_2024072220ToChronoMicrosecondsENS0_8DurationE, symObjAddr: 0x117C, symBinAddr: 0x2D5F4, symSize: 0x20 }
  - { offset: 0x15F0C0, size: 0x8, addend: 0x0, symName: __ZN4absl12lts_2024072220ToChronoMillisecondsENS0_8DurationE, symObjAddr: 0x119C, symBinAddr: 0x2D614, symSize: 0x20 }
  - { offset: 0x15F14D, size: 0x8, addend: 0x0, symName: __ZN4absl12lts_2024072215ToChronoSecondsENS0_8DurationE, symObjAddr: 0x11BC, symBinAddr: 0x2D634, symSize: 0x2C }
  - { offset: 0x15F1C5, size: 0x8, addend: 0x0, symName: __ZN4absl12lts_2024072215ToChronoMinutesENS0_8DurationE, symObjAddr: 0x11E8, symBinAddr: 0x2D660, symSize: 0x40 }
  - { offset: 0x15F2A8, size: 0x8, addend: 0x0, symName: __ZN4absl12lts_2024072213ToChronoHoursENS0_8DurationE, symObjAddr: 0x1228, symBinAddr: 0x2D6A0, symSize: 0x44 }
  - { offset: 0x15F361, size: 0x8, addend: 0x0, symName: __ZN4absl12lts_2024072214FormatDurationENS0_8DurationE, symObjAddr: 0x126C, symBinAddr: 0x2D6E4, symSize: 0x218 }
  - { offset: 0x15F902, size: 0x8, addend: 0x0, symName: __ZN4absl12lts_2024072213ParseDurationENS0_11string_viewEPNS0_8DurationE, symObjAddr: 0x17B8, symBinAddr: 0x2DC30, symSize: 0x384 }
  - { offset: 0x15F983, size: 0x8, addend: 0x0, symName: __ZN4absl12lts_2024072213ParseDurationENS0_11string_viewEPNS0_8DurationE, symObjAddr: 0x17B8, symBinAddr: 0x2DC30, symSize: 0x384 }
  - { offset: 0x15F9A1, size: 0x8, addend: 0x0, symName: __ZN4absl12lts_2024072213ParseDurationENS0_11string_viewEPNS0_8DurationE, symObjAddr: 0x17B8, symBinAddr: 0x2DC30, symSize: 0x384 }
  - { offset: 0x15FCD3, size: 0x8, addend: 0x0, symName: __ZN4absl12lts_2024072213AbslParseFlagENS0_11string_viewEPNS0_8DurationEPNSt3__112basic_stringIcNS4_11char_traitsIcEENS4_9allocatorIcEEEE, symObjAddr: 0x1B3C, symBinAddr: 0x2DFB4, symSize: 0x4 }
  - { offset: 0x15FD1A, size: 0x8, addend: 0x0, symName: __ZN4absl12lts_2024072213AbslParseFlagENS0_11string_viewEPNS0_8DurationEPNSt3__112basic_stringIcNS4_11char_traitsIcEENS4_9allocatorIcEEEE, symObjAddr: 0x1B3C, symBinAddr: 0x2DFB4, symSize: 0x4 }
  - { offset: 0x15FD3A, size: 0x8, addend: 0x0, symName: __ZN4absl12lts_2024072215AbslUnparseFlagENS0_8DurationE, symObjAddr: 0x1B40, symBinAddr: 0x2DFB8, symSize: 0x8 }
  - { offset: 0x15FD88, size: 0x8, addend: 0x0, symName: __ZN4absl12lts_202407229ParseFlagERKNSt3__112basic_stringIcNS1_11char_traitsIcEENS1_9allocatorIcEEEEPNS0_8DurationEPS7_, symObjAddr: 0x1B48, symBinAddr: 0x2DFC0, symSize: 0x20 }
  - { offset: 0x15FE61, size: 0x8, addend: 0x0, symName: __ZN4absl12lts_2024072211UnparseFlagENS0_8DurationE, symObjAddr: 0x1B68, symBinAddr: 0x2DFE0, symSize: 0x8 }
  - { offset: 0x162D0D, size: 0x8, addend: 0x0, symName: __ZN4absl12lts_202407228DurationpLES1_, symObjAddr: 0x1CC, symBinAddr: 0x2C644, symSize: 0xBC }
  - { offset: 0x162DF2, size: 0x8, addend: 0x0, symName: __ZN4absl12lts_202407228DurationmIES1_, symObjAddr: 0x2D8, symBinAddr: 0x2C750, symSize: 0xA4 }
  - { offset: 0x162F5C, size: 0x8, addend: 0x0, symName: __ZN4absl12lts_202407228DurationmLEx, symObjAddr: 0x37C, symBinAddr: 0x2C7F4, symSize: 0x1FC }
  - { offset: 0x163292, size: 0x8, addend: 0x0, symName: __ZN4absl12lts_202407228DurationmLEd, symObjAddr: 0x578, symBinAddr: 0x2C9F0, symSize: 0x164 }
  - { offset: 0x1634B0, size: 0x8, addend: 0x0, symName: __ZN4absl12lts_202407228DurationdVEx, symObjAddr: 0x6DC, symBinAddr: 0x2CB54, symSize: 0x140 }
  - { offset: 0x163768, size: 0x8, addend: 0x0, symName: __ZN4absl12lts_202407228DurationdVEd, symObjAddr: 0x81C, symBinAddr: 0x2CC94, symSize: 0x160 }
  - { offset: 0x163928, size: 0x8, addend: 0x0, symName: __ZN4absl12lts_202407228DurationrMES1_, symObjAddr: 0x97C, symBinAddr: 0x2CDF4, symSize: 0x198 }
  - { offset: 0x165D53, size: 0x8, addend: 0x0, symName: __ZN4absl12lts_202407229CUnescapeENS0_11string_viewEPNSt3__112basic_stringIcNS2_11char_traitsIcEENS2_9allocatorIcEEEES9_, symObjAddr: 0x0, symBinAddr: 0x2E1E8, symSize: 0x874 }
  - { offset: 0x165D86, size: 0x8, addend: 0x0, symName: __ZN4absl12lts_2024072212_GLOBAL__N_112kCEscapedLenE, symObjAddr: 0x1F40, symBinAddr: 0x6F690, symSize: 0x0 }
  - { offset: 0x165DA1, size: 0x8, addend: 0x0, symName: __ZN4absl12lts_2024072212_GLOBAL__N_19kUnBase64E, symObjAddr: 0x1C40, symBinAddr: 0x6F390, symSize: 0x0 }
  - { offset: 0x165DBC, size: 0x8, addend: 0x0, symName: __ZN4absl12lts_2024072212_GLOBAL__N_116kUnWebSafeBase64E, symObjAddr: 0x1D40, symBinAddr: 0x6F490, symSize: 0x0 }
  - { offset: 0x165DD7, size: 0x8, addend: 0x0, symName: __ZN4absl12lts_2024072212_GLOBAL__N_115kHexValueStrictE, symObjAddr: 0x1E40, symBinAddr: 0x6F590, symSize: 0x0 }
  - { offset: 0x165DF2, size: 0x8, addend: 0x0, symName: __ZN4absl12lts_2024072212_GLOBAL__N_116kHexValueLenientE, symObjAddr: 0x2040, symBinAddr: 0x6F790, symSize: 0x0 }
  - { offset: 0x1660E6, size: 0x8, addend: 0x0, symName: __ZN4absl12lts_2024072212_GLOBAL__N_115CEscapeInternalENS0_11string_viewEbb, symObjAddr: 0xB34, symBinAddr: 0x2ED1C, symSize: 0x210 }
  - { offset: 0x16639E, size: 0x8, addend: 0x0, symName: __ZN4absl12lts_2024072212_GLOBAL__N_122Base64UnescapeInternalINSt3__112basic_stringIcNS3_11char_traitsIcEENS3_9allocatorIcEEEEEEbPKcmPT_PKa, symObjAddr: 0xD68, symBinAddr: 0x2EF50, symSize: 0x67C }
  - { offset: 0x1667BC, size: 0x8, addend: 0x0, symName: __ZN4absl12lts_2024072221WebSafeBase64UnescapeENS0_11string_viewEPNSt3__112basic_stringIcNS2_11char_traitsIcEENS2_9allocatorIcEEEE, symObjAddr: 0x13E4, symBinAddr: 0x2F5CC, symSize: 0xC }
  - { offset: 0x166A26, size: 0x8, addend: 0x0, symName: __ZN4absl12lts_2024072216strings_internal20Base64EscapeInternalINSt3__112basic_stringIcNS3_11char_traitsIcEENS3_9allocatorIcEEEEEEvPKhmPT_bPKc, symObjAddr: 0x1400, symBinAddr: 0x2F5E8, symSize: 0x98 }
  - { offset: 0x166B87, size: 0x8, addend: 0x0, symName: __ZN4absl12lts_2024072219WebSafeBase64EscapeENS0_11string_viewEPNSt3__112basic_stringIcNS2_11char_traitsIcEENS2_9allocatorIcEEEE, symObjAddr: 0x1498, symBinAddr: 0x2F680, symSize: 0x10 }
  - { offset: 0x166C20, size: 0x8, addend: 0x0, symName: __ZN4absl12lts_202407229CUnescapeENS0_11string_viewEPNSt3__112basic_stringIcNS2_11char_traitsIcEENS2_9allocatorIcEEEES9_, symObjAddr: 0x0, symBinAddr: 0x2E1E8, symSize: 0x874 }
  - { offset: 0x167B32, size: 0x8, addend: 0x0, symName: __ZN4absl12lts_202407227CEscapeENS0_11string_viewE, symObjAddr: 0x874, symBinAddr: 0x2EA5C, symSize: 0x2B4 }
  - { offset: 0x168384, size: 0x8, addend: 0x0, symName: __ZN4absl12lts_2024072210CHexEscapeENS0_11string_viewE, symObjAddr: 0xB28, symBinAddr: 0x2ED10, symSize: 0xC }
  - { offset: 0x1683F8, size: 0x8, addend: 0x0, symName: __ZN4absl12lts_2024072215Utf8SafeCEscapeENS0_11string_viewE, symObjAddr: 0xD44, symBinAddr: 0x2EF2C, symSize: 0xC }
  - { offset: 0x168450, size: 0x8, addend: 0x0, symName: __ZN4absl12lts_2024072218Utf8SafeCHexEscapeENS0_11string_viewE, symObjAddr: 0xD50, symBinAddr: 0x2EF38, symSize: 0xC }
  - { offset: 0x1684A8, size: 0x8, addend: 0x0, symName: __ZN4absl12lts_2024072214Base64UnescapeENS0_11string_viewEPNSt3__112basic_stringIcNS2_11char_traitsIcEENS2_9allocatorIcEEEE, symObjAddr: 0xD5C, symBinAddr: 0x2EF44, symSize: 0xC }
  - { offset: 0x16852F, size: 0x8, addend: 0x0, symName: __ZN4absl12lts_2024072221WebSafeBase64UnescapeENS0_11string_viewEPNSt3__112basic_stringIcNS2_11char_traitsIcEENS2_9allocatorIcEEEE, symObjAddr: 0x13E4, symBinAddr: 0x2F5CC, symSize: 0xC }
  - { offset: 0x168590, size: 0x8, addend: 0x0, symName: __ZN4absl12lts_2024072212Base64EscapeENS0_11string_viewEPNSt3__112basic_stringIcNS2_11char_traitsIcEENS2_9allocatorIcEEEE, symObjAddr: 0x13F0, symBinAddr: 0x2F5D8, symSize: 0x10 }
  - { offset: 0x1685F2, size: 0x8, addend: 0x0, symName: __ZN4absl12lts_2024072219WebSafeBase64EscapeENS0_11string_viewEPNSt3__112basic_stringIcNS2_11char_traitsIcEENS2_9allocatorIcEEEE, symObjAddr: 0x1498, symBinAddr: 0x2F680, symSize: 0x10 }
  - { offset: 0x168653, size: 0x8, addend: 0x0, symName: __ZN4absl12lts_2024072212Base64EscapeENS0_11string_viewE, symObjAddr: 0x14A8, symBinAddr: 0x2F690, symSize: 0x54 }
  - { offset: 0x168853, size: 0x8, addend: 0x0, symName: __ZN4absl12lts_2024072219WebSafeBase64EscapeENS0_11string_viewE, symObjAddr: 0x14FC, symBinAddr: 0x2F6E4, symSize: 0x54 }
  - { offset: 0x168A53, size: 0x8, addend: 0x0, symName: __ZN4absl12lts_2024072216HexStringToBytesENS0_11string_viewEPNSt3__112basic_stringIcNS2_11char_traitsIcEENS2_9allocatorIcEEEE, symObjAddr: 0x1550, symBinAddr: 0x2F738, symSize: 0x15C }
  - { offset: 0x169055, size: 0x8, addend: 0x0, symName: __ZN4absl12lts_2024072216HexStringToBytesENS0_11string_viewE, symObjAddr: 0x16AC, symBinAddr: 0x2F894, symSize: 0xAC }
  - { offset: 0x1692ED, size: 0x8, addend: 0x0, symName: __ZN4absl12lts_2024072216BytesToHexStringENS0_11string_viewE, symObjAddr: 0x1758, symBinAddr: 0x2F940, symSize: 0x8C }
  - { offset: 0x16C96C, size: 0x8, addend: 0x0, symName: __ZN4absl12lts_2024072212_GLOBAL__N_122Base64UnescapeInternalINSt3__112basic_stringIcNS3_11char_traitsIcEENS3_9allocatorIcEEEEEEbPKcmPT_PKa.cold.1, symObjAddr: 0x1A8C, symBinAddr: 0x66C10, symSize: 0x28 }
  - { offset: 0x16C984, size: 0x8, addend: 0x0, symName: __ZN4absl12lts_2024072212_GLOBAL__N_122Base64UnescapeInternalINSt3__112basic_stringIcNS3_11char_traitsIcEENS3_9allocatorIcEEEEEEbPKcmPT_PKa.cold.2, symObjAddr: 0x1AB4, symBinAddr: 0x66C38, symSize: 0x4C }
  - { offset: 0x16C9B2, size: 0x8, addend: 0x0, symName: __ZN4absl12lts_2024072216strings_internal20Base64EscapeInternalINSt3__112basic_stringIcNS3_11char_traitsIcEENS3_9allocatorIcEEEEEEvPKhmPT_bPKc.cold.1, symObjAddr: 0x1B00, symBinAddr: 0x66C84, symSize: 0x28 }
  - { offset: 0x16EBE4, size: 0x8, addend: 0x0, symName: __ZN4absl12lts_2024072216strings_internal33CalculateBase64EscapedLenInternalEmb, symObjAddr: 0x0, symBinAddr: 0x2F9CC, symSize: 0x150 }
  - { offset: 0x16EC0D, size: 0x8, addend: 0x0, symName: __ZN4absl12lts_2024072216strings_internal12kBase64CharsE, symObjAddr: 0x4BC, symBinAddr: 0x6F890, symSize: 0x0 }
  - { offset: 0x16EC27, size: 0x8, addend: 0x0, symName: __ZN4absl12lts_2024072216strings_internal19kWebSafeBase64CharsE, symObjAddr: 0x4FD, symBinAddr: 0x6F8D1, symSize: 0x0 }
  - { offset: 0x16EC35, size: 0x8, addend: 0x0, symName: __ZN4absl12lts_2024072216strings_internal20Base64EscapeInternalEPKhmPcmPKcb, symObjAddr: 0x150, symBinAddr: 0x2FB1C, symSize: 0x1B8 }
  - { offset: 0x16EEDB, size: 0x8, addend: 0x0, symName: __ZN4absl12lts_2024072216strings_internal33CalculateBase64EscapedLenInternalEmb, symObjAddr: 0x0, symBinAddr: 0x2F9CC, symSize: 0x150 }
  - { offset: 0x171E9B, size: 0x8, addend: 0x0, symName: __ZN4absl12lts_2024072216strings_internal20Base64EscapeInternalEPKhmPcmPKcb.cold.1, symObjAddr: 0x438, symBinAddr: 0x66CAC, symSize: 0x4C }
  - { offset: 0x173F69, size: 0x8, addend: 0x0, symName: __ZN4absl12lts_2024072218debugging_internal27RegisterDebugStackTraceHookEPFvPKPviPFvPKcS2_ES2_E, symObjAddr: 0x0, symBinAddr: 0x2FCD4, symSize: 0xC }
  - { offset: 0x173FB3, size: 0x8, addend: 0x0, symName: __ZN4absl12lts_2024072218debugging_internal12_GLOBAL__N_122debug_stack_trace_hookE, symObjAddr: 0x8918, symBinAddr: 0x86D60, symSize: 0x0 }
  - { offset: 0x17401D, size: 0x8, addend: 0x0, symName: __ZN4absl12lts_2024072218debugging_internal12_GLOBAL__N_127DumpPCAndFrameSizeAndSymbolEPFvPKcPvES5_S5_S5_iS4_, symObjAddr: 0x1E4, symBinAddr: 0x2FEB8, symSize: 0xEC }
  - { offset: 0x174221, size: 0x8, addend: 0x0, symName: __ZN4absl12lts_2024072218debugging_internal27RegisterDebugStackTraceHookEPFvPKPviPFvPKcS2_ES2_E, symObjAddr: 0x0, symBinAddr: 0x2FCD4, symSize: 0xC }
  - { offset: 0x174249, size: 0x8, addend: 0x0, symName: __ZN4absl12lts_2024072218debugging_internal22GetDebugStackTraceHookEv, symObjAddr: 0xC, symBinAddr: 0x2FCE0, symSize: 0xC }
  - { offset: 0x17425C, size: 0x8, addend: 0x0, symName: __ZN4absl12lts_2024072218debugging_internal17GetProgramCounterEPv, symObjAddr: 0x18, symBinAddr: 0x2FCEC, symSize: 0x10 }
  - { offset: 0x1742A6, size: 0x8, addend: 0x0, symName: __ZN4absl12lts_2024072218debugging_internal32DumpPCAndFrameSizesAndStackTraceEPvPKS2_PiiibPFvPKcS2_ES2_, symObjAddr: 0x28, symBinAddr: 0x2FCFC, symSize: 0x1BC }
  - { offset: 0x1744D2, size: 0x8, addend: 0x0, symName: __ZN4absl12lts_2024072218debugging_internal14DumpStackTraceEiibPFvPKcPvES4_, symObjAddr: 0x2D0, symBinAddr: 0x2FFA4, symSize: 0x1DC }
  - { offset: 0x1775B2, size: 0x8, addend: 0x0, symName: __ZN4absl12lts_2024072218profiling_internal17ExponentialBiased12GetSkipCountEx, symObjAddr: 0x0, symBinAddr: 0x30180, symSize: 0xE8 }
  - { offset: 0x177698, size: 0x8, addend: 0x0, symName: __ZN4absl12lts_2024072218profiling_internal17ExponentialBiased10InitializeEv, symObjAddr: 0xE8, symBinAddr: 0x30268, symSize: 0x50 }
  - { offset: 0x1776BC, size: 0x8, addend: 0x0, symName: __ZZN4absl12lts_2024072218profiling_internal17ExponentialBiased10InitializeEvE11global_rand, symObjAddr: 0x823C, symBinAddr: 0x86D68, symSize: 0x0 }
  - { offset: 0x17825E, size: 0x8, addend: 0x0, symName: __ZN4absl12lts_2024072218profiling_internal17ExponentialBiased12GetSkipCountEx, symObjAddr: 0x0, symBinAddr: 0x30180, symSize: 0xE8 }
  - { offset: 0x1783CE, size: 0x8, addend: 0x0, symName: __ZN4absl12lts_2024072218profiling_internal17ExponentialBiased9GetStrideEx, symObjAddr: 0x138, symBinAddr: 0x302B8, symSize: 0x1C }
  - { offset: 0x179EB1, size: 0x8, addend: 0x0, symName: __ZN4absl12lts_2024072219str_format_internal13FlagsToStringENS1_5FlagsE, symObjAddr: 0x0, symBinAddr: 0x302D4, symSize: 0xCC }
  - { offset: 0x179EE7, size: 0x8, addend: 0x0, symName: __ZN4absl12lts_2024072219str_format_internal28FormatConversionCharInternal1cE, symObjAddr: 0x378, symBinAddr: 0x6F920, symSize: 0x0 }
  - { offset: 0x17A016, size: 0x8, addend: 0x0, symName: __ZN4absl12lts_2024072219str_format_internal28FormatConversionCharInternal1sE, symObjAddr: 0x379, symBinAddr: 0x6F921, symSize: 0x0 }
  - { offset: 0x17A02A, size: 0x8, addend: 0x0, symName: __ZN4absl12lts_2024072219str_format_internal28FormatConversionCharInternal1dE, symObjAddr: 0x37A, symBinAddr: 0x6F922, symSize: 0x0 }
  - { offset: 0x17A03E, size: 0x8, addend: 0x0, symName: __ZN4absl12lts_2024072219str_format_internal28FormatConversionCharInternal1iE, symObjAddr: 0x37B, symBinAddr: 0x6F923, symSize: 0x0 }
  - { offset: 0x17A052, size: 0x8, addend: 0x0, symName: __ZN4absl12lts_2024072219str_format_internal28FormatConversionCharInternal1oE, symObjAddr: 0x37C, symBinAddr: 0x6F924, symSize: 0x0 }
  - { offset: 0x17A066, size: 0x8, addend: 0x0, symName: __ZN4absl12lts_2024072219str_format_internal28FormatConversionCharInternal1uE, symObjAddr: 0x37D, symBinAddr: 0x6F925, symSize: 0x0 }
  - { offset: 0x17A07A, size: 0x8, addend: 0x0, symName: __ZN4absl12lts_2024072219str_format_internal28FormatConversionCharInternal1xE, symObjAddr: 0x37E, symBinAddr: 0x6F926, symSize: 0x0 }
  - { offset: 0x17A08E, size: 0x8, addend: 0x0, symName: __ZN4absl12lts_2024072219str_format_internal28FormatConversionCharInternal1XE, symObjAddr: 0x37F, symBinAddr: 0x6F927, symSize: 0x0 }
  - { offset: 0x17A0A2, size: 0x8, addend: 0x0, symName: __ZN4absl12lts_2024072219str_format_internal28FormatConversionCharInternal1fE, symObjAddr: 0x380, symBinAddr: 0x6F928, symSize: 0x0 }
  - { offset: 0x17A0B6, size: 0x8, addend: 0x0, symName: __ZN4absl12lts_2024072219str_format_internal28FormatConversionCharInternal1FE, symObjAddr: 0x381, symBinAddr: 0x6F929, symSize: 0x0 }
  - { offset: 0x17A0CA, size: 0x8, addend: 0x0, symName: __ZN4absl12lts_2024072219str_format_internal28FormatConversionCharInternal1eE, symObjAddr: 0x382, symBinAddr: 0x6F92A, symSize: 0x0 }
  - { offset: 0x17A0DE, size: 0x8, addend: 0x0, symName: __ZN4absl12lts_2024072219str_format_internal28FormatConversionCharInternal1EE, symObjAddr: 0x383, symBinAddr: 0x6F92B, symSize: 0x0 }
  - { offset: 0x17A0F2, size: 0x8, addend: 0x0, symName: __ZN4absl12lts_2024072219str_format_internal28FormatConversionCharInternal1gE, symObjAddr: 0x384, symBinAddr: 0x6F92C, symSize: 0x0 }
  - { offset: 0x17A106, size: 0x8, addend: 0x0, symName: __ZN4absl12lts_2024072219str_format_internal28FormatConversionCharInternal1GE, symObjAddr: 0x385, symBinAddr: 0x6F92D, symSize: 0x0 }
  - { offset: 0x17A11A, size: 0x8, addend: 0x0, symName: __ZN4absl12lts_2024072219str_format_internal28FormatConversionCharInternal1aE, symObjAddr: 0x386, symBinAddr: 0x6F92E, symSize: 0x0 }
  - { offset: 0x17A12E, size: 0x8, addend: 0x0, symName: __ZN4absl12lts_2024072219str_format_internal28FormatConversionCharInternal1AE, symObjAddr: 0x387, symBinAddr: 0x6F92F, symSize: 0x0 }
  - { offset: 0x17A142, size: 0x8, addend: 0x0, symName: __ZN4absl12lts_2024072219str_format_internal28FormatConversionCharInternal1nE, symObjAddr: 0x388, symBinAddr: 0x6F930, symSize: 0x0 }
  - { offset: 0x17A156, size: 0x8, addend: 0x0, symName: __ZN4absl12lts_2024072219str_format_internal28FormatConversionCharInternal1pE, symObjAddr: 0x389, symBinAddr: 0x6F931, symSize: 0x0 }
  - { offset: 0x17A16A, size: 0x8, addend: 0x0, symName: __ZN4absl12lts_2024072219str_format_internal28FormatConversionCharInternal1vE, symObjAddr: 0x38A, symBinAddr: 0x6F932, symSize: 0x0 }
  - { offset: 0x17A17E, size: 0x8, addend: 0x0, symName: __ZN4absl12lts_2024072219str_format_internal28FormatConversionCharInternal5kNoneE, symObjAddr: 0x38B, symBinAddr: 0x6F933, symSize: 0x0 }
  - { offset: 0x17A192, size: 0x8, addend: 0x0, symName: __ZN4absl12lts_2024072219str_format_internal31FormatConversionCharSetInternal1cE, symObjAddr: 0x390, symBinAddr: 0x6F938, symSize: 0x0 }
  - { offset: 0x17A31D, size: 0x8, addend: 0x0, symName: __ZN4absl12lts_2024072219str_format_internal31FormatConversionCharSetInternal1sE, symObjAddr: 0x398, symBinAddr: 0x6F940, symSize: 0x0 }
  - { offset: 0x17A331, size: 0x8, addend: 0x0, symName: __ZN4absl12lts_2024072219str_format_internal31FormatConversionCharSetInternal1dE, symObjAddr: 0x3A0, symBinAddr: 0x6F948, symSize: 0x0 }
  - { offset: 0x17A345, size: 0x8, addend: 0x0, symName: __ZN4absl12lts_2024072219str_format_internal31FormatConversionCharSetInternal1iE, symObjAddr: 0x3A8, symBinAddr: 0x6F950, symSize: 0x0 }
  - { offset: 0x17A359, size: 0x8, addend: 0x0, symName: __ZN4absl12lts_2024072219str_format_internal31FormatConversionCharSetInternal1oE, symObjAddr: 0x3B0, symBinAddr: 0x6F958, symSize: 0x0 }
  - { offset: 0x17A36D, size: 0x8, addend: 0x0, symName: __ZN4absl12lts_2024072219str_format_internal31FormatConversionCharSetInternal1uE, symObjAddr: 0x3B8, symBinAddr: 0x6F960, symSize: 0x0 }
  - { offset: 0x17A381, size: 0x8, addend: 0x0, symName: __ZN4absl12lts_2024072219str_format_internal31FormatConversionCharSetInternal1xE, symObjAddr: 0x3C0, symBinAddr: 0x6F968, symSize: 0x0 }
  - { offset: 0x17A395, size: 0x8, addend: 0x0, symName: __ZN4absl12lts_2024072219str_format_internal31FormatConversionCharSetInternal1XE, symObjAddr: 0x3C8, symBinAddr: 0x6F970, symSize: 0x0 }
  - { offset: 0x17A3A9, size: 0x8, addend: 0x0, symName: __ZN4absl12lts_2024072219str_format_internal31FormatConversionCharSetInternal1fE, symObjAddr: 0x3D0, symBinAddr: 0x6F978, symSize: 0x0 }
  - { offset: 0x17A3BD, size: 0x8, addend: 0x0, symName: __ZN4absl12lts_2024072219str_format_internal31FormatConversionCharSetInternal1FE, symObjAddr: 0x3D8, symBinAddr: 0x6F980, symSize: 0x0 }
  - { offset: 0x17A3D1, size: 0x8, addend: 0x0, symName: __ZN4absl12lts_2024072219str_format_internal31FormatConversionCharSetInternal1eE, symObjAddr: 0x3E0, symBinAddr: 0x6F988, symSize: 0x0 }
  - { offset: 0x17A3E5, size: 0x8, addend: 0x0, symName: __ZN4absl12lts_2024072219str_format_internal31FormatConversionCharSetInternal1EE, symObjAddr: 0x3E8, symBinAddr: 0x6F990, symSize: 0x0 }
  - { offset: 0x17A3F9, size: 0x8, addend: 0x0, symName: __ZN4absl12lts_2024072219str_format_internal31FormatConversionCharSetInternal1gE, symObjAddr: 0x3F0, symBinAddr: 0x6F998, symSize: 0x0 }
  - { offset: 0x17A40D, size: 0x8, addend: 0x0, symName: __ZN4absl12lts_2024072219str_format_internal31FormatConversionCharSetInternal1GE, symObjAddr: 0x3F8, symBinAddr: 0x6F9A0, symSize: 0x0 }
  - { offset: 0x17A421, size: 0x8, addend: 0x0, symName: __ZN4absl12lts_2024072219str_format_internal31FormatConversionCharSetInternal1aE, symObjAddr: 0x400, symBinAddr: 0x6F9A8, symSize: 0x0 }
  - { offset: 0x17A435, size: 0x8, addend: 0x0, symName: __ZN4absl12lts_2024072219str_format_internal31FormatConversionCharSetInternal1AE, symObjAddr: 0x408, symBinAddr: 0x6F9B0, symSize: 0x0 }
  - { offset: 0x17A449, size: 0x8, addend: 0x0, symName: __ZN4absl12lts_2024072219str_format_internal31FormatConversionCharSetInternal1nE, symObjAddr: 0x410, symBinAddr: 0x6F9B8, symSize: 0x0 }
  - { offset: 0x17A45D, size: 0x8, addend: 0x0, symName: __ZN4absl12lts_2024072219str_format_internal31FormatConversionCharSetInternal1pE, symObjAddr: 0x418, symBinAddr: 0x6F9C0, symSize: 0x0 }
  - { offset: 0x17A471, size: 0x8, addend: 0x0, symName: __ZN4absl12lts_2024072219str_format_internal31FormatConversionCharSetInternal1vE, symObjAddr: 0x420, symBinAddr: 0x6F9C8, symSize: 0x0 }
  - { offset: 0x17A485, size: 0x8, addend: 0x0, symName: __ZN4absl12lts_2024072219str_format_internal31FormatConversionCharSetInternal5kStarE, symObjAddr: 0x428, symBinAddr: 0x6F9D0, symSize: 0x0 }
  - { offset: 0x17A499, size: 0x8, addend: 0x0, symName: __ZN4absl12lts_2024072219str_format_internal31FormatConversionCharSetInternal9kIntegralE, symObjAddr: 0x430, symBinAddr: 0x6F9D8, symSize: 0x0 }
  - { offset: 0x17A4AD, size: 0x8, addend: 0x0, symName: __ZN4absl12lts_2024072219str_format_internal31FormatConversionCharSetInternal9kFloatingE, symObjAddr: 0x438, symBinAddr: 0x6F9E0, symSize: 0x0 }
  - { offset: 0x17A4C1, size: 0x8, addend: 0x0, symName: __ZN4absl12lts_2024072219str_format_internal31FormatConversionCharSetInternal8kNumericE, symObjAddr: 0x440, symBinAddr: 0x6F9E8, symSize: 0x0 }
  - { offset: 0x17A4D5, size: 0x8, addend: 0x0, symName: __ZN4absl12lts_2024072219str_format_internal31FormatConversionCharSetInternal8kPointerE, symObjAddr: 0x448, symBinAddr: 0x6F9F0, symSize: 0x0 }
  - { offset: 0x17A4E3, size: 0x8, addend: 0x0, symName: __ZN4absl12lts_2024072219str_format_internal13FlagsToStringENS1_5FlagsE, symObjAddr: 0x0, symBinAddr: 0x302D4, symSize: 0xCC }
  - { offset: 0x17CC80, size: 0x8, addend: 0x0, symName: __ZN4absl12lts_2024072219str_format_internal14FormatSinkImpl15PutPaddedStringENS0_11string_viewEiib, symObjAddr: 0xCC, symBinAddr: 0x303A0, symSize: 0x9C }
  - { offset: 0x17EF70, size: 0x8, addend: 0x0, symName: __ZN4absl12lts_2024072214flags_internal17kStrippedFlagHelpE, symObjAddr: 0x2E70, symBinAddr: 0x6F9F8, symSize: 0x0 }
  - { offset: 0x17EF8B, size: 0x8, addend: 0x0, symName: __ZN4absl12lts_2024072214flags_internal12_GLOBAL__N_116s_freelist_guardE, symObjAddr: 0x5C4C8, symBinAddr: 0x86D70, symSize: 0x0 }
  - { offset: 0x17EFA5, size: 0x8, addend: 0x0, symName: __ZN4absl12lts_2024072214flags_internal12_GLOBAL__N_110s_freelistE, symObjAddr: 0x5C4D0, symBinAddr: 0x86D78, symSize: 0x0 }
  - { offset: 0x17FC1B, size: 0x8, addend: 0x0, symName: __ZN4absl12lts_2024072214flags_internal19NumLeakedFlagValuesEv, symObjAddr: 0x0, symBinAddr: 0x3043C, symSize: 0x58 }
  - { offset: 0x17FF30, size: 0x8, addend: 0x0, symName: __ZN4absl12lts_2024072213base_internal11FastTypeTagIbE9dummy_varE, symObjAddr: 0x2EB3, symBinAddr: 0x6FA3B, symSize: 0x0 }
  - { offset: 0x17FF64, size: 0x8, addend: 0x0, symName: __ZN4absl12lts_2024072213base_internal11FastTypeTagIsE9dummy_varE, symObjAddr: 0x2EB4, symBinAddr: 0x6FA3C, symSize: 0x0 }
  - { offset: 0x17FF98, size: 0x8, addend: 0x0, symName: __ZN4absl12lts_2024072213base_internal11FastTypeTagItE9dummy_varE, symObjAddr: 0x2EB5, symBinAddr: 0x6FA3D, symSize: 0x0 }
  - { offset: 0x17FFCC, size: 0x8, addend: 0x0, symName: __ZN4absl12lts_2024072213base_internal11FastTypeTagIiE9dummy_varE, symObjAddr: 0x2EB6, symBinAddr: 0x6FA3E, symSize: 0x0 }
  - { offset: 0x180000, size: 0x8, addend: 0x0, symName: __ZN4absl12lts_2024072213base_internal11FastTypeTagIjE9dummy_varE, symObjAddr: 0x2EB7, symBinAddr: 0x6FA3F, symSize: 0x0 }
  - { offset: 0x180034, size: 0x8, addend: 0x0, symName: __ZN4absl12lts_2024072213base_internal11FastTypeTagIlE9dummy_varE, symObjAddr: 0x2EB8, symBinAddr: 0x6FA40, symSize: 0x0 }
  - { offset: 0x180068, size: 0x8, addend: 0x0, symName: __ZN4absl12lts_2024072213base_internal11FastTypeTagImE9dummy_varE, symObjAddr: 0x2EB9, symBinAddr: 0x6FA41, symSize: 0x0 }
  - { offset: 0x18009C, size: 0x8, addend: 0x0, symName: __ZN4absl12lts_2024072213base_internal11FastTypeTagIxE9dummy_varE, symObjAddr: 0x2EBA, symBinAddr: 0x6FA42, symSize: 0x0 }
  - { offset: 0x1800D0, size: 0x8, addend: 0x0, symName: __ZN4absl12lts_2024072213base_internal11FastTypeTagIyE9dummy_varE, symObjAddr: 0x2EBB, symBinAddr: 0x6FA43, symSize: 0x0 }
  - { offset: 0x180104, size: 0x8, addend: 0x0, symName: __ZN4absl12lts_2024072213base_internal11FastTypeTagIdE9dummy_varE, symObjAddr: 0x2EBC, symBinAddr: 0x6FA44, symSize: 0x0 }
  - { offset: 0x180138, size: 0x8, addend: 0x0, symName: __ZN4absl12lts_2024072213base_internal11FastTypeTagIfE9dummy_varE, symObjAddr: 0x2EBD, symBinAddr: 0x6FA45, symSize: 0x0 }
  - { offset: 0x18016C, size: 0x8, addend: 0x0, symName: __ZN4absl12lts_2024072213base_internal11FastTypeTagINSt3__112basic_stringIcNS3_11char_traitsIcEENS3_9allocatorIcEEEEE9dummy_varE, symObjAddr: 0x2EBE, symBinAddr: 0x6FA46, symSize: 0x0 }
  - { offset: 0x1801A0, size: 0x8, addend: 0x0, symName: __ZN4absl12lts_2024072213base_internal11FastTypeTagINSt3__16vectorINS3_12basic_stringIcNS3_11char_traitsIcEENS3_9allocatorIcEEEENS8_ISA_EEEEE9dummy_varE, symObjAddr: 0x2EBF, symBinAddr: 0x6FA47, symSize: 0x0 }
  - { offset: 0x1801CE, size: 0x8, addend: 0x0, symName: __ZN4absl12lts_2024072213base_internal12CallOnceImplIMNS0_14flags_internal8FlagImplEFvvEJPS4_EEEvPNSt3__16atomicIjEENS1_14SchedulingModeEOT_DpOT0_, symObjAddr: 0x240C, symBinAddr: 0x326D4, symSize: 0x144 }
  - { offset: 0x1801F4, size: 0x8, addend: 0x0, symName: __ZZN4absl12lts_2024072213base_internal12CallOnceImplIMNS0_14flags_internal8FlagImplEFvvEJPS4_EEEvPNSt3__16atomicIjEENS1_14SchedulingModeEOT_DpOT0_E5trans, symObjAddr: 0x2EC0, symBinAddr: 0x6FA48, symSize: 0x0 }
  - { offset: 0x18084B, size: 0x8, addend: 0x0, symName: __ZN4absl12lts_202407226StrCatIJNSt3__112basic_stringIcNS2_11char_traitsIcEENS2_9allocatorIcEEEEA30_cS8_EEES8_RKNS0_8AlphaNumESC_SC_SC_SC_DpRKT_, symObjAddr: 0x2144, symBinAddr: 0x32500, symSize: 0xD4 }
  - { offset: 0x186290, size: 0x8, addend: 0x0, symName: __ZNSt3__125__throw_bad_function_callB8ne190102Ev, symObjAddr: 0x2550, symBinAddr: 0x32818, symSize: 0x34 }
  - { offset: 0x187B99, size: 0x8, addend: 0x0, symName: __ZN4absl12lts_2024072214flags_internal15DynValueDeleterC2EPFPvNS1_6FlagOpEPKvS3_S3_E, symObjAddr: 0x58, symBinAddr: 0x30494, symSize: 0x8 }
  - { offset: 0x187BEC, size: 0x8, addend: 0x0, symName: __ZN4absl12lts_2024072214flags_internal15DynValueDeleterC1EPFPvNS1_6FlagOpEPKvS3_S3_E, symObjAddr: 0x60, symBinAddr: 0x3049C, symSize: 0x8 }
  - { offset: 0x187C15, size: 0x8, addend: 0x0, symName: __ZN4absl12lts_2024072214flags_internal15DynValueDeleterC1EPFPvNS1_6FlagOpEPKvS3_S3_E, symObjAddr: 0x60, symBinAddr: 0x3049C, symSize: 0x8 }
  - { offset: 0x187C36, size: 0x8, addend: 0x0, symName: __ZNK4absl12lts_2024072214flags_internal15DynValueDeleterclEPv, symObjAddr: 0x68, symBinAddr: 0x304A4, symSize: 0x20 }
  - { offset: 0x187CA0, size: 0x8, addend: 0x0, symName: __ZN4absl12lts_2024072214flags_internal13MaskedPointerC2EPvb, symObjAddr: 0x88, symBinAddr: 0x304C4, symSize: 0x14 }
  - { offset: 0x187CD3, size: 0x8, addend: 0x0, symName: __ZN4absl12lts_2024072214flags_internal13MaskedPointer9ApplyMaskEm, symObjAddr: 0x9C, symBinAddr: 0x304D8, symSize: 0x10 }
  - { offset: 0x187D31, size: 0x8, addend: 0x0, symName: __ZN4absl12lts_2024072214flags_internal13MaskedPointerC1EPvb, symObjAddr: 0xAC, symBinAddr: 0x304E8, symSize: 0x14 }
  - { offset: 0x187D66, size: 0x8, addend: 0x0, symName: __ZN4absl12lts_2024072214flags_internal13MaskedPointerC1EPvb, symObjAddr: 0xAC, symBinAddr: 0x304E8, symSize: 0x14 }
  - { offset: 0x187DBB, size: 0x8, addend: 0x0, symName: __ZNK4absl12lts_2024072214flags_internal13MaskedPointer26IsUnprotectedReadCandidateEv, symObjAddr: 0xC0, symBinAddr: 0x304FC, symSize: 0xC }
  - { offset: 0x187DE6, size: 0x8, addend: 0x0, symName: __ZNK4absl12lts_2024072214flags_internal13MaskedPointer26IsUnprotectedReadCandidateEv, symObjAddr: 0xC0, symBinAddr: 0x304FC, symSize: 0xC }
  - { offset: 0x187E06, size: 0x8, addend: 0x0, symName: __ZNK4absl12lts_2024072214flags_internal13MaskedPointer9CheckMaskEm, symObjAddr: 0xCC, symBinAddr: 0x30508, symSize: 0x10 }
  - { offset: 0x187E2F, size: 0x8, addend: 0x0, symName: __ZNK4absl12lts_2024072214flags_internal13MaskedPointer11HasBeenReadEv, symObjAddr: 0xDC, symBinAddr: 0x30518, symSize: 0xC }
  - { offset: 0x187E5A, size: 0x8, addend: 0x0, symName: __ZNK4absl12lts_2024072214flags_internal13MaskedPointer11HasBeenReadEv, symObjAddr: 0xDC, symBinAddr: 0x30518, symSize: 0xC }
  - { offset: 0x187EB3, size: 0x8, addend: 0x0, symName: __ZN4absl12lts_2024072214flags_internal13MaskedPointer3SetEPFPvNS1_6FlagOpEPKvS3_S3_ES6_b, symObjAddr: 0xE8, symBinAddr: 0x30524, symSize: 0x50 }
  - { offset: 0x187F6F, size: 0x8, addend: 0x0, symName: __ZN4absl12lts_2024072214flags_internal13MaskedPointer10MarkAsReadEv, symObjAddr: 0x138, symBinAddr: 0x30574, symSize: 0x10 }
  - { offset: 0x187F91, size: 0x8, addend: 0x0, symName: __ZN4absl12lts_2024072214flags_internal13MaskedPointer10MarkAsReadEv, symObjAddr: 0x138, symBinAddr: 0x30574, symSize: 0x10 }
  - { offset: 0x18820C, size: 0x8, addend: 0x0, symName: __ZN4absl12lts_2024072214flags_internal8FlagImpl4InitEv, symObjAddr: 0x148, symBinAddr: 0x30584, symSize: 0x16C }
  - { offset: 0x1886FB, size: 0x8, addend: 0x0, symName: __ZNK4absl12lts_2024072214flags_internal8FlagImpl17AtomicBufferValueEv, symObjAddr: 0x2F8, symBinAddr: 0x30734, symSize: 0x4C }
  - { offset: 0x1887B0, size: 0x8, addend: 0x0, symName: __ZNK4absl12lts_2024072214flags_internal8FlagImpl10PtrStorageEv, symObjAddr: 0x344, symBinAddr: 0x30780, symSize: 0x4C }
  - { offset: 0x1887BB, size: 0x8, addend: 0x0, symName: __ZNK4absl12lts_2024072214flags_internal8FlagImpl12OneWordValueEv, symObjAddr: 0x2B4, symBinAddr: 0x306F0, symSize: 0x44 }
  - { offset: 0x188870, size: 0x8, addend: 0x0, symName: __ZNK4absl12lts_2024072214flags_internal8FlagImpl17AtomicBufferValueEv, symObjAddr: 0x2F8, symBinAddr: 0x30734, symSize: 0x4C }
  - { offset: 0x18887B, size: 0x8, addend: 0x0, symName: __ZNK4absl12lts_2024072214flags_internal8FlagImpl10PtrStorageEv, symObjAddr: 0x344, symBinAddr: 0x30780, symSize: 0x4C }
  - { offset: 0x188930, size: 0x8, addend: 0x0, symName: __ZNK4absl12lts_2024072214flags_internal8FlagImpl9DataGuardEv, symObjAddr: 0x390, symBinAddr: 0x307CC, symSize: 0x5C }
  - { offset: 0x18893B, size: 0x8, addend: 0x0, symName: __ZN4absl12lts_2024072214flags_internal8FlagImpl4InitEv.cold.4, symObjAddr: 0x28AC, symBinAddr: 0x66DF0, symSize: 0x28 }
  - { offset: 0x188968, size: 0x8, addend: 0x0, symName: __ZN4absl12lts_2024072214flags_internal8FlagImpl4InitEv.cold.3, symObjAddr: 0x2884, symBinAddr: 0x66DC8, symSize: 0x28 }
  - { offset: 0x188980, size: 0x8, addend: 0x0, symName: __ZN4absl12lts_2024072214flags_internal8FlagImpl4InitEv.cold.2, symObjAddr: 0x285C, symBinAddr: 0x66DA0, symSize: 0x28 }
  - { offset: 0x188998, size: 0x8, addend: 0x0, symName: __ZN4absl12lts_2024072214flags_internal8FlagImpl4InitEv.cold.1, symObjAddr: 0x2834, symBinAddr: 0x66D78, symSize: 0x28 }
  - { offset: 0x1889E7, size: 0x8, addend: 0x0, symName: __ZNK4absl12lts_2024072214flags_internal8FlagImpl12OneWordValueEv.cold.1, symObjAddr: 0x28D4, symBinAddr: 0x66E18, symSize: 0x28 }
  - { offset: 0x188A36, size: 0x8, addend: 0x0, symName: __ZNK4absl12lts_2024072214flags_internal8FlagImpl17AtomicBufferValueEv.cold.1, symObjAddr: 0x28FC, symBinAddr: 0x66E40, symSize: 0x28 }
  - { offset: 0x188A85, size: 0x8, addend: 0x0, symName: __ZNK4absl12lts_2024072214flags_internal8FlagImpl10PtrStorageEv.cold.1, symObjAddr: 0x2924, symBinAddr: 0x66E68, symSize: 0x28 }
  - { offset: 0x188AF0, size: 0x8, addend: 0x0, symName: __ZNK4absl12lts_2024072214flags_internal8FlagImpl9DataGuardEv, symObjAddr: 0x390, symBinAddr: 0x307CC, symSize: 0x5C }
  - { offset: 0x188E6A, size: 0x8, addend: 0x0, symName: __ZNK4absl12lts_2024072214flags_internal8FlagImpl15AssertValidTypeEPKvPFPKSt9type_infovE, symObjAddr: 0x3EC, symBinAddr: 0x30828, symSize: 0x17C }
  - { offset: 0x189318, size: 0x8, addend: 0x0, symName: __ZNKSt9type_infoeqB8ne190102ERKS_, symObjAddr: 0x568, symBinAddr: 0x309A4, symSize: 0x4C }
  - { offset: 0x18942B, size: 0x8, addend: 0x0, symName: __ZNK4absl12lts_2024072214flags_internal8FlagImpl4NameEv, symObjAddr: 0x5B4, symBinAddr: 0x309F0, symSize: 0x38 }
  - { offset: 0x189607, size: 0x8, addend: 0x0, symName: __ZNK4absl12lts_2024072214flags_internal8FlagImpl13MakeInitValueEv, symObjAddr: 0x5EC, symBinAddr: 0x30A28, symSize: 0xC8 }
  - { offset: 0x189C41, size: 0x8, addend: 0x0, symName: __ZN4absl12lts_2024072214flags_internal8FlagImpl10StoreValueEPKvNS1_11ValueSourceE, symObjAddr: 0x6B4, symBinAddr: 0x30AF0, symSize: 0x2A8 }
  - { offset: 0x18A5E2, size: 0x8, addend: 0x0, symName: __ZN4absl12lts_2024072214flags_internal12SequenceLock5WriteEPNSt3__16atomicIyEEPKvm, symObjAddr: 0x95C, symBinAddr: 0x30D98, symSize: 0x8C }
  - { offset: 0x18A86E, size: 0x8, addend: 0x0, symName: __ZNK4absl12lts_2024072214flags_internal8FlagImpl14InvokeCallbackEv, symObjAddr: 0x9E8, symBinAddr: 0x30E24, symSize: 0x94 }
  - { offset: 0x18A879, size: 0x8, addend: 0x0, symName: __ZNK4absl12lts_2024072214flags_internal8FlagImpl14InvokeCallbackEv, symObjAddr: 0x9E8, symBinAddr: 0x30E24, symSize: 0x94 }
  - { offset: 0x18A9D8, size: 0x8, addend: 0x0, symName: __ZN4absl12lts_2024072214flags_internal8FlagImpl10StoreValueEPKvNS1_11ValueSourceE.cold.1, symObjAddr: 0x294C, symBinAddr: 0x66E90, symSize: 0x28 }
  - { offset: 0x18AAAC, size: 0x8, addend: 0x0, symName: __ZN4absl12lts_2024072214flags_internal12SequenceLock5WriteEPNSt3__16atomicIyEEPKvm.cold.1, symObjAddr: 0x299C, symBinAddr: 0x66EB8, symSize: 0x28 }
  - { offset: 0x18AEB8, size: 0x8, addend: 0x0, symName: __ZNK4absl12lts_2024072214flags_internal8FlagImpl8FilenameEv, symObjAddr: 0xA7C, symBinAddr: 0x30EB8, symSize: 0x1A4 }
  - { offset: 0x18B2A6, size: 0x8, addend: 0x0, symName: __ZN4absl12lts_2024072216FlagsUsageConfigD1Ev, symObjAddr: 0xC20, symBinAddr: 0x3105C, symSize: 0xF8 }
  - { offset: 0x18B5C6, size: 0x8, addend: 0x0, symName: __ZNK4absl12lts_2024072214flags_internal8FlagImpl4HelpEv, symObjAddr: 0xD18, symBinAddr: 0x31154, symSize: 0x18 }
  - { offset: 0x18B5F2, size: 0x8, addend: 0x0, symName: __ZNK4absl12lts_2024072214flags_internal8FlagImpl4HelpEv, symObjAddr: 0xD18, symBinAddr: 0x31154, symSize: 0x18 }
  - { offset: 0x18B7BF, size: 0x8, addend: 0x0, symName: __ZNK4absl12lts_2024072214flags_internal8FlagImpl6TypeIdEv, symObjAddr: 0xD30, symBinAddr: 0x3116C, symSize: 0x18 }
  - { offset: 0x18B84D, size: 0x8, addend: 0x0, symName: __ZNK4absl12lts_2024072214flags_internal8FlagImpl17ModificationCountEv, symObjAddr: 0xD48, symBinAddr: 0x31184, symSize: 0x1C }
  - { offset: 0x18B890, size: 0x8, addend: 0x0, symName: __ZNK4absl12lts_2024072214flags_internal8FlagImpl17ModificationCountEv, symObjAddr: 0xD48, symBinAddr: 0x31184, symSize: 0x1C }
  - { offset: 0x18B8B3, size: 0x8, addend: 0x0, symName: __ZNK4absl12lts_2024072214flags_internal8FlagImpl17ModificationCountEv, symObjAddr: 0xD48, symBinAddr: 0x31184, symSize: 0x1C }
  - { offset: 0x18B8D9, size: 0x8, addend: 0x0, symName: __ZNK4absl12lts_2024072214flags_internal8FlagImpl24IsSpecifiedOnCommandLineEv, symObjAddr: 0xD64, symBinAddr: 0x311A0, symSize: 0x3C }
  - { offset: 0x18B8E4, size: 0x8, addend: 0x0, symName: __ZNK4absl12lts_2024072214flags_internal8FlagImpl17ModificationCountEv.cold.1, symObjAddr: 0x29C4, symBinAddr: 0x66EE0, symSize: 0x28 }
  - { offset: 0x18B912, size: 0x8, addend: 0x0, symName: __ZNK4absl12lts_2024072214flags_internal8FlagImpl24IsSpecifiedOnCommandLineEv, symObjAddr: 0xD64, symBinAddr: 0x311A0, symSize: 0x3C }
  - { offset: 0x18BB42, size: 0x8, addend: 0x0, symName: __ZNK4absl12lts_2024072214flags_internal8FlagImpl12DefaultValueEv, symObjAddr: 0xDA0, symBinAddr: 0x311DC, symSize: 0xD8 }
  - { offset: 0x18BF47, size: 0x8, addend: 0x0, symName: __ZNSt3__110unique_ptrIvN4absl12lts_2024072214flags_internal15DynValueDeleterEE5resetB8ne190102EPv, symObjAddr: 0x1E48, symBinAddr: 0x32204, symSize: 0x38 }
  - { offset: 0x18BFE0, size: 0x8, addend: 0x0, symName: __ZNK4absl12lts_2024072214flags_internal8FlagImpl12CurrentValueEv, symObjAddr: 0xE78, symBinAddr: 0x312B4, symSize: 0x1DC }
  - { offset: 0x18C999, size: 0x8, addend: 0x0, symName: __ZNK4absl12lts_2024072214flags_internal8FlagImpl22ReadSequenceLockedDataEPv, symObjAddr: 0x1054, symBinAddr: 0x31490, symSize: 0xE0 }
  - { offset: 0x18CBF6, size: 0x8, addend: 0x0, symName: __ZNK4absl12lts_2024072214flags_internal12SequenceLock7TryReadEPvPKNSt3__16atomicIyEEm, symObjAddr: 0x13E0, symBinAddr: 0x66CF8, symSize: 0x80 }
  - { offset: 0x18CE51, size: 0x8, addend: 0x0, symName: __ZN4absl12lts_2024072214flags_internal8FlagImpl11SetCallbackEPFvvE, symObjAddr: 0x1134, symBinAddr: 0x31570, symSize: 0x7C }
  - { offset: 0x18D220, size: 0x8, addend: 0x0, symName: __ZN4absl12lts_2024072214flags_internal8FlagImpl9SaveStateEv, symObjAddr: 0x11B0, symBinAddr: 0x315EC, symSize: 0x230 }
  - { offset: 0x18D886, size: 0x8, addend: 0x0, symName: __ZN4absl12lts_2024072214flags_internal8FlagImpl12RestoreStateERKNS1_9FlagStateE, symObjAddr: 0x1460, symBinAddr: 0x3181C, symSize: 0xF4 }
  - { offset: 0x18DDFE, size: 0x8, addend: 0x0, symName: __ZNK4absl12lts_2024072214flags_internal8FlagImpl8TryParseENS0_11string_viewERNSt3__112basic_stringIcNS4_11char_traitsIcEENS4_9allocatorIcEEEE, symObjAddr: 0x1554, symBinAddr: 0x31910, symSize: 0x210 }
  - { offset: 0x18E7DB, size: 0x8, addend: 0x0, symName: __ZNK4absl12lts_2024072214flags_internal8FlagImpl4ReadEPv, symObjAddr: 0x1764, symBinAddr: 0x31B20, symSize: 0x10C }
  - { offset: 0x18EB0F, size: 0x8, addend: 0x0, symName: __ZNK4absl12lts_2024072214flags_internal8FlagImpl11ReadOneWordEv, symObjAddr: 0x1870, symBinAddr: 0x31C2C, symSize: 0x38 }
  - { offset: 0x18EBCA, size: 0x8, addend: 0x0, symName: __ZNK4absl12lts_2024072214flags_internal8FlagImpl11ReadOneBoolEv, symObjAddr: 0x18A8, symBinAddr: 0x31C64, symSize: 0x40 }
  - { offset: 0x18EBD5, size: 0x8, addend: 0x0, symName: __ZNK4absl12lts_2024072214flags_internal8FlagImpl11ReadOneWordEv.cold.1, symObjAddr: 0x29EC, symBinAddr: 0x66F08, symSize: 0x28 }
  - { offset: 0x18EBED, size: 0x8, addend: 0x0, symName: __ZNK4absl12lts_2024072214flags_internal8FlagImpl11ReadOneBoolEv, symObjAddr: 0x18A8, symBinAddr: 0x31C64, symSize: 0x40 }
  - { offset: 0x18ECA8, size: 0x8, addend: 0x0, symName: __ZN4absl12lts_2024072214flags_internal8FlagImpl5WriteEPKv, symObjAddr: 0x18E8, symBinAddr: 0x31CA4, symSize: 0x34C }
  - { offset: 0x18ECB3, size: 0x8, addend: 0x0, symName: __ZNK4absl12lts_2024072214flags_internal8FlagImpl11ReadOneBoolEv.cold.1, symObjAddr: 0x2A14, symBinAddr: 0x66F30, symSize: 0x28 }
  - { offset: 0x18ED41, size: 0x8, addend: 0x0, symName: __ZN4absl12lts_2024072214flags_internal8FlagImpl5WriteEPKv, symObjAddr: 0x18E8, symBinAddr: 0x31CA4, symSize: 0x34C }
  - { offset: 0x18FCF8, size: 0x8, addend: 0x0, symName: __ZN4absl12lts_2024072214flags_internal8FlagImpl9ParseFromENS0_11string_viewENS1_15FlagSettingModeENS1_11ValueSourceERNSt3__112basic_stringIcNS6_11char_traitsIcEENS6_9allocatorIcEEEE, symObjAddr: 0x1C34, symBinAddr: 0x31FF0, symSize: 0x214 }
  - { offset: 0x19023C, size: 0x8, addend: 0x0, symName: __ZNK4absl12lts_2024072214flags_internal8FlagImpl33CheckDefaultValueParsingRoundtripEv, symObjAddr: 0x1E80, symBinAddr: 0x3223C, symSize: 0x2C4 }
  - { offset: 0x1913CF, size: 0x8, addend: 0x0, symName: __ZNK4absl12lts_2024072214flags_internal8FlagImpl18ValidateInputValueENS0_11string_viewE, symObjAddr: 0x2218, symBinAddr: 0x325D4, symSize: 0x100 }
  - { offset: 0x191AF3, size: 0x8, addend: 0x0, symName: __ZNSt3__117bad_function_callD1Ev, symObjAddr: 0x2584, symBinAddr: 0x3284C, symSize: 0x4 }
  - { offset: 0x191B15, size: 0x8, addend: 0x0, symName: __ZNSt3__117bad_function_callD1Ev, symObjAddr: 0x2584, symBinAddr: 0x3284C, symSize: 0x4 }
  - { offset: 0x191B49, size: 0x8, addend: 0x0, symName: __ZNSt3__117bad_function_callD0Ev, symObjAddr: 0x2588, symBinAddr: 0x32850, symSize: 0x14 }
  - { offset: 0x191D18, size: 0x8, addend: 0x0, symName: __ZN4absl12lts_2024072214flags_internal9FlagStateD1Ev, symObjAddr: 0x2658, symBinAddr: 0x32864, symSize: 0x4 }
  - { offset: 0x191D23, size: 0x8, addend: 0x0, symName: __ZN4absl12lts_2024072214flags_internal9FlagStateD1Ev, symObjAddr: 0x2658, symBinAddr: 0x32864, symSize: 0x4 }
  - { offset: 0x191D45, size: 0x8, addend: 0x0, symName: __ZN4absl12lts_2024072214flags_internal9FlagStateD1Ev, symObjAddr: 0x2658, symBinAddr: 0x32864, symSize: 0x4 }
  - { offset: 0x191D58, size: 0x8, addend: 0x0, symName: __ZN4absl12lts_2024072214flags_internal9FlagStateD2Ev, symObjAddr: 0x27DC, symBinAddr: 0x329E8, symSize: 0x58 }
  - { offset: 0x191DF8, size: 0x8, addend: 0x0, symName: __ZN4absl12lts_2024072214flags_internal9FlagStateD0Ev, symObjAddr: 0x265C, symBinAddr: 0x32868, symSize: 0x14 }
  - { offset: 0x191E52, size: 0x8, addend: 0x0, symName: __ZNK4absl12lts_2024072214flags_internal9FlagState7RestoreEv, symObjAddr: 0x2670, symBinAddr: 0x3287C, symSize: 0x16C }
  - { offset: 0x1926D5, size: 0x8, addend: 0x0, symName: __GLOBAL__sub_I_flag.cc, symObjAddr: 0x2E54, symBinAddr: 0x32A40, symSize: 0x1C }
  - { offset: 0x1926EC, size: 0x8, addend: 0x0, symName: __GLOBAL__sub_I_flag.cc, symObjAddr: 0x2E54, symBinAddr: 0x32A40, symSize: 0x1C }
  - { offset: 0x197177, size: 0x8, addend: 0x0, symName: __ZN4absl12lts_2024072219str_format_internal12_GLOBAL__N_122FormatFPositiveExpSlowENS0_7uint128EiRKNS2_11FormatStateE, symObjAddr: 0x1A00, symBinAddr: 0x3444C, symSize: 0xAC }
  - { offset: 0x1973C4, size: 0x8, addend: 0x0, symName: __ZN4absl12lts_2024072219str_format_internal12_GLOBAL__N_122FormatFNegativeExpSlowENS0_7uint128EiRKNS2_11FormatStateE, symObjAddr: 0x1AAC, symBinAddr: 0x344F8, symSize: 0x1B4 }
  - { offset: 0x197E70, size: 0x8, addend: 0x0, symName: __ZN4absl12lts_2024072219str_format_internal12_GLOBAL__N_113FloatToBufferILNS2_11FormatStyleE1EeEEbNS2_10DecomposedIT0_EEmPNS2_6BufferEPi, symObjAddr: 0x1100, symBinAddr: 0x33B5C, symSize: 0x4CC }
  - { offset: 0x19823F, size: 0x8, addend: 0x0, symName: __ZN4absl12lts_2024072219str_format_internal12_GLOBAL__N_118FallbackToSnprintfIeEEbT_RKNS1_24FormatConversionSpecImplEPNS1_14FormatSinkImplE, symObjAddr: 0x15CC, symBinAddr: 0x34028, symSize: 0x204 }
  - { offset: 0x19825D, size: 0x8, addend: 0x0, symName: __ZN4absl12lts_2024072219str_format_internal12_GLOBAL__N_132PrintIntegralDigitsFromRightFastENS0_7uint128EPc, symObjAddr: 0x28DC, symBinAddr: 0x351B8, symSize: 0xA0 }
  - { offset: 0x1983B7, size: 0x8, addend: 0x0, symName: __ZN4absl12lts_2024072219str_format_internal12_GLOBAL__N_125PrintFractionalDigitsFastENS0_7uint128EPcim, symObjAddr: 0x297C, symBinAddr: 0x35258, symSize: 0x150 }
  - { offset: 0x1985D6, size: 0x8, addend: 0x0, symName: __ZN4absl12lts_2024072219str_format_internal12_GLOBAL__N_118FallbackToSnprintfIeEEbT_RKNS1_24FormatConversionSpecImplEPNS1_14FormatSinkImplE, symObjAddr: 0x15CC, symBinAddr: 0x34028, symSize: 0x204 }
  - { offset: 0x198E1C, size: 0x8, addend: 0x0, symName: __ZN4absl12lts_2024072219str_format_internal12_GLOBAL__N_110FinalPrintERKNS2_11FormatStateENS0_11string_viewEmmS6_, symObjAddr: 0x2ACC, symBinAddr: 0x353A8, symSize: 0x1C4 }
  - { offset: 0x199044, size: 0x8, addend: 0x0, symName: __ZN4absl12lts_2024072219str_format_internal12_GLOBAL__N_113PrintExponentEicPNS2_6BufferE, symObjAddr: 0x17D0, symBinAddr: 0x3422C, symSize: 0x160 }
  - { offset: 0x1991EF, size: 0x8, addend: 0x0, symName: __ZN4absl12lts_2024072219str_format_internal12_GLOBAL__N_117WriteBufferToSinkEcNS0_11string_viewERKNS1_24FormatConversionSpecImplEPNS1_14FormatSinkImplE, symObjAddr: 0x1930, symBinAddr: 0x3438C, symSize: 0xC0 }
  - { offset: 0x1991FA, size: 0x8, addend: 0x0, symName: __ZN4absl12lts_2024072219str_format_internal12_GLOBAL__N_117WriteBufferToSinkEcNS0_11string_viewERKNS1_24FormatConversionSpecImplEPNS1_14FormatSinkImplE, symObjAddr: 0x1930, symBinAddr: 0x3438C, symSize: 0xC0 }
  - { offset: 0x199353, size: 0x8, addend: 0x0, symName: __ZN4absl12lts_2024072219str_format_internal12_GLOBAL__N_111FloatToSinkIdEEbT_RKNS1_24FormatConversionSpecImplEPNS1_14FormatSinkImplE, symObjAddr: 0x8A0, symBinAddr: 0x332FC, symSize: 0x85C }
  - { offset: 0x19A7FE, size: 0x8, addend: 0x0, symName: __ZN4absl12lts_2024072219str_format_internal12_GLOBAL__N_113FloatToBufferILNS2_11FormatStyleE1EdEEbNS2_10DecomposedIT0_EEmPNS2_6BufferEPi, symObjAddr: 0x2F34, symBinAddr: 0x357D4, symSize: 0x49C }
  - { offset: 0x19AB9E, size: 0x8, addend: 0x0, symName: __ZN4absl12lts_2024072219str_format_internal12_GLOBAL__N_118FallbackToSnprintfIdEEbT_RKNS1_24FormatConversionSpecImplEPNS1_14FormatSinkImplE, symObjAddr: 0x33D0, symBinAddr: 0x35C70, symSize: 0x1FC }
  - { offset: 0x19ABBB, size: 0x8, addend: 0x0, symName: __ZN4absl12lts_2024072219str_format_internal12_GLOBAL__N_118FallbackToSnprintfIdEEbT_RKNS1_24FormatConversionSpecImplEPNS1_14FormatSinkImplE, symObjAddr: 0x33D0, symBinAddr: 0x35C70, symSize: 0x1FC }
  - { offset: 0x19B621, size: 0x8, addend: 0x0, symName: __ZN4absl12lts_2024072219str_format_internal12_GLOBAL__N_119PrintIntegralDigitsILNS2_11FormatStyleE1EoEEmT0_PNS2_6BufferE, symObjAddr: 0x2E68, symBinAddr: 0x35708, symSize: 0xCC }
  - { offset: 0x19B6D5, size: 0x8, addend: 0x0, symName: __ZN4absl12lts_2024072219str_format_internal12_GLOBAL__N_113FloatToBufferILNS2_11FormatStyleE1EdEEbNS2_10DecomposedIT0_EEmPNS2_6BufferEPi, symObjAddr: 0x2F34, symBinAddr: 0x357D4, symSize: 0x49C }
  - { offset: 0x19B6F2, size: 0x8, addend: 0x0, symName: __ZN4absl12lts_2024072219str_format_internal12_GLOBAL__N_119PrintIntegralDigitsILNS2_11FormatStyleE1EyEEmT0_PNS2_6BufferE, symObjAddr: 0x2CCC, symBinAddr: 0x3556C, symSize: 0x8C }
  - { offset: 0x19B7A6, size: 0x8, addend: 0x0, symName: __ZN4absl12lts_2024072219str_format_internal12_GLOBAL__N_120RemoveExtraPrecisionEmbPNS2_6BufferEPi, symObjAddr: 0x2D58, symBinAddr: 0x355F8, symSize: 0x74 }
  - { offset: 0x19B7C4, size: 0x8, addend: 0x0, symName: __ZN4absl12lts_2024072219str_format_internal12_GLOBAL__N_120RemoveExtraPrecisionEmbPNS2_6BufferEPi, symObjAddr: 0x2D58, symBinAddr: 0x355F8, symSize: 0x74 }
  - { offset: 0x19B8C9, size: 0x8, addend: 0x0, symName: __ZN4absl12lts_2024072219str_format_internal12_GLOBAL__N_17RoundUpILNS2_11FormatStyleE1EEEvPNS2_6BufferEPi, symObjAddr: 0x2DCC, symBinAddr: 0x3566C, symSize: 0x9C }
  - { offset: 0x19B981, size: 0x8, addend: 0x0, symName: __ZN4absl12lts_2024072219str_format_internal12_GLOBAL__N_119PrintIntegralDigitsILNS2_11FormatStyleE1EoEEmT0_PNS2_6BufferE, symObjAddr: 0x2E68, symBinAddr: 0x35708, symSize: 0xCC }
  - { offset: 0x19BCCB, size: 0x8, addend: 0x0, symName: __ZN4absl12lts_2024072219str_format_internal16ConvertFloatImplEeRKNS1_24FormatConversionSpecImplEPNS1_14FormatSinkImplE, symObjAddr: 0x0, symBinAddr: 0x32A5C, symSize: 0x898 }
  - { offset: 0x19CD13, size: 0x8, addend: 0x0, symName: __ZN4absl12lts_2024072219str_format_internal16ConvertFloatImplEfRKNS1_24FormatConversionSpecImplEPNS1_14FormatSinkImplE, symObjAddr: 0x898, symBinAddr: 0x332F4, symSize: 0x8 }
  - { offset: 0x19CD7A, size: 0x8, addend: 0x0, symName: __ZN4absl12lts_2024072219str_format_internal16ConvertFloatImplEdRKNS1_24FormatConversionSpecImplEPNS1_14FormatSinkImplE, symObjAddr: 0x10FC, symBinAddr: 0x33B58, symSize: 0x4 }
  - { offset: 0x19CDC7, size: 0x8, addend: 0x0, symName: __ZN4absl12lts_2024072219str_format_internal16ConvertFloatImplEdRKNS1_24FormatConversionSpecImplEPNS1_14FormatSinkImplE, symObjAddr: 0x10FC, symBinAddr: 0x33B58, symSize: 0x4 }
  - { offset: 0x19D1CB, size: 0x8, addend: 0x0, symName: __ZN4absl12lts_2024072219functional_internal12InvokeObjectIZNS0_19str_format_internal12_GLOBAL__N_115BinaryToDecimal13RunConversionENS0_7uint128EiNS0_11FunctionRefIFvS5_EEEEUlNS0_4SpanIjEEE_vJSB_EEET0_NS1_7VoidPtrEDpNS1_8ForwardTIT1_E4typeE, symObjAddr: 0x1F80, symBinAddr: 0x349CC, symSize: 0x264 }
  - { offset: 0x19D514, size: 0x8, addend: 0x0, symName: '__ZN4absl12lts_2024072219functional_internal12InvokeObjectIZNS0_19str_format_internal12_GLOBAL__N_122FormatFPositiveExpSlowENS0_7uint128EiRKNS4_11FormatStateEE3$_0vJNS4_15BinaryToDecimalEEEET0_NS1_7VoidPtrEDpNS1_8ForwardTIT1_E4typeE', symObjAddr: 0x2230, symBinAddr: 0x34C7C, symSize: 0x22C }
  - { offset: 0x19D84C, size: 0x8, addend: 0x0, symName: __ZN4absl12lts_2024072219functional_internal12InvokeObjectIZNS0_19str_format_internal12_GLOBAL__N_124FractionalDigitGenerator13RunConversionENS0_7uint128EiNS0_11FunctionRefIFvS5_EEEEUlNS0_4SpanIjEEE_vJSB_EEET0_NS1_7VoidPtrEDpNS1_8ForwardTIT1_E4typeE, symObjAddr: 0x25CC, symBinAddr: 0x34EA8, symSize: 0xFC }
  - { offset: 0x19DAFA, size: 0x8, addend: 0x0, symName: '__ZN4absl12lts_2024072219functional_internal12InvokeObjectIZNS0_19str_format_internal12_GLOBAL__N_122FormatFNegativeExpSlowENS0_7uint128EiRKNS4_11FormatStateEE3$_0vJNS4_24FractionalDigitGeneratorEEEET0_NS1_7VoidPtrEDpNS1_8ForwardTIT1_E4typeE', symObjAddr: 0x2758, symBinAddr: 0x35034, symSize: 0x184 }
  - { offset: 0x19E90B, size: 0x8, addend: 0x0, symName: __ZN4absl12lts_2024072219str_format_internal16ConvertFloatImplEeRKNS1_24FormatConversionSpecImplEPNS1_14FormatSinkImplE.cold.2, symObjAddr: 0x35F0, symBinAddr: 0x66F58, symSize: 0x28 }
  - { offset: 0x19E961, size: 0x8, addend: 0x0, symName: __ZN4absl12lts_2024072219str_format_internal16ConvertFloatImplEeRKNS1_24FormatConversionSpecImplEPNS1_14FormatSinkImplE.cold.4, symObjAddr: 0x363C, symBinAddr: 0x66F80, symSize: 0x24 }
  - { offset: 0x19EDC6, size: 0x8, addend: 0x0, symName: __ZN4absl12lts_2024072219str_format_internal12_GLOBAL__N_113FloatToBufferILNS2_11FormatStyleE1EeEEbNS2_10DecomposedIT0_EEmPNS2_6BufferEPi.cold.1, symObjAddr: 0x37CC, symBinAddr: 0x66FA4, symSize: 0x24 }
  - { offset: 0x19EE0A, size: 0x8, addend: 0x0, symName: __ZN4absl12lts_2024072219str_format_internal12_GLOBAL__N_113FloatToBufferILNS2_11FormatStyleE1EeEEbNS2_10DecomposedIT0_EEmPNS2_6BufferEPi.cold.2, symObjAddr: 0x37F0, symBinAddr: 0x66FC8, symSize: 0x24 }
  - { offset: 0x19F215, size: 0x8, addend: 0x0, symName: __ZN4absl12lts_2024072219str_format_internal12_GLOBAL__N_118FallbackToSnprintfIeEEbT_RKNS1_24FormatConversionSpecImplEPNS1_14FormatSinkImplE.cold.1, symObjAddr: 0x38EC, symBinAddr: 0x66FEC, symSize: 0x28 }
  - { offset: 0x19F3B9, size: 0x8, addend: 0x0, symName: __ZN4absl12lts_2024072219str_format_internal12_GLOBAL__N_110StackArray15RunWithCapacityEmNS0_11FunctionRefIFvNS0_4SpanIjEEEEE, symObjAddr: 0x1C60, symBinAddr: 0x346AC, symSize: 0xA0 }
  - { offset: 0x19F447, size: 0x8, addend: 0x0, symName: __ZN4absl12lts_2024072219str_format_internal12_GLOBAL__N_110StackArray19RunWithCapacityImplILm1EEEvNS0_11FunctionRefIFvNS0_4SpanIjEEEEE, symObjAddr: 0x1D00, symBinAddr: 0x3474C, symSize: 0xA0 }
  - { offset: 0x19F452, size: 0x8, addend: 0x0, symName: __ZN4absl12lts_2024072219str_format_internal12_GLOBAL__N_122FormatFPositiveExpSlowENS0_7uint128EiRKNS2_11FormatStateE.cold.2, symObjAddr: 0x3A5C, symBinAddr: 0x6703C, symSize: 0x28 }
  - { offset: 0x19F480, size: 0x8, addend: 0x0, symName: __ZN4absl12lts_2024072219str_format_internal12_GLOBAL__N_122FormatFPositiveExpSlowENS0_7uint128EiRKNS2_11FormatStateE.cold.1, symObjAddr: 0x3A34, symBinAddr: 0x67014, symSize: 0x28 }
  - { offset: 0x19F4D7, size: 0x8, addend: 0x0, symName: __ZN4absl12lts_2024072219str_format_internal12_GLOBAL__N_122FormatFNegativeExpSlowENS0_7uint128EiRKNS2_11FormatStateE.cold.1, symObjAddr: 0x3A84, symBinAddr: 0x67064, symSize: 0x28 }
  - { offset: 0x19F505, size: 0x8, addend: 0x0, symName: __ZN4absl12lts_2024072219str_format_internal12_GLOBAL__N_110StackArray19RunWithCapacityImplILm5EEEvNS0_11FunctionRefIFvNS0_4SpanIjEEEEE, symObjAddr: 0x1F08, symBinAddr: 0x34954, symSize: 0x78 }
  - { offset: 0x19F576, size: 0x8, addend: 0x0, symName: __ZN4absl12lts_2024072219str_format_internal12_GLOBAL__N_110StackArray19RunWithCapacityImplILm2EEEvNS0_11FunctionRefIFvNS0_4SpanIjEEEEE, symObjAddr: 0x1DA0, symBinAddr: 0x347EC, symSize: 0x78 }
  - { offset: 0x19F5E7, size: 0x8, addend: 0x0, symName: __ZN4absl12lts_2024072219str_format_internal12_GLOBAL__N_110StackArray19RunWithCapacityImplILm3EEEvNS0_11FunctionRefIFvNS0_4SpanIjEEEEE, symObjAddr: 0x1E18, symBinAddr: 0x34864, symSize: 0x78 }
  - { offset: 0x19F658, size: 0x8, addend: 0x0, symName: __ZN4absl12lts_2024072219str_format_internal12_GLOBAL__N_110StackArray19RunWithCapacityImplILm4EEEvNS0_11FunctionRefIFvNS0_4SpanIjEEEEE, symObjAddr: 0x1E90, symBinAddr: 0x348DC, symSize: 0x78 }
  - { offset: 0x19F6C9, size: 0x8, addend: 0x0, symName: __ZN4absl12lts_2024072219str_format_internal12_GLOBAL__N_110StackArray19RunWithCapacityImplILm1EEEvNS0_11FunctionRefIFvNS0_4SpanIjEEEEE, symObjAddr: 0x1D00, symBinAddr: 0x3474C, symSize: 0xA0 }
  - { offset: 0x19F73B, size: 0x8, addend: 0x0, symName: __ZN4absl12lts_2024072219str_format_internal12_GLOBAL__N_110StackArray15RunWithCapacityEmNS0_11FunctionRefIFvNS0_4SpanIjEEEEE.cold.2, symObjAddr: 0x3AD4, symBinAddr: 0x670B4, symSize: 0x28 }
  - { offset: 0x19F753, size: 0x8, addend: 0x0, symName: __ZN4absl12lts_2024072219str_format_internal12_GLOBAL__N_110StackArray15RunWithCapacityEmNS0_11FunctionRefIFvNS0_4SpanIjEEEEE.cold.1, symObjAddr: 0x3AAC, symBinAddr: 0x6708C, symSize: 0x28 }
  - { offset: 0x19F98C, size: 0x8, addend: 0x0, symName: __ZNK4absl12lts_202407224SpanIjEixEm, symObjAddr: 0x21E4, symBinAddr: 0x34C30, symSize: 0x4C }
  - { offset: 0x19FA21, size: 0x8, addend: 0x0, symName: __ZN4absl12lts_2024072219functional_internal12InvokeObjectIZNS0_19str_format_internal12_GLOBAL__N_115BinaryToDecimal13RunConversionENS0_7uint128EiNS0_11FunctionRefIFvS5_EEEEUlNS0_4SpanIjEEE_vJSB_EEET0_NS1_7VoidPtrEDpNS1_8ForwardTIT1_E4typeE.cold.1, symObjAddr: 0x3AFC, symBinAddr: 0x670DC, symSize: 0x28 }
  - { offset: 0x19FD03, size: 0x8, addend: 0x0, symName: __ZN4absl12lts_2024072219functional_internal12InvokeObjectIZNS0_19str_format_internal12_GLOBAL__N_124FractionalDigitGenerator13RunConversionENS0_7uint128EiNS0_11FunctionRefIFvS5_EEEEUlNS0_4SpanIjEEE_vJSB_EEET0_NS1_7VoidPtrEDpNS1_8ForwardTIT1_E4typeE, symObjAddr: 0x25CC, symBinAddr: 0x34EA8, symSize: 0xFC }
  - { offset: 0x19FE8D, size: 0x8, addend: 0x0, symName: __ZN4absl12lts_2024072219str_format_internal12_GLOBAL__N_124FractionalDigitGenerator11GetOneDigitEv, symObjAddr: 0x26C8, symBinAddr: 0x34FA4, symSize: 0x90 }
  - { offset: 0x1A0091, size: 0x8, addend: 0x0, symName: __ZN4absl12lts_2024072219str_format_internal12_GLOBAL__N_119PrintIntegralDigitsILNS2_11FormatStyleE1EyEEmT0_PNS2_6BufferE, symObjAddr: 0x2CCC, symBinAddr: 0x3556C, symSize: 0x8C }
  - { offset: 0x1A01A1, size: 0x8, addend: 0x0, symName: __ZN4absl12lts_2024072219str_format_internal12_GLOBAL__N_17RoundUpILNS2_11FormatStyleE1EEEvPNS2_6BufferEPi.cold.2, symObjAddr: 0x3C10, symBinAddr: 0x67104, symSize: 0x28 }
  - { offset: 0x1A036D, size: 0x8, addend: 0x0, symName: _OUTLINED_FUNCTION_0, symObjAddr: 0x3DC8, symBinAddr: 0x35E6C, symSize: 0x8 }
  - { offset: 0x1A0385, size: 0x8, addend: 0x0, symName: _OUTLINED_FUNCTION_2, symObjAddr: 0x3DD8, symBinAddr: 0x35E74, symSize: 0x8 }
  - { offset: 0x1A039D, size: 0x8, addend: 0x0, symName: _OUTLINED_FUNCTION_3, symObjAddr: 0x3DE0, symBinAddr: 0x35E7C, symSize: 0x8 }
  - { offset: 0x1A2269, size: 0x8, addend: 0x0, symName: __ZN4absl12lts_2024072212log_internal7FNMatchENS0_11string_viewES2_, symObjAddr: 0x0, symBinAddr: 0x35E84, symSize: 0x178 }
  - { offset: 0x1A2299, size: 0x8, addend: 0x0, symName: __ZN4absl12lts_2024072212log_internal7FNMatchENS0_11string_viewES2_, symObjAddr: 0x0, symBinAddr: 0x35E84, symSize: 0x178 }
  - { offset: 0x1A313F, size: 0x8, addend: 0x0, symName: __ZN4absl12lts_2024072212log_internal7FNMatchENS0_11string_viewES2_.cold.1, symObjAddr: 0x1B4, symBinAddr: 0x6712C, symSize: 0x28 }
  - { offset: 0x1A3169, size: 0x8, addend: 0x0, symName: __ZN4absl12lts_2024072212log_internal7FNMatchENS0_11string_viewES2_.cold.1, symObjAddr: 0x1B4, symBinAddr: 0x6712C, symSize: 0x28 }
  - { offset: 0x1A5195, size: 0x8, addend: 0x0, symName: __ZN4absl12lts_2024072210FormatTimeENS0_11string_viewENS0_4TimeENS0_8TimeZoneE, symObjAddr: 0x0, symBinAddr: 0x35FFC, symSize: 0x14C }
  - { offset: 0x1A51B9, size: 0x8, addend: 0x0, symName: __ZN4absl12lts_2024072212RFC3339_fullE, symObjAddr: 0x8A0, symBinAddr: 0x6FAE3, symSize: 0x0 }
  - { offset: 0x1A51D3, size: 0x8, addend: 0x0, symName: __ZN4absl12lts_2024072211RFC3339_secE, symObjAddr: 0x8B9, symBinAddr: 0x6FAFC, symSize: 0x0 }
  - { offset: 0x1A51ED, size: 0x8, addend: 0x0, symName: __ZN4absl12lts_2024072212RFC1123_fullE, symObjAddr: 0x8D0, symBinAddr: 0x6FB13, symSize: 0x0 }
  - { offset: 0x1A5207, size: 0x8, addend: 0x0, symName: __ZN4absl12lts_2024072215RFC1123_no_wdayE, symObjAddr: 0x8EB, symBinAddr: 0x6FB2E, symSize: 0x0 }
  - { offset: 0x1A5215, size: 0x8, addend: 0x0, symName: __ZN4absl12lts_202407229ParseTimeENS0_11string_viewES1_NS0_8TimeZoneEPNS0_4TimeEPNSt3__112basic_stringIcNS5_11char_traitsIcEENS5_9allocatorIcEEEE, symObjAddr: 0x214, symBinAddr: 0x36210, symSize: 0x2D4 }
  - { offset: 0x1A523F, size: 0x8, addend: 0x0, symName: __ZZN4absl12lts_202407229ParseTimeENS0_11string_viewES1_NS0_8TimeZoneEPNS0_4TimeEPNSt3__112basic_stringIcNS5_11char_traitsIcEENS5_9allocatorIcEEEEE8literals, symObjAddr: 0x920, symBinAddr: 0x85688, symSize: 0x0 }
  - { offset: 0x1A66BB, size: 0x8, addend: 0x0, symName: __ZN4absl12lts_2024072212_GLOBAL__N_118kInfiniteFutureStrE, symObjAddr: 0x902, symBinAddr: 0x6FB45, symSize: 0x0 }
  - { offset: 0x1A66D5, size: 0x8, addend: 0x0, symName: __ZN4absl12lts_2024072212_GLOBAL__N_116kInfinitePastStrE, symObjAddr: 0x912, symBinAddr: 0x6FB55, symSize: 0x0 }
  - { offset: 0x1A67B3, size: 0x8, addend: 0x0, symName: __ZN4absl12lts_2024072210FormatTimeENS0_11string_viewENS0_4TimeENS0_8TimeZoneE, symObjAddr: 0x0, symBinAddr: 0x35FFC, symSize: 0x14C }
  - { offset: 0x1A6C8B, size: 0x8, addend: 0x0, symName: __ZN4absl12lts_2024072210FormatTimeENS0_4TimeENS0_8TimeZoneE, symObjAddr: 0x14C, symBinAddr: 0x36148, symSize: 0x1C }
  - { offset: 0x1A6D09, size: 0x8, addend: 0x0, symName: __ZN4absl12lts_2024072210FormatTimeENS0_4TimeE, symObjAddr: 0x168, symBinAddr: 0x36164, symSize: 0x4C }
  - { offset: 0x1A6D7D, size: 0x8, addend: 0x0, symName: __ZN4absl12lts_202407229ParseTimeENS0_11string_viewES1_PNS0_4TimeEPNSt3__112basic_stringIcNS4_11char_traitsIcEENS4_9allocatorIcEEEE, symObjAddr: 0x1B4, symBinAddr: 0x361B0, symSize: 0x60 }
  - { offset: 0x1A6E25, size: 0x8, addend: 0x0, symName: __ZN4absl12lts_2024072213AbslParseFlagENS0_11string_viewEPNS0_4TimeEPNSt3__112basic_stringIcNS4_11char_traitsIcEENS4_9allocatorIcEEEE, symObjAddr: 0x4E8, symBinAddr: 0x364E4, symSize: 0x54 }
  - { offset: 0x1A6EA1, size: 0x8, addend: 0x0, symName: __ZN4absl12lts_2024072215AbslUnparseFlagENS0_4TimeE, symObjAddr: 0x53C, symBinAddr: 0x36538, symSize: 0x4C }
  - { offset: 0x1A6F03, size: 0x8, addend: 0x0, symName: __ZN4absl12lts_202407229ParseFlagERKNSt3__112basic_stringIcNS1_11char_traitsIcEENS1_9allocatorIcEEEEPNS0_4TimeEPS7_, symObjAddr: 0x588, symBinAddr: 0x36584, symSize: 0x64 }
  - { offset: 0x1A6FF5, size: 0x8, addend: 0x0, symName: __ZN4absl12lts_2024072211UnparseFlagENS0_4TimeE, symObjAddr: 0x5EC, symBinAddr: 0x365E8, symSize: 0x4C }
  - { offset: 0x1AC446, size: 0x8, addend: 0x0, symName: __ZN4absl12lts_2024072215random_internal26gaussian_distribution_base3zg_E, symObjAddr: 0x0, symBinAddr: 0x6FB68, symSize: 0x0 }
  - { offset: 0x1AEFEB, size: 0x8, addend: 0x0, symName: __ZN4absl12lts_2024072219SetAndroidNativeTagEPKc, symObjAddr: 0x400, symBinAddr: 0x36A24, symSize: 0x20C }
  - { offset: 0x1AF011, size: 0x8, addend: 0x0, symName: __ZZN4absl12lts_2024072219SetAndroidNativeTagEPKcE12user_log_tag, symObjAddr: 0x2D640, symBinAddr: 0x86D80, symSize: 0x0 }
  - { offset: 0x1AF898, size: 0x8, addend: 0x0, symName: __ZN4absl12lts_2024072212_GLOBAL__N_113min_log_levelE.0, symObjAddr: 0x2D648, symBinAddr: 0x86D88, symSize: 0x0 }
  - { offset: 0x1AF8B2, size: 0x8, addend: 0x0, symName: __ZN4absl12lts_2024072212_GLOBAL__N_115stderrthresholdE.0, symObjAddr: 0xC20, symBinAddr: 0x86A98, symSize: 0x0 }
  - { offset: 0x1AF8CC, size: 0x8, addend: 0x0, symName: __ZN4absl12lts_2024072212_GLOBAL__N_118prepend_log_prefixE.0, symObjAddr: 0xC24, symBinAddr: 0x86A9C, symSize: 0x0 }
  - { offset: 0x1AF8E6, size: 0x8, addend: 0x0, symName: __ZN4absl12lts_2024072212_GLOBAL__N_124logging_globals_listenerE, symObjAddr: 0xC28, symBinAddr: 0x86AA0, symSize: 0x0 }
  - { offset: 0x1AF900, size: 0x8, addend: 0x0, symName: __ZN4absl12lts_2024072212_GLOBAL__N_115android_log_tagE, symObjAddr: 0xC38, symBinAddr: 0x86AB0, symSize: 0x0 }
  - { offset: 0x1AF91A, size: 0x8, addend: 0x0, symName: __ZN4absl12lts_2024072212_GLOBAL__N_118kDefaultAndroidTagE, symObjAddr: 0xC18, symBinAddr: 0x70378, symSize: 0x0 }
  - { offset: 0x1AF934, size: 0x8, addend: 0x0, symName: __ZN4absl12lts_2024072212_GLOBAL__N_121log_backtrace_at_hashE.0, symObjAddr: 0x2D650, symBinAddr: 0x86D90, symSize: 0x0 }
  - { offset: 0x1B00CB, size: 0x8, addend: 0x0, symName: __ZN4absl12lts_2024072212log_internal17RawSetMinLogLevelENS0_18LogSeverityAtLeastE, symObjAddr: 0x0, symBinAddr: 0x36634, symSize: 0x10 }
  - { offset: 0x1B00E9, size: 0x8, addend: 0x0, symName: __ZN4absl12lts_2024072212log_internal17RawSetMinLogLevelENS0_18LogSeverityAtLeastE, symObjAddr: 0x0, symBinAddr: 0x36634, symSize: 0x10 }
  - { offset: 0x1B010A, size: 0x8, addend: 0x0, symName: __ZN4absl12lts_2024072212log_internal17RawSetMinLogLevelENS0_18LogSeverityAtLeastE, symObjAddr: 0x0, symBinAddr: 0x36634, symSize: 0x10 }
  - { offset: 0x1B012B, size: 0x8, addend: 0x0, symName: __ZN4absl12lts_2024072212log_internal21RawSetStderrThresholdENS0_18LogSeverityAtLeastE, symObjAddr: 0x10, symBinAddr: 0x36644, symSize: 0x10 }
  - { offset: 0x1B0149, size: 0x8, addend: 0x0, symName: __ZN4absl12lts_2024072212log_internal21RawSetStderrThresholdENS0_18LogSeverityAtLeastE, symObjAddr: 0x10, symBinAddr: 0x36644, symSize: 0x10 }
  - { offset: 0x1B016A, size: 0x8, addend: 0x0, symName: __ZN4absl12lts_2024072212log_internal21RawSetStderrThresholdENS0_18LogSeverityAtLeastE, symObjAddr: 0x10, symBinAddr: 0x36644, symSize: 0x10 }
  - { offset: 0x1B018B, size: 0x8, addend: 0x0, symName: __ZN4absl12lts_2024072212log_internal18RawEnableLogPrefixEb, symObjAddr: 0x20, symBinAddr: 0x36654, symSize: 0x10 }
  - { offset: 0x1B01AE, size: 0x8, addend: 0x0, symName: __ZN4absl12lts_2024072212log_internal18RawEnableLogPrefixEb, symObjAddr: 0x20, symBinAddr: 0x36654, symSize: 0x10 }
  - { offset: 0x1B01D4, size: 0x8, addend: 0x0, symName: __ZN4absl12lts_2024072212log_internal18RawEnableLogPrefixEb, symObjAddr: 0x20, symBinAddr: 0x36654, symSize: 0x10 }
  - { offset: 0x1B01F5, size: 0x8, addend: 0x0, symName: __ZN4absl12lts_2024072212log_internal25SetLoggingGlobalsListenerEPFvvE, symObjAddr: 0x30, symBinAddr: 0x36664, symSize: 0x10 }
  - { offset: 0x1B02CA, size: 0x8, addend: 0x0, symName: __ZN4absl12lts_2024072212log_internal19GetAndroidNativeTagEv, symObjAddr: 0x3F0, symBinAddr: 0x36A14, symSize: 0x10 }
  - { offset: 0x1B02EB, size: 0x8, addend: 0x0, symName: __ZN4absl12lts_2024072212log_internal19GetAndroidNativeTagEv, symObjAddr: 0x3F0, symBinAddr: 0x36A14, symSize: 0x10 }
  - { offset: 0x1B030E, size: 0x8, addend: 0x0, symName: __ZN4absl12lts_2024072212log_internal19GetAndroidNativeTagEv, symObjAddr: 0x3F0, symBinAddr: 0x36A14, symSize: 0x10 }
  - { offset: 0x1B0331, size: 0x8, addend: 0x0, symName: __ZN4absl12lts_2024072212log_internal20ShouldLogBacktraceAtENS0_11string_viewEi, symObjAddr: 0x60C, symBinAddr: 0x36C30, symSize: 0x8C }
  - { offset: 0x1B0761, size: 0x8, addend: 0x0, symName: __ZN4absl12lts_2024072211MinLogLevelEv, symObjAddr: 0x98, symBinAddr: 0x366CC, symSize: 0x10 }
  - { offset: 0x1B0778, size: 0x8, addend: 0x0, symName: __ZN4absl12lts_2024072211MinLogLevelEv, symObjAddr: 0x98, symBinAddr: 0x366CC, symSize: 0x10 }
  - { offset: 0x1B0792, size: 0x8, addend: 0x0, symName: __ZN4absl12lts_2024072211MinLogLevelEv, symObjAddr: 0x98, symBinAddr: 0x366CC, symSize: 0x10 }
  - { offset: 0x1B07AC, size: 0x8, addend: 0x0, symName: __ZN4absl12lts_2024072214SetMinLogLevelENS0_18LogSeverityAtLeastE, symObjAddr: 0xA8, symBinAddr: 0x366DC, symSize: 0x34 }
  - { offset: 0x1B08C8, size: 0x8, addend: 0x0, symName: __ZN4absl12lts_2024072215StderrThresholdEv, symObjAddr: 0x24C, symBinAddr: 0x36870, symSize: 0x10 }
  - { offset: 0x1B08DF, size: 0x8, addend: 0x0, symName: __ZN4absl12lts_2024072215StderrThresholdEv, symObjAddr: 0x24C, symBinAddr: 0x36870, symSize: 0x10 }
  - { offset: 0x1B08F9, size: 0x8, addend: 0x0, symName: __ZN4absl12lts_2024072215StderrThresholdEv, symObjAddr: 0x24C, symBinAddr: 0x36870, symSize: 0x10 }
  - { offset: 0x1B0913, size: 0x8, addend: 0x0, symName: __ZN4absl12lts_2024072218SetStderrThresholdENS0_18LogSeverityAtLeastE, symObjAddr: 0x25C, symBinAddr: 0x36880, symSize: 0x34 }
  - { offset: 0x1B0B10, size: 0x8, addend: 0x0, symName: __ZN4absl12lts_2024072223SetLogBacktraceLocationENS0_11string_viewEi, symObjAddr: 0x698, symBinAddr: 0x36CBC, symSize: 0x70 }
  - { offset: 0x1B0F2C, size: 0x8, addend: 0x0, symName: __ZN4absl12lts_2024072225ClearLogBacktraceLocationEv, symObjAddr: 0x708, symBinAddr: 0x36D2C, symSize: 0xC }
  - { offset: 0x1B0F49, size: 0x8, addend: 0x0, symName: __ZN4absl12lts_2024072225ClearLogBacktraceLocationEv, symObjAddr: 0x708, symBinAddr: 0x36D2C, symSize: 0xC }
  - { offset: 0x1B0F69, size: 0x8, addend: 0x0, symName: __ZN4absl12lts_2024072225ClearLogBacktraceLocationEv, symObjAddr: 0x708, symBinAddr: 0x36D2C, symSize: 0xC }
  - { offset: 0x1B0F88, size: 0x8, addend: 0x0, symName: __ZN4absl12lts_2024072222ShouldPrependLogPrefixEv, symObjAddr: 0x714, symBinAddr: 0x36D38, symSize: 0x14 }
  - { offset: 0x1B0FA9, size: 0x8, addend: 0x0, symName: __ZN4absl12lts_2024072222ShouldPrependLogPrefixEv, symObjAddr: 0x714, symBinAddr: 0x36D38, symSize: 0x14 }
  - { offset: 0x1B0FC3, size: 0x8, addend: 0x0, symName: __ZN4absl12lts_2024072222ShouldPrependLogPrefixEv, symObjAddr: 0x714, symBinAddr: 0x36D38, symSize: 0x14 }
  - { offset: 0x1B0FDD, size: 0x8, addend: 0x0, symName: __ZN4absl12lts_2024072215EnableLogPrefixEb, symObjAddr: 0x728, symBinAddr: 0x36D4C, symSize: 0x34 }
  - { offset: 0x1B58CB, size: 0x8, addend: 0x0, symName: __ZN4absl12lts_2024072213base_internal10AtomicHookIPFvvEE5StoreES4_, symObjAddr: 0x40, symBinAddr: 0x36674, symSize: 0x58 }
  - { offset: 0x1B59A1, size: 0x8, addend: 0x0, symName: __ZN4absl12lts_2024072211MinLogLevelEv, symObjAddr: 0x98, symBinAddr: 0x366CC, symSize: 0x10 }
  - { offset: 0x1B5A44, size: 0x8, addend: 0x0, symName: __ZN4absl12lts_2024072213base_internal10AtomicHookIPFvvEE5StoreES4_.cold.2, symObjAddr: 0x9C4, symBinAddr: 0x6717C, symSize: 0x28 }
  - { offset: 0x1B5A71, size: 0x8, addend: 0x0, symName: __ZN4absl12lts_2024072213base_internal10AtomicHookIPFvvEE5StoreES4_.cold.1, symObjAddr: 0x99C, symBinAddr: 0x67154, symSize: 0x28 }
  - { offset: 0x1B5B3B, size: 0x8, addend: 0x0, symName: __ZN4absl12lts_2024072212log_internal17ScopedMinLogLevelC2ENS0_18LogSeverityAtLeastE, symObjAddr: 0xDC, symBinAddr: 0x36710, symSize: 0x58 }
  - { offset: 0x1B5CE5, size: 0x8, addend: 0x0, symName: __ZN4absl12lts_2024072212log_internal17ScopedMinLogLevelC1ENS0_18LogSeverityAtLeastE, symObjAddr: 0x134, symBinAddr: 0x36768, symSize: 0x58 }
  - { offset: 0x1B5E97, size: 0x8, addend: 0x0, symName: __ZN4absl12lts_2024072212log_internal17ScopedMinLogLevelD2Ev, symObjAddr: 0x18C, symBinAddr: 0x367C0, symSize: 0x58 }
  - { offset: 0x1B5FC7, size: 0x8, addend: 0x0, symName: __ZN4absl12lts_2024072212log_internal17ScopedMinLogLevelD1Ev, symObjAddr: 0x1F4, symBinAddr: 0x36818, symSize: 0x58 }
  - { offset: 0x1B6112, size: 0x8, addend: 0x0, symName: __ZN4absl12lts_2024072221ScopedStderrThresholdC2ENS0_18LogSeverityAtLeastE, symObjAddr: 0x290, symBinAddr: 0x368B4, symSize: 0x58 }
  - { offset: 0x1B62BC, size: 0x8, addend: 0x0, symName: __ZN4absl12lts_2024072221ScopedStderrThresholdC1ENS0_18LogSeverityAtLeastE, symObjAddr: 0x2E8, symBinAddr: 0x3690C, symSize: 0x58 }
  - { offset: 0x1B646E, size: 0x8, addend: 0x0, symName: __ZN4absl12lts_2024072221ScopedStderrThresholdD2Ev, symObjAddr: 0x340, symBinAddr: 0x36964, symSize: 0x58 }
  - { offset: 0x1B659E, size: 0x8, addend: 0x0, symName: __ZN4absl12lts_2024072221ScopedStderrThresholdD1Ev, symObjAddr: 0x398, symBinAddr: 0x369BC, symSize: 0x58 }
  - { offset: 0x1B6F79, size: 0x8, addend: 0x0, symName: __ZN4absl12lts_2024072213hash_internal15MixingHashState18combine_contiguousES2_PKhm, symObjAddr: 0x760, symBinAddr: 0x36D84, symSize: 0x10C }
  - { offset: 0x1B71FC, size: 0x8, addend: 0x0, symName: __ZN4absl12lts_2024072213base_internal10AtomicHookIPFvvEE13DummyFunctionEv, symObjAddr: 0x75C, symBinAddr: 0x36D80, symSize: 0x4 }
  - { offset: 0x1B93D3, size: 0x8, addend: 0x0, symName: __ZN4absl12lts_2024072212log_internal13IsInitializedEv, symObjAddr: 0x0, symBinAddr: 0x36E90, symSize: 0x14 }
  - { offset: 0x1B9410, size: 0x8, addend: 0x0, symName: __ZN4absl12lts_2024072212log_internal12_GLOBAL__N_119logging_initializedE.0, symObjAddr: 0x1C6B8, symBinAddr: 0x86D98, symSize: 0x0 }
  - { offset: 0x1B942A, size: 0x8, addend: 0x0, symName: __ZN4absl12lts_2024072212log_internal12_GLOBAL__N_112timezone_ptrE, symObjAddr: 0x1C6C0, symBinAddr: 0x86DA0, symSize: 0x0 }
  - { offset: 0x1B9444, size: 0x8, addend: 0x0, symName: __ZN4absl12lts_2024072212log_internal12_GLOBAL__N_121symbolize_stack_traceE.0, symObjAddr: 0x244, symBinAddr: 0x86AB8, symSize: 0x0 }
  - { offset: 0x1B945E, size: 0x8, addend: 0x0, symName: __ZN4absl12lts_2024072212log_internal12_GLOBAL__N_125max_frames_in_stack_traceE.0, symObjAddr: 0x248, symBinAddr: 0x86ABC, symSize: 0x0 }
  - { offset: 0x1B9478, size: 0x8, addend: 0x0, symName: __ZN4absl12lts_2024072212log_internal12_GLOBAL__N_114exit_on_dfatalE.0, symObjAddr: 0x24C, symBinAddr: 0x86AC0, symSize: 0x0 }
  - { offset: 0x1B9492, size: 0x8, addend: 0x0, symName: __ZN4absl12lts_2024072212log_internal12_GLOBAL__N_123suppress_sigabort_traceE, symObjAddr: 0x1C6C8, symBinAddr: 0x86DA8, symSize: 0x0 }
  - { offset: 0x1B94A0, size: 0x8, addend: 0x0, symName: __ZN4absl12lts_2024072212log_internal13IsInitializedEv, symObjAddr: 0x0, symBinAddr: 0x36E90, symSize: 0x14 }
  - { offset: 0x1B94C1, size: 0x8, addend: 0x0, symName: __ZN4absl12lts_2024072212log_internal13IsInitializedEv, symObjAddr: 0x0, symBinAddr: 0x36E90, symSize: 0x14 }
  - { offset: 0x1B94DB, size: 0x8, addend: 0x0, symName: __ZN4absl12lts_2024072212log_internal13IsInitializedEv, symObjAddr: 0x0, symBinAddr: 0x36E90, symSize: 0x14 }
  - { offset: 0x1B94F5, size: 0x8, addend: 0x0, symName: __ZN4absl12lts_2024072212log_internal14SetInitializedEv, symObjAddr: 0x14, symBinAddr: 0x36EA4, symSize: 0x14 }
  - { offset: 0x1B9512, size: 0x8, addend: 0x0, symName: __ZN4absl12lts_2024072212log_internal14SetInitializedEv, symObjAddr: 0x14, symBinAddr: 0x36EA4, symSize: 0x14 }
  - { offset: 0x1B9534, size: 0x8, addend: 0x0, symName: __ZN4absl12lts_2024072212log_internal14SetInitializedEv, symObjAddr: 0x14, symBinAddr: 0x36EA4, symSize: 0x14 }
  - { offset: 0x1B9554, size: 0x8, addend: 0x0, symName: __ZN4absl12lts_2024072212log_internal13WriteToStderrENS0_11string_viewENS0_11LogSeverityE, symObjAddr: 0x28, symBinAddr: 0x36EB8, symSize: 0x1C }
  - { offset: 0x1B95A0, size: 0x8, addend: 0x0, symName: __ZN4absl12lts_2024072212log_internal11SetTimeZoneENS0_8TimeZoneE, symObjAddr: 0x44, symBinAddr: 0x36ED4, symSize: 0x48 }
  - { offset: 0x1B9651, size: 0x8, addend: 0x0, symName: __ZN4absl12lts_2024072212log_internal8TimeZoneEv, symObjAddr: 0x8C, symBinAddr: 0x36F1C, symSize: 0x10 }
  - { offset: 0x1B965B, size: 0x8, addend: 0x0, symName: __ZN4absl12lts_2024072212log_internal8TimeZoneEv, symObjAddr: 0x8C, symBinAddr: 0x36F1C, symSize: 0x10 }
  - { offset: 0x1B967C, size: 0x8, addend: 0x0, symName: __ZN4absl12lts_2024072212log_internal8TimeZoneEv, symObjAddr: 0x8C, symBinAddr: 0x36F1C, symSize: 0x10 }
  - { offset: 0x1B969F, size: 0x8, addend: 0x0, symName: __ZN4absl12lts_2024072212log_internal8TimeZoneEv, symObjAddr: 0x8C, symBinAddr: 0x36F1C, symSize: 0x10 }
  - { offset: 0x1B96C1, size: 0x8, addend: 0x0, symName: __ZN4absl12lts_2024072212log_internal28ShouldSymbolizeLogStackTraceEv, symObjAddr: 0x9C, symBinAddr: 0x36F2C, symSize: 0x14 }
  - { offset: 0x1B96E2, size: 0x8, addend: 0x0, symName: __ZN4absl12lts_2024072212log_internal28ShouldSymbolizeLogStackTraceEv, symObjAddr: 0x9C, symBinAddr: 0x36F2C, symSize: 0x14 }
  - { offset: 0x1B96FC, size: 0x8, addend: 0x0, symName: __ZN4absl12lts_2024072212log_internal28ShouldSymbolizeLogStackTraceEv, symObjAddr: 0x9C, symBinAddr: 0x36F2C, symSize: 0x14 }
  - { offset: 0x1B9716, size: 0x8, addend: 0x0, symName: __ZN4absl12lts_2024072212log_internal28EnableSymbolizeLogStackTraceEb, symObjAddr: 0xB0, symBinAddr: 0x36F40, symSize: 0x10 }
  - { offset: 0x1B9745, size: 0x8, addend: 0x0, symName: __ZN4absl12lts_2024072212log_internal28EnableSymbolizeLogStackTraceEb, symObjAddr: 0xB0, symBinAddr: 0x36F40, symSize: 0x10 }
  - { offset: 0x1B976B, size: 0x8, addend: 0x0, symName: __ZN4absl12lts_2024072212log_internal28EnableSymbolizeLogStackTraceEb, symObjAddr: 0xB0, symBinAddr: 0x36F40, symSize: 0x10 }
  - { offset: 0x1B978B, size: 0x8, addend: 0x0, symName: __ZN4absl12lts_2024072212log_internal24MaxFramesInLogStackTraceEv, symObjAddr: 0xC0, symBinAddr: 0x36F50, symSize: 0x10 }
  - { offset: 0x1B97AC, size: 0x8, addend: 0x0, symName: __ZN4absl12lts_2024072212log_internal24MaxFramesInLogStackTraceEv, symObjAddr: 0xC0, symBinAddr: 0x36F50, symSize: 0x10 }
  - { offset: 0x1B97C6, size: 0x8, addend: 0x0, symName: __ZN4absl12lts_2024072212log_internal24MaxFramesInLogStackTraceEv, symObjAddr: 0xC0, symBinAddr: 0x36F50, symSize: 0x10 }
  - { offset: 0x1B97E0, size: 0x8, addend: 0x0, symName: __ZN4absl12lts_2024072212log_internal27SetMaxFramesInLogStackTraceEi, symObjAddr: 0xD0, symBinAddr: 0x36F60, symSize: 0x10 }
  - { offset: 0x1B980A, size: 0x8, addend: 0x0, symName: __ZN4absl12lts_2024072212log_internal27SetMaxFramesInLogStackTraceEi, symObjAddr: 0xD0, symBinAddr: 0x36F60, symSize: 0x10 }
  - { offset: 0x1B982B, size: 0x8, addend: 0x0, symName: __ZN4absl12lts_2024072212log_internal27SetMaxFramesInLogStackTraceEi, symObjAddr: 0xD0, symBinAddr: 0x36F60, symSize: 0x10 }
  - { offset: 0x1B984B, size: 0x8, addend: 0x0, symName: __ZN4absl12lts_2024072212log_internal12ExitOnDFatalEv, symObjAddr: 0xE0, symBinAddr: 0x36F70, symSize: 0x14 }
  - { offset: 0x1B986C, size: 0x8, addend: 0x0, symName: __ZN4absl12lts_2024072212log_internal12ExitOnDFatalEv, symObjAddr: 0xE0, symBinAddr: 0x36F70, symSize: 0x14 }
  - { offset: 0x1B9886, size: 0x8, addend: 0x0, symName: __ZN4absl12lts_2024072212log_internal12ExitOnDFatalEv, symObjAddr: 0xE0, symBinAddr: 0x36F70, symSize: 0x14 }
  - { offset: 0x1B98A0, size: 0x8, addend: 0x0, symName: __ZN4absl12lts_2024072212log_internal15SetExitOnDFatalEb, symObjAddr: 0xF4, symBinAddr: 0x36F84, symSize: 0x10 }
  - { offset: 0x1B98CF, size: 0x8, addend: 0x0, symName: __ZN4absl12lts_2024072212log_internal15SetExitOnDFatalEb, symObjAddr: 0xF4, symBinAddr: 0x36F84, symSize: 0x10 }
  - { offset: 0x1B98F5, size: 0x8, addend: 0x0, symName: __ZN4absl12lts_2024072212log_internal15SetExitOnDFatalEb, symObjAddr: 0xF4, symBinAddr: 0x36F84, symSize: 0x10 }
  - { offset: 0x1B9915, size: 0x8, addend: 0x0, symName: __ZN4absl12lts_2024072212log_internal21SuppressSigabortTraceEv, symObjAddr: 0x104, symBinAddr: 0x36F94, symSize: 0x14 }
  - { offset: 0x1B9936, size: 0x8, addend: 0x0, symName: __ZN4absl12lts_2024072212log_internal21SuppressSigabortTraceEv, symObjAddr: 0x104, symBinAddr: 0x36F94, symSize: 0x14 }
  - { offset: 0x1B9959, size: 0x8, addend: 0x0, symName: __ZN4absl12lts_2024072212log_internal21SuppressSigabortTraceEv, symObjAddr: 0x104, symBinAddr: 0x36F94, symSize: 0x14 }
  - { offset: 0x1B997B, size: 0x8, addend: 0x0, symName: __ZN4absl12lts_2024072212log_internal24SetSuppressSigabortTraceEb, symObjAddr: 0x118, symBinAddr: 0x36FA8, symSize: 0x20 }
  - { offset: 0x1BCBA2, size: 0x8, addend: 0x0, symName: __ZN4absl12lts_2024072212log_internal11SetTimeZoneENS0_8TimeZoneE.cold.1, symObjAddr: 0x138, symBinAddr: 0x671A4, symSize: 0x44 }
  - { offset: 0x1BE9B4, size: 0x8, addend: 0x0, symName: __ZN4absl12lts_2024072224synchronization_internal12_GLOBAL__N_18arena_muE, symObjAddr: 0x24A20, symBinAddr: 0x86DB8, symSize: 0x0 }
  - { offset: 0x1BE9CE, size: 0x8, addend: 0x0, symName: __ZN4absl12lts_2024072224synchronization_internal12_GLOBAL__N_15arenaE, symObjAddr: 0x24A18, symBinAddr: 0x86DB0, symSize: 0x0 }
  - { offset: 0x1BF54A, size: 0x8, addend: 0x0, symName: __ZN4absl12lts_2024072224synchronization_internalL10MoveToListEPNS1_11GraphCycles3RepEPNS1_12_GLOBAL__N_13VecIiEES8_, symObjAddr: 0x156C, symBinAddr: 0x38524, symSize: 0x70 }
  - { offset: 0x1BF594, size: 0x8, addend: 0x0, symName: __ZN4absl12lts_2024072224synchronization_internalL10MoveToListEPNS1_11GraphCycles3RepEPNS1_12_GLOBAL__N_13VecIiEES8_, symObjAddr: 0x156C, symBinAddr: 0x38524, symSize: 0x70 }
  - { offset: 0x1BF5CF, size: 0x8, addend: 0x0, symName: __ZN4absl12lts_2024072224synchronization_internalL10MoveToListEPNS1_11GraphCycles3RepEPNS1_12_GLOBAL__N_13VecIiEES8_, symObjAddr: 0x156C, symBinAddr: 0x38524, symSize: 0x70 }
  - { offset: 0x1BF7DF, size: 0x8, addend: 0x0, symName: __ZNSt3__111__introsortINS_17_ClassicAlgPolicyERZN4absl12lts_2024072224synchronization_internalL4SortERKNS4_12_GLOBAL__N_13VecIPNS5_4NodeEEEPNS6_IiEEE6ByRankPiLb0EEEvT1_SH_T0_NS_15iterator_traitsISH_E15difference_typeEb, symObjAddr: 0x15DC, symBinAddr: 0x38594, symSize: 0x82C }
  - { offset: 0x1C055A, size: 0x8, addend: 0x0, symName: __ZNSt3__127__insertion_sort_incompleteB8ne190102INS_17_ClassicAlgPolicyERZN4absl12lts_2024072224synchronization_internalL4SortERKNS4_12_GLOBAL__N_13VecIPNS5_4NodeEEEPNS6_IiEEE6ByRankPiEEbT1_SH_T0_, symObjAddr: 0x1EB4, symBinAddr: 0x38E6C, symSize: 0x238 }
  - { offset: 0x1C1D9F, size: 0x8, addend: 0x0, symName: __ZNSt3__17__sort3B8ne190102INS_17_ClassicAlgPolicyERZN4absl12lts_2024072224synchronization_internalL4SortERKNS4_12_GLOBAL__N_13VecIPNS5_4NodeEEEPNS6_IiEEE6ByRankPiEEjT1_SH_SH_T0_, symObjAddr: 0x1E08, symBinAddr: 0x38DC0, symSize: 0xAC }
  - { offset: 0x1C20CE, size: 0x8, addend: 0x0, symName: __ZNSt3__17__sort4B8ne190102INS_17_ClassicAlgPolicyERZN4absl12lts_2024072224synchronization_internalL4SortERKNS4_12_GLOBAL__N_13VecIPNS5_4NodeEEEPNS6_IiEEE6ByRankPiEEvT1_SH_SH_SH_T0_, symObjAddr: 0x20EC, symBinAddr: 0x390A4, symSize: 0xC4 }
  - { offset: 0x1C3339, size: 0x8, addend: 0x0, symName: __ZN4absl12lts_2024072224synchronization_internal11GraphCycles16TestOnlyAddNodesEj, symObjAddr: 0x0, symBinAddr: 0x36FC8, symSize: 0x6C }
  - { offset: 0x1C341C, size: 0x8, addend: 0x0, symName: __ZN4absl12lts_2024072224synchronization_internal12_GLOBAL__N_13VecIPNS2_4NodeEE4GrowEj, symObjAddr: 0x21B0, symBinAddr: 0x39168, symSize: 0x7C }
  - { offset: 0x1C36E6, size: 0x8, addend: 0x0, symName: __ZN4absl12lts_2024072224synchronization_internal11GraphCyclesC2Ev, symObjAddr: 0x6C, symBinAddr: 0x37034, symSize: 0xCC }
  - { offset: 0x1C38AE, size: 0x8, addend: 0x0, symName: __ZN4absl12lts_2024072224synchronization_internal11GraphCycles3RepC2Ev, symObjAddr: 0x1338, symBinAddr: 0x382F0, symSize: 0xB4 }
  - { offset: 0x1C3C07, size: 0x8, addend: 0x0, symName: __ZN4absl12lts_2024072224synchronization_internal11GraphCyclesC1Ev, symObjAddr: 0x138, symBinAddr: 0x37100, symSize: 0x4 }
  - { offset: 0x1C3C35, size: 0x8, addend: 0x0, symName: __ZN4absl12lts_2024072224synchronization_internal11GraphCyclesC1Ev, symObjAddr: 0x138, symBinAddr: 0x37100, symSize: 0x4 }
  - { offset: 0x1C3D5E, size: 0x8, addend: 0x0, symName: __ZN4absl12lts_2024072224synchronization_internal11GraphCyclesD2Ev, symObjAddr: 0x13C, symBinAddr: 0x37104, symSize: 0xD4 }
  - { offset: 0x1C3FAF, size: 0x8, addend: 0x0, symName: __ZN4absl12lts_2024072224synchronization_internal12_GLOBAL__N_13VecIiED1Ev, symObjAddr: 0x13EC, symBinAddr: 0x383A4, symSize: 0x38 }
  - { offset: 0x1C400C, size: 0x8, addend: 0x0, symName: __ZN4absl12lts_2024072224synchronization_internal11GraphCyclesD1Ev, symObjAddr: 0x220, symBinAddr: 0x371D8, symSize: 0x4 }
  - { offset: 0x1C403A, size: 0x8, addend: 0x0, symName: __ZN4absl12lts_2024072224synchronization_internal11GraphCyclesD1Ev, symObjAddr: 0x220, symBinAddr: 0x371D8, symSize: 0x4 }
  - { offset: 0x1C410A, size: 0x8, addend: 0x0, symName: __ZNK4absl12lts_2024072224synchronization_internal11GraphCycles15CheckInvariantsEv, symObjAddr: 0x224, symBinAddr: 0x371DC, symSize: 0x2A4 }
  - { offset: 0x1C44D7, size: 0x8, addend: 0x0, symName: __ZN4absl12lts_2024072224synchronization_internal12_GLOBAL__N_17NodeSetC1Ev, symObjAddr: 0x4C8, symBinAddr: 0x37480, symSize: 0x4C }
  - { offset: 0x1C4595, size: 0x8, addend: 0x0, symName: __ZN4absl12lts_2024072224synchronization_internal12_GLOBAL__N_17NodeSet6insertEi, symObjAddr: 0x514, symBinAddr: 0x374CC, symSize: 0x19C }
  - { offset: 0x1C49BE, size: 0x8, addend: 0x0, symName: __ZN4absl12lts_2024072224synchronization_internal12_GLOBAL__N_17NodeSet4InitEv, symObjAddr: 0x1424, symBinAddr: 0x383DC, symSize: 0x5C }
  - { offset: 0x1C4C12, size: 0x8, addend: 0x0, symName: __ZNK4absl12lts_2024072224synchronization_internal12_GLOBAL__N_17NodeSet9FindIndexEi, symObjAddr: 0x14FC, symBinAddr: 0x384B4, symSize: 0x70 }
  - { offset: 0x1C4C84, size: 0x8, addend: 0x0, symName: __ZNK4absl12lts_2024072224synchronization_internal12_GLOBAL__N_17NodeSet9FindIndexEi, symObjAddr: 0x14FC, symBinAddr: 0x384B4, symSize: 0x70 }
  - { offset: 0x1C4CCF, size: 0x8, addend: 0x0, symName: __ZN4absl12lts_2024072224synchronization_internal12_GLOBAL__N_13VecIiE4GrowEj, symObjAddr: 0x1480, symBinAddr: 0x38438, symSize: 0x7C }
  - { offset: 0x1C4F35, size: 0x8, addend: 0x0, symName: __ZN4absl12lts_2024072224synchronization_internal11GraphCycles5GetIdEPv, symObjAddr: 0x6B0, symBinAddr: 0x37668, symSize: 0x1B8 }
  - { offset: 0x1C5357, size: 0x8, addend: 0x0, symName: __ZN4absl12lts_2024072224synchronization_internal11GraphCycles10RemoveNodeEPv, symObjAddr: 0x868, symBinAddr: 0x37820, symSize: 0x1D0 }
  - { offset: 0x1C5625, size: 0x8, addend: 0x0, symName: __ZN4absl12lts_2024072224synchronization_internal12_GLOBAL__N_13VecIiE9push_backERKi, symObjAddr: 0xA38, symBinAddr: 0x379F0, symSize: 0x54 }
  - { offset: 0x1C566F, size: 0x8, addend: 0x0, symName: __ZN4absl12lts_2024072224synchronization_internal11GraphCycles3PtrENS1_7GraphIdE, symObjAddr: 0xA8C, symBinAddr: 0x37A44, symSize: 0x40 }
  - { offset: 0x1C5740, size: 0x8, addend: 0x0, symName: __ZN4absl12lts_2024072224synchronization_internal11GraphCycles7HasNodeENS1_7GraphIdE, symObjAddr: 0xACC, symBinAddr: 0x37A84, symSize: 0x24 }
  - { offset: 0x1C582F, size: 0x8, addend: 0x0, symName: __ZNK4absl12lts_2024072224synchronization_internal11GraphCycles7HasEdgeENS1_7GraphIdES3_, symObjAddr: 0xAF0, symBinAddr: 0x37AA8, symSize: 0x78 }
  - { offset: 0x1C598C, size: 0x8, addend: 0x0, symName: __ZN4absl12lts_2024072224synchronization_internal11GraphCycles10RemoveEdgeENS1_7GraphIdES3_, symObjAddr: 0xB68, symBinAddr: 0x37B20, symSize: 0xAC }
  - { offset: 0x1C5C02, size: 0x8, addend: 0x0, symName: __ZN4absl12lts_2024072224synchronization_internal11GraphCycles10InsertEdgeENS1_7GraphIdES3_, symObjAddr: 0xC14, symBinAddr: 0x37BCC, symSize: 0x4A4 }
  - { offset: 0x1C6A7A, size: 0x8, addend: 0x0, symName: __ZNK4absl12lts_2024072224synchronization_internal11GraphCycles8FindPathENS1_7GraphIdES3_iPS3_, symObjAddr: 0x10B8, symBinAddr: 0x38070, symSize: 0x1C8 }
  - { offset: 0x1C6E6F, size: 0x8, addend: 0x0, symName: __ZNK4absl12lts_2024072224synchronization_internal11GraphCycles11IsReachableENS1_7GraphIdES3_, symObjAddr: 0x1280, symBinAddr: 0x38238, symSize: 0x24 }
  - { offset: 0x1C6EE6, size: 0x8, addend: 0x0, symName: __ZN4absl12lts_2024072224synchronization_internal11GraphCycles16UpdateStackTraceENS1_7GraphIdEiPFiPPviE, symObjAddr: 0x12A4, symBinAddr: 0x3825C, symSize: 0x58 }
  - { offset: 0x1C6FD6, size: 0x8, addend: 0x0, symName: __ZN4absl12lts_2024072224synchronization_internal11GraphCycles13GetStackTraceENS1_7GraphIdEPPPv, symObjAddr: 0x12FC, symBinAddr: 0x382B4, symSize: 0x3C }
  - { offset: 0x1C924F, size: 0x8, addend: 0x0, symName: __ZN4absl12lts_2024072213hash_internal15MixingHashState28CombineLargeContiguousImpl32EyPKhm, symObjAddr: 0x0, symBinAddr: 0x391E4, symSize: 0xFC }
  - { offset: 0x1C9272, size: 0x8, addend: 0x0, symName: __ZN4absl12lts_2024072213hash_internal15MixingHashState5kSeedE, symObjAddr: 0x2D0, symBinAddr: 0x856C8, symSize: 0x0 }
  - { offset: 0x1C928C, size: 0x8, addend: 0x0, symName: __ZN4absl12lts_2024072213hash_internalL9kHashSaltE, symObjAddr: 0x2D8, symBinAddr: 0x70388, symSize: 0x0 }
  - { offset: 0x1CA0BB, size: 0x8, addend: 0x0, symName: __ZN4absl12lts_2024072213hash_internal15MixingHashState28CombineLargeContiguousImpl32EyPKhm, symObjAddr: 0x0, symBinAddr: 0x391E4, symSize: 0xFC }
  - { offset: 0x1CA27F, size: 0x8, addend: 0x0, symName: __ZN4absl12lts_2024072213hash_internal15MixingHashState28CombineLargeContiguousImpl64EyPKhm, symObjAddr: 0xFC, symBinAddr: 0x392E0, symSize: 0x9C }
  - { offset: 0x1CA36F, size: 0x8, addend: 0x0, symName: __ZN4absl12lts_2024072213hash_internal15MixingHashState21CombineContiguousImplEyPKhmNSt3__117integral_constantIiLi8EEE, symObjAddr: 0x198, symBinAddr: 0x3937C, symSize: 0x120 }
  - { offset: 0x1CA63A, size: 0x8, addend: 0x0, symName: __ZN4absl12lts_2024072213hash_internal15MixingHashState16LowLevelHashImplEPKhm, symObjAddr: 0x2B8, symBinAddr: 0x3949C, symSize: 0x14 }
  - { offset: 0x1CC560, size: 0x8, addend: 0x0, symName: __ZN4absl12lts_2024072218container_internal14HashtablezInfo14kMaxStackDepthE, symObjAddr: 0x8E8, symBinAddr: 0x703B0, symSize: 0x0 }
  - { offset: 0x1CC6D0, size: 0x8, addend: 0x0, symName: __ZN4absl12lts_2024072218container_internal23GlobalHashtablezSamplerEv, symObjAddr: 0x0, symBinAddr: 0x394B0, symSize: 0x74 }
  - { offset: 0x1CC6FA, size: 0x8, addend: 0x0, symName: __ZZN4absl12lts_2024072218container_internal23GlobalHashtablezSamplerEvE7sampler, symObjAddr: 0x2FCF8, symBinAddr: 0x86DC0, symSize: 0x0 }
  - { offset: 0x1CC7B6, size: 0x8, addend: 0x0, symName: __ZZN4absl12lts_2024072218container_internalL19ShouldForceSamplingEvE12global_state.0, symObjAddr: 0x998, symBinAddr: 0x86AC4, symSize: 0x0 }
  - { offset: 0x1CC7EE, size: 0x8, addend: 0x0, symName: __ZN4absl12lts_2024072218container_internal12_GLOBAL__N_128g_hashtablez_config_listenerE.0, symObjAddr: 0x2FFC8, symBinAddr: 0x87090, symSize: 0x0 }
  - { offset: 0x1CC808, size: 0x8, addend: 0x0, symName: __ZN4absl12lts_2024072218container_internal12_GLOBAL__N_120g_hashtablez_enabledE.0, symObjAddr: 0x2FFD0, symBinAddr: 0x87098, symSize: 0x0 }
  - { offset: 0x1CC822, size: 0x8, addend: 0x0, symName: __ZN4absl12lts_2024072218container_internal12_GLOBAL__N_129g_hashtablez_sample_parameterE.0, symObjAddr: 0x99C, symBinAddr: 0x86AC8, symSize: 0x0 }
  - { offset: 0x1CC865, size: 0x8, addend: 0x0, symName: __ZN4absl12lts_2024072218container_internal10SampleSlowERNS1_13SamplingStateEmmmt, symObjAddr: 0x154, symBinAddr: 0x39604, symSize: 0x98 }
  - { offset: 0x1CC9F8, size: 0x8, addend: 0x0, symName: __ZN4absl12lts_2024072218container_internal12UnsampleSlowEPNS1_14HashtablezInfoE, symObjAddr: 0x370, symBinAddr: 0x39820, symSize: 0x40 }
  - { offset: 0x1CCAB6, size: 0x8, addend: 0x0, symName: __ZN4absl12lts_2024072218container_internal16RecordRehashSlowEPNS1_14HashtablezInfoEm, symObjAddr: 0x3B0, symBinAddr: 0x39860, symSize: 0x1C }
  - { offset: 0x1CCC37, size: 0x8, addend: 0x0, symName: __ZN4absl12lts_2024072218container_internal21RecordReservationSlowEPNS1_14HashtablezInfoEm, symObjAddr: 0x3CC, symBinAddr: 0x3987C, symSize: 0x14 }
  - { offset: 0x1CCC6E, size: 0x8, addend: 0x0, symName: __ZN4absl12lts_2024072218container_internal21RecordReservationSlowEPNS1_14HashtablezInfoEm, symObjAddr: 0x3CC, symBinAddr: 0x3987C, symSize: 0x14 }
  - { offset: 0x1CCC92, size: 0x8, addend: 0x0, symName: __ZN4absl12lts_2024072218container_internal21RecordReservationSlowEPNS1_14HashtablezInfoEm, symObjAddr: 0x3CC, symBinAddr: 0x3987C, symSize: 0x14 }
  - { offset: 0x1CCD0E, size: 0x8, addend: 0x0, symName: __ZN4absl12lts_2024072218container_internal28RecordClearedReservationSlowEPNS1_14HashtablezInfoE, symObjAddr: 0x3E0, symBinAddr: 0x39890, symSize: 0x8 }
  - { offset: 0x1CCD38, size: 0x8, addend: 0x0, symName: __ZN4absl12lts_2024072218container_internal28RecordClearedReservationSlowEPNS1_14HashtablezInfoE, symObjAddr: 0x3E0, symBinAddr: 0x39890, symSize: 0x8 }
  - { offset: 0x1CCD62, size: 0x8, addend: 0x0, symName: __ZN4absl12lts_2024072218container_internal28RecordClearedReservationSlowEPNS1_14HashtablezInfoE, symObjAddr: 0x3E0, symBinAddr: 0x39890, symSize: 0x8 }
  - { offset: 0x1CCD8C, size: 0x8, addend: 0x0, symName: __ZN4absl12lts_2024072218container_internal24RecordStorageChangedSlowEPNS1_14HashtablezInfoEmm, symObjAddr: 0x3E8, symBinAddr: 0x39898, symSize: 0x1C }
  - { offset: 0x1CCDD0, size: 0x8, addend: 0x0, symName: __ZN4absl12lts_2024072218container_internal24RecordStorageChangedSlowEPNS1_14HashtablezInfoEmm, symObjAddr: 0x3E8, symBinAddr: 0x39898, symSize: 0x1C }
  - { offset: 0x1CCDFA, size: 0x8, addend: 0x0, symName: __ZN4absl12lts_2024072218container_internal24RecordStorageChangedSlowEPNS1_14HashtablezInfoEmm, symObjAddr: 0x3E8, symBinAddr: 0x39898, symSize: 0x1C }
  - { offset: 0x1CCF24, size: 0x8, addend: 0x0, symName: __ZN4absl12lts_2024072218container_internal16RecordInsertSlowEPNS1_14HashtablezInfoEmm, symObjAddr: 0x404, symBinAddr: 0x398B4, symSize: 0x7C }
  - { offset: 0x1CD1A1, size: 0x8, addend: 0x0, symName: __ZN4absl12lts_2024072218container_internal15RecordEraseSlowEPNS1_14HashtablezInfoE, symObjAddr: 0x480, symBinAddr: 0x39930, symSize: 0x24 }
  - { offset: 0x1CD2B7, size: 0x8, addend: 0x0, symName: __ZN4absl12lts_2024072218container_internal27SetHashtablezConfigListenerEPFvvE, symObjAddr: 0x4A4, symBinAddr: 0x39954, symSize: 0x10 }
  - { offset: 0x1CD2E1, size: 0x8, addend: 0x0, symName: __ZN4absl12lts_2024072218container_internal27SetHashtablezConfigListenerEPFvvE, symObjAddr: 0x4A4, symBinAddr: 0x39954, symSize: 0x10 }
  - { offset: 0x1CD302, size: 0x8, addend: 0x0, symName: __ZN4absl12lts_2024072218container_internal27SetHashtablezConfigListenerEPFvvE, symObjAddr: 0x4A4, symBinAddr: 0x39954, symSize: 0x10 }
  - { offset: 0x1CD322, size: 0x8, addend: 0x0, symName: __ZN4absl12lts_2024072218container_internal19IsHashtablezEnabledEv, symObjAddr: 0x4B4, symBinAddr: 0x39964, symSize: 0x14 }
  - { offset: 0x1CD343, size: 0x8, addend: 0x0, symName: __ZN4absl12lts_2024072218container_internal19IsHashtablezEnabledEv, symObjAddr: 0x4B4, symBinAddr: 0x39964, symSize: 0x14 }
  - { offset: 0x1CD35D, size: 0x8, addend: 0x0, symName: __ZN4absl12lts_2024072218container_internal19IsHashtablezEnabledEv, symObjAddr: 0x4B4, symBinAddr: 0x39964, symSize: 0x14 }
  - { offset: 0x1CD392, size: 0x8, addend: 0x0, symName: __ZN4absl12lts_2024072218container_internal20SetHashtablezEnabledEb, symObjAddr: 0x4C8, symBinAddr: 0x39978, symSize: 0x24 }
  - { offset: 0x1CD3BE, size: 0x8, addend: 0x0, symName: __ZN4absl12lts_2024072218container_internal20SetHashtablezEnabledEb, symObjAddr: 0x4C8, symBinAddr: 0x39978, symSize: 0x24 }
  - { offset: 0x1CD3DE, size: 0x8, addend: 0x0, symName: __ZN4absl12lts_2024072218container_internal20SetHashtablezEnabledEb, symObjAddr: 0x4C8, symBinAddr: 0x39978, symSize: 0x24 }
  - { offset: 0x1CD405, size: 0x8, addend: 0x0, symName: __ZN4absl12lts_2024072218container_internal20SetHashtablezEnabledEb, symObjAddr: 0x4C8, symBinAddr: 0x39978, symSize: 0x24 }
  - { offset: 0x1CD488, size: 0x8, addend: 0x0, symName: __ZN4absl12lts_2024072218container_internal28SetHashtablezEnabledInternalEb, symObjAddr: 0x4EC, symBinAddr: 0x3999C, symSize: 0x10 }
  - { offset: 0x1CD4AB, size: 0x8, addend: 0x0, symName: __ZN4absl12lts_2024072218container_internal28SetHashtablezEnabledInternalEb, symObjAddr: 0x4EC, symBinAddr: 0x3999C, symSize: 0x10 }
  - { offset: 0x1CD4D2, size: 0x8, addend: 0x0, symName: __ZN4absl12lts_2024072218container_internal28SetHashtablezEnabledInternalEb, symObjAddr: 0x4EC, symBinAddr: 0x3999C, symSize: 0x10 }
  - { offset: 0x1CD4F2, size: 0x8, addend: 0x0, symName: __ZN4absl12lts_2024072218container_internal28GetHashtablezSampleParameterEv, symObjAddr: 0x4FC, symBinAddr: 0x399AC, symSize: 0x10 }
  - { offset: 0x1CD514, size: 0x8, addend: 0x0, symName: __ZN4absl12lts_2024072218container_internal28GetHashtablezSampleParameterEv, symObjAddr: 0x4FC, symBinAddr: 0x399AC, symSize: 0x10 }
  - { offset: 0x1CD52F, size: 0x8, addend: 0x0, symName: __ZN4absl12lts_2024072218container_internal28GetHashtablezSampleParameterEv, symObjAddr: 0x4FC, symBinAddr: 0x399AC, symSize: 0x10 }
  - { offset: 0x1CD572, size: 0x8, addend: 0x0, symName: __ZN4absl12lts_2024072218container_internal28SetHashtablezSampleParameterEi, symObjAddr: 0x50C, symBinAddr: 0x399BC, symSize: 0x70 }
  - { offset: 0x1CD67C, size: 0x8, addend: 0x0, symName: __ZN4absl12lts_2024072218container_internal36SetHashtablezSampleParameterInternalEi, symObjAddr: 0x57C, symBinAddr: 0x39A2C, symSize: 0x54 }
  - { offset: 0x1CD70C, size: 0x8, addend: 0x0, symName: __ZN4absl12lts_2024072218container_internal23GetHashtablezMaxSamplesEv, symObjAddr: 0x5D0, symBinAddr: 0x39A80, symSize: 0x1C }
  - { offset: 0x1CD79A, size: 0x8, addend: 0x0, symName: __ZN4absl12lts_2024072218container_internal23SetHashtablezMaxSamplesEm, symObjAddr: 0x5EC, symBinAddr: 0x39A9C, symSize: 0x2C }
  - { offset: 0x1CD83C, size: 0x8, addend: 0x0, symName: __ZN4absl12lts_2024072218container_internal31SetHashtablezMaxSamplesInternalEm, symObjAddr: 0x618, symBinAddr: 0x39AC8, symSize: 0x48 }
  - { offset: 0x1D00E9, size: 0x8, addend: 0x0, symName: __ZN4absl12lts_2024072218profiling_internal14SampleRecorderINS0_18container_internal14HashtablezInfoEEC2Ev, symObjAddr: 0x660, symBinAddr: 0x39B10, symSize: 0x74 }
  - { offset: 0x1D070A, size: 0x8, addend: 0x0, symName: __ZN4absl12lts_2024072218container_internal14HashtablezInfoC2Ev, symObjAddr: 0x74, symBinAddr: 0x39524, symSize: 0x1C }
  - { offset: 0x1D0857, size: 0x8, addend: 0x0, symName: __ZN4absl12lts_2024072218container_internal14HashtablezInfoC1Ev, symObjAddr: 0x90, symBinAddr: 0x39540, symSize: 0x1C }
  - { offset: 0x1D09C0, size: 0x8, addend: 0x0, symName: __ZN4absl12lts_2024072218container_internal14HashtablezInfoD2Ev, symObjAddr: 0xAC, symBinAddr: 0x3955C, symSize: 0x4 }
  - { offset: 0x1D09E2, size: 0x8, addend: 0x0, symName: __ZN4absl12lts_2024072218container_internal14HashtablezInfoD2Ev, symObjAddr: 0xAC, symBinAddr: 0x3955C, symSize: 0x4 }
  - { offset: 0x1D0A18, size: 0x8, addend: 0x0, symName: __ZN4absl12lts_2024072218container_internal14HashtablezInfoD1Ev, symObjAddr: 0xB0, symBinAddr: 0x39560, symSize: 0x4 }
  - { offset: 0x1D0A3A, size: 0x8, addend: 0x0, symName: __ZN4absl12lts_2024072218container_internal14HashtablezInfoD1Ev, symObjAddr: 0xB0, symBinAddr: 0x39560, symSize: 0x4 }
  - { offset: 0x1D0A55, size: 0x8, addend: 0x0, symName: __ZN4absl12lts_2024072218container_internal14HashtablezInfoD1Ev, symObjAddr: 0xB0, symBinAddr: 0x39560, symSize: 0x4 }
  - { offset: 0x1D0AA6, size: 0x8, addend: 0x0, symName: __ZN4absl12lts_2024072218container_internal14HashtablezInfo18PrepareForSamplingExmmmt, symObjAddr: 0xB4, symBinAddr: 0x39564, symSize: 0xA0 }
  - { offset: 0x1D0F42, size: 0x8, addend: 0x0, symName: __ZN4absl12lts_2024072218profiling_internal14SampleRecorderINS0_18container_internal14HashtablezInfoEE8RegisterIJRKxRmS9_S9_RtEEEPS4_DpOT_, symObjAddr: 0x1EC, symBinAddr: 0x3969C, symSize: 0x184 }
  - { offset: 0x1D1592, size: 0x8, addend: 0x0, symName: __ZN4absl12lts_2024072218profiling_internal14SampleRecorderINS0_18container_internal14HashtablezInfoEE7PopDeadIJxmmmtEEEPS4_DpT_, symObjAddr: 0x6E4, symBinAddr: 0x39B84, symSize: 0xE0 }
  - { offset: 0x1D17A0, size: 0x8, addend: 0x0, symName: __ZN4absl12lts_2024072218profiling_internal14SampleRecorderINS0_18container_internal14HashtablezInfoEE8PushDeadEPS4_, symObjAddr: 0x7C4, symBinAddr: 0x39C64, symSize: 0x7C }
  - { offset: 0x1D3C14, size: 0x8, addend: 0x0, symName: _AbslContainerInternalSampleEverything_lts_20240722, symObjAddr: 0x0, symBinAddr: 0x39CE0, symSize: 0x8 }
  - { offset: 0x1D3CF6, size: 0x8, addend: 0x0, symName: _AbslContainerInternalSampleEverything_lts_20240722, symObjAddr: 0x0, symBinAddr: 0x39CE0, symSize: 0x8 }
  - { offset: 0x1D67A9, size: 0x8, addend: 0x0, symName: __ZNSt3__114numeric_limitsIN4absl12lts_202407227uint128EE14is_specializedE, symObjAddr: 0x1CA8, symBinAddr: 0x703B4, symSize: 0x0 }
  - { offset: 0x1DA594, size: 0x8, addend: 0x0, symName: __ZNSt3__114numeric_limitsIN4absl12lts_202407227uint128EE9is_signedE, symObjAddr: 0x1CA9, symBinAddr: 0x703B5, symSize: 0x0 }
  - { offset: 0x1DA5A8, size: 0x8, addend: 0x0, symName: __ZNSt3__114numeric_limitsIN4absl12lts_202407227uint128EE10is_integerE, symObjAddr: 0x1CAA, symBinAddr: 0x703B6, symSize: 0x0 }
  - { offset: 0x1DA5BC, size: 0x8, addend: 0x0, symName: __ZNSt3__114numeric_limitsIN4absl12lts_202407227uint128EE8is_exactE, symObjAddr: 0x1CAB, symBinAddr: 0x703B7, symSize: 0x0 }
  - { offset: 0x1DA5D0, size: 0x8, addend: 0x0, symName: __ZNSt3__114numeric_limitsIN4absl12lts_202407227uint128EE12has_infinityE, symObjAddr: 0x1CAC, symBinAddr: 0x703B8, symSize: 0x0 }
  - { offset: 0x1DA5E4, size: 0x8, addend: 0x0, symName: __ZNSt3__114numeric_limitsIN4absl12lts_202407227uint128EE13has_quiet_NaNE, symObjAddr: 0x1CAD, symBinAddr: 0x703B9, symSize: 0x0 }
  - { offset: 0x1DA5F8, size: 0x8, addend: 0x0, symName: __ZNSt3__114numeric_limitsIN4absl12lts_202407227uint128EE17has_signaling_NaNE, symObjAddr: 0x1CAE, symBinAddr: 0x703BA, symSize: 0x0 }
  - { offset: 0x1DA60C, size: 0x8, addend: 0x0, symName: __ZNSt3__114numeric_limitsIN4absl12lts_202407227uint128EE10has_denormE, symObjAddr: 0x1CB0, symBinAddr: 0x703BC, symSize: 0x0 }
  - { offset: 0x1DA620, size: 0x8, addend: 0x0, symName: __ZNSt3__114numeric_limitsIN4absl12lts_202407227uint128EE15has_denorm_lossE, symObjAddr: 0x1CB4, symBinAddr: 0x703C0, symSize: 0x0 }
  - { offset: 0x1DA634, size: 0x8, addend: 0x0, symName: __ZNSt3__114numeric_limitsIN4absl12lts_202407227uint128EE11round_styleE, symObjAddr: 0x1CB8, symBinAddr: 0x703C4, symSize: 0x0 }
  - { offset: 0x1DA648, size: 0x8, addend: 0x0, symName: __ZNSt3__114numeric_limitsIN4absl12lts_202407227uint128EE9is_iec559E, symObjAddr: 0x1CBC, symBinAddr: 0x703C8, symSize: 0x0 }
  - { offset: 0x1DA65C, size: 0x8, addend: 0x0, symName: __ZNSt3__114numeric_limitsIN4absl12lts_202407227uint128EE10is_boundedE, symObjAddr: 0x1CBD, symBinAddr: 0x703C9, symSize: 0x0 }
  - { offset: 0x1DA670, size: 0x8, addend: 0x0, symName: __ZNSt3__114numeric_limitsIN4absl12lts_202407227uint128EE9is_moduloE, symObjAddr: 0x1CBE, symBinAddr: 0x703CA, symSize: 0x0 }
  - { offset: 0x1DA684, size: 0x8, addend: 0x0, symName: __ZNSt3__114numeric_limitsIN4absl12lts_202407227uint128EE6digitsE, symObjAddr: 0x1CC0, symBinAddr: 0x703CC, symSize: 0x0 }
  - { offset: 0x1DA698, size: 0x8, addend: 0x0, symName: __ZNSt3__114numeric_limitsIN4absl12lts_202407227uint128EE8digits10E, symObjAddr: 0x1CC4, symBinAddr: 0x703D0, symSize: 0x0 }
  - { offset: 0x1DA6AC, size: 0x8, addend: 0x0, symName: __ZNSt3__114numeric_limitsIN4absl12lts_202407227uint128EE12max_digits10E, symObjAddr: 0x1CC8, symBinAddr: 0x703D4, symSize: 0x0 }
  - { offset: 0x1DA6C0, size: 0x8, addend: 0x0, symName: __ZNSt3__114numeric_limitsIN4absl12lts_202407227uint128EE5radixE, symObjAddr: 0x1CCC, symBinAddr: 0x703D8, symSize: 0x0 }
  - { offset: 0x1DA6D4, size: 0x8, addend: 0x0, symName: __ZNSt3__114numeric_limitsIN4absl12lts_202407227uint128EE12min_exponentE, symObjAddr: 0x1CD0, symBinAddr: 0x703DC, symSize: 0x0 }
  - { offset: 0x1DA6E8, size: 0x8, addend: 0x0, symName: __ZNSt3__114numeric_limitsIN4absl12lts_202407227uint128EE14min_exponent10E, symObjAddr: 0x1CD4, symBinAddr: 0x703E0, symSize: 0x0 }
  - { offset: 0x1DA6FC, size: 0x8, addend: 0x0, symName: __ZNSt3__114numeric_limitsIN4absl12lts_202407227uint128EE12max_exponentE, symObjAddr: 0x1CD8, symBinAddr: 0x703E4, symSize: 0x0 }
  - { offset: 0x1DA710, size: 0x8, addend: 0x0, symName: __ZNSt3__114numeric_limitsIN4absl12lts_202407227uint128EE14max_exponent10E, symObjAddr: 0x1CDC, symBinAddr: 0x703E8, symSize: 0x0 }
  - { offset: 0x1DA724, size: 0x8, addend: 0x0, symName: __ZNSt3__114numeric_limitsIN4absl12lts_202407227uint128EE5trapsE, symObjAddr: 0x1CE0, symBinAddr: 0x703EC, symSize: 0x0 }
  - { offset: 0x1DA738, size: 0x8, addend: 0x0, symName: __ZNSt3__114numeric_limitsIN4absl12lts_202407227uint128EE15tinyness_beforeE, symObjAddr: 0x1CE1, symBinAddr: 0x703ED, symSize: 0x0 }
  - { offset: 0x1DA74C, size: 0x8, addend: 0x0, symName: __ZNSt3__114numeric_limitsIN4absl12lts_202407226int128EE14is_specializedE, symObjAddr: 0x1CE2, symBinAddr: 0x703EE, symSize: 0x0 }
  - { offset: 0x1DA760, size: 0x8, addend: 0x0, symName: __ZNSt3__114numeric_limitsIN4absl12lts_202407226int128EE9is_signedE, symObjAddr: 0x1CE3, symBinAddr: 0x703EF, symSize: 0x0 }
  - { offset: 0x1DA774, size: 0x8, addend: 0x0, symName: __ZNSt3__114numeric_limitsIN4absl12lts_202407226int128EE10is_integerE, symObjAddr: 0x1CE4, symBinAddr: 0x703F0, symSize: 0x0 }
  - { offset: 0x1DA788, size: 0x8, addend: 0x0, symName: __ZNSt3__114numeric_limitsIN4absl12lts_202407226int128EE8is_exactE, symObjAddr: 0x1CE5, symBinAddr: 0x703F1, symSize: 0x0 }
  - { offset: 0x1DA79C, size: 0x8, addend: 0x0, symName: __ZNSt3__114numeric_limitsIN4absl12lts_202407226int128EE12has_infinityE, symObjAddr: 0x1CE6, symBinAddr: 0x703F2, symSize: 0x0 }
  - { offset: 0x1DA7B0, size: 0x8, addend: 0x0, symName: __ZNSt3__114numeric_limitsIN4absl12lts_202407226int128EE13has_quiet_NaNE, symObjAddr: 0x1CE7, symBinAddr: 0x703F3, symSize: 0x0 }
  - { offset: 0x1DA7C4, size: 0x8, addend: 0x0, symName: __ZNSt3__114numeric_limitsIN4absl12lts_202407226int128EE17has_signaling_NaNE, symObjAddr: 0x1CE8, symBinAddr: 0x703F4, symSize: 0x0 }
  - { offset: 0x1DA7D8, size: 0x8, addend: 0x0, symName: __ZNSt3__114numeric_limitsIN4absl12lts_202407226int128EE10has_denormE, symObjAddr: 0x1CEC, symBinAddr: 0x703F8, symSize: 0x0 }
  - { offset: 0x1DA7EC, size: 0x8, addend: 0x0, symName: __ZNSt3__114numeric_limitsIN4absl12lts_202407226int128EE15has_denorm_lossE, symObjAddr: 0x1CF0, symBinAddr: 0x703FC, symSize: 0x0 }
  - { offset: 0x1DA800, size: 0x8, addend: 0x0, symName: __ZNSt3__114numeric_limitsIN4absl12lts_202407226int128EE11round_styleE, symObjAddr: 0x1CF4, symBinAddr: 0x70400, symSize: 0x0 }
  - { offset: 0x1DA814, size: 0x8, addend: 0x0, symName: __ZNSt3__114numeric_limitsIN4absl12lts_202407226int128EE9is_iec559E, symObjAddr: 0x1CF8, symBinAddr: 0x70404, symSize: 0x0 }
  - { offset: 0x1DA828, size: 0x8, addend: 0x0, symName: __ZNSt3__114numeric_limitsIN4absl12lts_202407226int128EE10is_boundedE, symObjAddr: 0x1CF9, symBinAddr: 0x70405, symSize: 0x0 }
  - { offset: 0x1DA83C, size: 0x8, addend: 0x0, symName: __ZNSt3__114numeric_limitsIN4absl12lts_202407226int128EE9is_moduloE, symObjAddr: 0x1CFA, symBinAddr: 0x70406, symSize: 0x0 }
  - { offset: 0x1DA850, size: 0x8, addend: 0x0, symName: __ZNSt3__114numeric_limitsIN4absl12lts_202407226int128EE6digitsE, symObjAddr: 0x1CFC, symBinAddr: 0x70408, symSize: 0x0 }
  - { offset: 0x1DA864, size: 0x8, addend: 0x0, symName: __ZNSt3__114numeric_limitsIN4absl12lts_202407226int128EE8digits10E, symObjAddr: 0x1D00, symBinAddr: 0x7040C, symSize: 0x0 }
  - { offset: 0x1DA878, size: 0x8, addend: 0x0, symName: __ZNSt3__114numeric_limitsIN4absl12lts_202407226int128EE12max_digits10E, symObjAddr: 0x1D04, symBinAddr: 0x70410, symSize: 0x0 }
  - { offset: 0x1DA88C, size: 0x8, addend: 0x0, symName: __ZNSt3__114numeric_limitsIN4absl12lts_202407226int128EE5radixE, symObjAddr: 0x1D08, symBinAddr: 0x70414, symSize: 0x0 }
  - { offset: 0x1DA8A0, size: 0x8, addend: 0x0, symName: __ZNSt3__114numeric_limitsIN4absl12lts_202407226int128EE12min_exponentE, symObjAddr: 0x1D0C, symBinAddr: 0x70418, symSize: 0x0 }
  - { offset: 0x1DA8B4, size: 0x8, addend: 0x0, symName: __ZNSt3__114numeric_limitsIN4absl12lts_202407226int128EE14min_exponent10E, symObjAddr: 0x1D10, symBinAddr: 0x7041C, symSize: 0x0 }
  - { offset: 0x1DA8C8, size: 0x8, addend: 0x0, symName: __ZNSt3__114numeric_limitsIN4absl12lts_202407226int128EE12max_exponentE, symObjAddr: 0x1D14, symBinAddr: 0x70420, symSize: 0x0 }
  - { offset: 0x1DA8DC, size: 0x8, addend: 0x0, symName: __ZNSt3__114numeric_limitsIN4absl12lts_202407226int128EE14max_exponent10E, symObjAddr: 0x1D18, symBinAddr: 0x70424, symSize: 0x0 }
  - { offset: 0x1DA8F0, size: 0x8, addend: 0x0, symName: __ZNSt3__114numeric_limitsIN4absl12lts_202407226int128EE5trapsE, symObjAddr: 0x1D1C, symBinAddr: 0x70428, symSize: 0x0 }
  - { offset: 0x1DA904, size: 0x8, addend: 0x0, symName: __ZNSt3__114numeric_limitsIN4absl12lts_202407226int128EE15tinyness_beforeE, symObjAddr: 0x1D1D, symBinAddr: 0x70429, symSize: 0x0 }
  - { offset: 0x1DA91E, size: 0x8, addend: 0x0, symName: __ZN4absl12lts_2024072212_GLOBAL__N_120MakeUint128FromFloatIfEENS0_7uint128ET_, symObjAddr: 0x28, symBinAddr: 0x39D10, symSize: 0x90 }
  - { offset: 0x1DA9DA, size: 0x8, addend: 0x0, symName: __ZN4absl12lts_202407227uint128C1Ef, symObjAddr: 0xB8, symBinAddr: 0x39DA0, symSize: 0x28 }
  - { offset: 0x1DA9EE, size: 0x8, addend: 0x0, symName: __ZN4absl12lts_2024072212_GLOBAL__N_120MakeUint128FromFloatIdEENS0_7uint128ET_, symObjAddr: 0x108, symBinAddr: 0x39DF0, symSize: 0xAC }
  - { offset: 0x1DAA63, size: 0x8, addend: 0x0, symName: __ZN4absl12lts_202407227uint128C1Ed, symObjAddr: 0x1B4, symBinAddr: 0x39E9C, symSize: 0x28 }
  - { offset: 0x1DAA77, size: 0x8, addend: 0x0, symName: __ZN4absl12lts_2024072212_GLOBAL__N_120MakeUint128FromFloatIeEENS0_7uint128ET_, symObjAddr: 0x204, symBinAddr: 0x39EEC, symSize: 0xA0 }
  - { offset: 0x1DAB33, size: 0x8, addend: 0x0, symName: __ZN4absl12lts_202407227uint128C1Ee, symObjAddr: 0x2A4, symBinAddr: 0x39F8C, symSize: 0x28 }
  - { offset: 0x1DAB47, size: 0x8, addend: 0x0, symName: __ZN4absl12lts_2024072212_GLOBAL__N_124Uint128ToFormattedStringENS0_7uint128Ej, symObjAddr: 0x2D8, symBinAddr: 0x39FC0, symSize: 0x3C8 }
  - { offset: 0x1DB6E7, size: 0x8, addend: 0x0, symName: __ZN4absl12lts_20240722lsERNSt3__113basic_ostreamIcNS1_11char_traitsIcEEEENS0_7uint128E, symObjAddr: 0x6A0, symBinAddr: 0x3A388, symSize: 0x25C }
  - { offset: 0x1DBD7C, size: 0x8, addend: 0x0, symName: __ZN4absl12lts_20240722lsERNSt3__113basic_ostreamIcNS1_11char_traitsIcEEEENS0_6int128E, symObjAddr: 0x9D8, symBinAddr: 0x3A6C0, symSize: 0x3E0 }
  - { offset: 0x1DCBC4, size: 0x8, addend: 0x0, symName: __ZN4absl12lts_202407227uint128C2Ef, symObjAddr: 0x0, symBinAddr: 0x39CE8, symSize: 0x28 }
  - { offset: 0x1DCC17, size: 0x8, addend: 0x0, symName: __ZN4absl12lts_2024072212_GLOBAL__N_120MakeUint128FromFloatIfEENS0_7uint128ET_.cold.1, symObjAddr: 0x19DC, symBinAddr: 0x671E8, symSize: 0x24 }
  - { offset: 0x1DCC2F, size: 0x8, addend: 0x0, symName: __ZN4absl12lts_202407227uint128C1Ef, symObjAddr: 0xB8, symBinAddr: 0x39DA0, symSize: 0x28 }
  - { offset: 0x1DCC82, size: 0x8, addend: 0x0, symName: __ZN4absl12lts_202407227uint128C2Ed, symObjAddr: 0xE0, symBinAddr: 0x39DC8, symSize: 0x28 }
  - { offset: 0x1DCCDF, size: 0x8, addend: 0x0, symName: __ZN4absl12lts_202407227uint128C1Ed, symObjAddr: 0x1B4, symBinAddr: 0x39E9C, symSize: 0x28 }
  - { offset: 0x1DCD32, size: 0x8, addend: 0x0, symName: __ZN4absl12lts_202407227uint128C2Ee, symObjAddr: 0x1DC, symBinAddr: 0x39EC4, symSize: 0x28 }
  - { offset: 0x1DCD8F, size: 0x8, addend: 0x0, symName: __ZN4absl12lts_202407227uint128C1Ee, symObjAddr: 0x2A4, symBinAddr: 0x39F8C, symSize: 0x28 }
  - { offset: 0x1DCDE2, size: 0x8, addend: 0x0, symName: __ZNK4absl12lts_202407227uint1288ToStringEv, symObjAddr: 0x2CC, symBinAddr: 0x39FB4, symSize: 0xC }
  - { offset: 0x1DD598, size: 0x8, addend: 0x0, symName: __ZNK4absl12lts_202407226int1288ToStringEv, symObjAddr: 0x8FC, symBinAddr: 0x3A5E4, symSize: 0xDC }
  - { offset: 0x1DE3E4, size: 0x8, addend: 0x0, symName: __ZN4absl12lts_2024072212_GLOBAL__N_120MakeUint128FromFloatIfEENS0_7uint128ET_.cold.1, symObjAddr: 0x19DC, symBinAddr: 0x671E8, symSize: 0x24 }
  - { offset: 0x1DE468, size: 0x8, addend: 0x0, symName: _OUTLINED_FUNCTION_0, symObjAddr: 0x1A48, symBinAddr: 0x3AAA0, symSize: 0x8 }
  - { offset: 0x1E0318, size: 0x8, addend: 0x0, symName: __ZN4absl12lts_2024072224synchronization_internal13KernelTimeout14SteadyClockNowEv, symObjAddr: 0x0, symBinAddr: 0x3AAA8, symSize: 0x4 }
  - { offset: 0x1E033B, size: 0x8, addend: 0x0, symName: __ZN4absl12lts_2024072224synchronization_internal13KernelTimeout10kNoTimeoutE, symObjAddr: 0x4A8, symBinAddr: 0x70470, symSize: 0x0 }
  - { offset: 0x1E034F, size: 0x8, addend: 0x0, symName: __ZN4absl12lts_2024072224synchronization_internal13KernelTimeout9kMaxNanosE, symObjAddr: 0x4B0, symBinAddr: 0x70478, symSize: 0x0 }
  - { offset: 0x1E1371, size: 0x8, addend: 0x0, symName: __ZN4absl12lts_2024072224synchronization_internal13KernelTimeout14SteadyClockNowEv, symObjAddr: 0x0, symBinAddr: 0x3AAA8, symSize: 0x4 }
  - { offset: 0x1E1385, size: 0x8, addend: 0x0, symName: __ZN4absl12lts_2024072224synchronization_internal13KernelTimeoutC2ENS0_4TimeE, symObjAddr: 0x4, symBinAddr: 0x3AAAC, symSize: 0x64 }
  - { offset: 0x1E1436, size: 0x8, addend: 0x0, symName: __ZN4absl12lts_2024072224synchronization_internal13KernelTimeoutC1ENS0_4TimeE, symObjAddr: 0x68, symBinAddr: 0x3AB10, symSize: 0x8 }
  - { offset: 0x1E1498, size: 0x8, addend: 0x0, symName: __ZN4absl12lts_2024072224synchronization_internal13KernelTimeoutC2ENS0_8DurationE, symObjAddr: 0x70, symBinAddr: 0x3AB18, symSize: 0x7C }
  - { offset: 0x1E1548, size: 0x8, addend: 0x0, symName: __ZN4absl12lts_2024072224synchronization_internal13KernelTimeoutC1ENS0_8DurationE, symObjAddr: 0xEC, symBinAddr: 0x3AB94, symSize: 0x8 }
  - { offset: 0x1E15D2, size: 0x8, addend: 0x0, symName: __ZNK4absl12lts_2024072224synchronization_internal13KernelTimeout12MakeAbsNanosEv, symObjAddr: 0xF4, symBinAddr: 0x3AB9C, symSize: 0x64 }
  - { offset: 0x1E1678, size: 0x8, addend: 0x0, symName: __ZNK4absl12lts_2024072224synchronization_internal13KernelTimeout20InNanosecondsFromNowEv, symObjAddr: 0x158, symBinAddr: 0x3AC00, symSize: 0x48 }
  - { offset: 0x1E1701, size: 0x8, addend: 0x0, symName: __ZNK4absl12lts_2024072224synchronization_internal13KernelTimeout15MakeAbsTimespecEv, symObjAddr: 0x1A0, symBinAddr: 0x3AC48, symSize: 0x5C }
  - { offset: 0x1E17D8, size: 0x8, addend: 0x0, symName: __ZNK4absl12lts_2024072224synchronization_internal13KernelTimeout20MakeRelativeTimespecEv, symObjAddr: 0x1FC, symBinAddr: 0x3ACA4, symSize: 0x5C }
  - { offset: 0x1E18AF, size: 0x8, addend: 0x0, symName: __ZNK4absl12lts_2024072224synchronization_internal13KernelTimeout25MakeClockAbsoluteTimespecE9clockid_t, symObjAddr: 0x258, symBinAddr: 0x3AD00, symSize: 0x128 }
  - { offset: 0x1E1A81, size: 0x8, addend: 0x0, symName: __ZNK4absl12lts_2024072224synchronization_internal13KernelTimeout21InMillisecondsFromNowEv, symObjAddr: 0x380, symBinAddr: 0x3AE28, symSize: 0x5C }
  - { offset: 0x1E1AA8, size: 0x8, addend: 0x0, symName: __ZNK4absl12lts_2024072224synchronization_internal13KernelTimeout25MakeClockAbsoluteTimespecE9clockid_t.cold.1, symObjAddr: 0x44C, symBinAddr: 0x6720C, symSize: 0x5C }
  - { offset: 0x1E1AC0, size: 0x8, addend: 0x0, symName: __ZNK4absl12lts_2024072224synchronization_internal13KernelTimeout21InMillisecondsFromNowEv, symObjAddr: 0x380, symBinAddr: 0x3AE28, symSize: 0x5C }
  - { offset: 0x1E1B3D, size: 0x8, addend: 0x0, symName: __ZNK4absl12lts_2024072224synchronization_internal13KernelTimeout21InMillisecondsFromNowEv, symObjAddr: 0x380, symBinAddr: 0x3AE28, symSize: 0x5C }
  - { offset: 0x1E1B90, size: 0x8, addend: 0x0, symName: __ZNK4absl12lts_2024072224synchronization_internal13KernelTimeout17ToChronoTimePointEv, symObjAddr: 0x3DC, symBinAddr: 0x3AE84, symSize: 0x58 }
  - { offset: 0x1E1BCA, size: 0x8, addend: 0x0, symName: __ZNK4absl12lts_2024072224synchronization_internal13KernelTimeout17ToChronoTimePointEv, symObjAddr: 0x3DC, symBinAddr: 0x3AE84, symSize: 0x58 }
  - { offset: 0x1E1C43, size: 0x8, addend: 0x0, symName: __ZNK4absl12lts_2024072224synchronization_internal13KernelTimeout16ToChronoDurationEv, symObjAddr: 0x434, symBinAddr: 0x3AEDC, symSize: 0x18 }
  - { offset: 0x1E1C6E, size: 0x8, addend: 0x0, symName: __ZNK4absl12lts_2024072224synchronization_internal13KernelTimeout16ToChronoDurationEv, symObjAddr: 0x434, symBinAddr: 0x3AEDC, symSize: 0x18 }
  - { offset: 0x1E3B63, size: 0x8, addend: 0x0, symName: __ZN4absl12lts_202407228LogEntry17kNoVerbosityLevelE, symObjAddr: 0x0, symBinAddr: 0x70480, symSize: 0x0 }
  - { offset: 0x1E3E70, size: 0x8, addend: 0x0, symName: __ZN4absl12lts_2024072212log_internal33kAvoidEmptyLogEntryLibraryWarningE, symObjAddr: 0x8, symBinAddr: 0x70488, symSize: 0x0 }
  - { offset: 0x1E4145, size: 0x8, addend: 0x0, symName: __ZN4absl12lts_202407228LogEntry15kNoVerboseLevelE, symObjAddr: 0x4, symBinAddr: 0x70484, symSize: 0x0 }
  - { offset: 0x1E85DB, size: 0x8, addend: 0x0, symName: __ZN4absl12lts_2024072212log_internal16FormatLogMessageENS0_11LogSeverityENS0_13time_internal4cctz6detail10civil_timeINS3_10second_tagEEENS0_8DurationEiNS0_11string_viewEiNS1_12PrefixFormatESA_, symObjAddr: 0x0, symBinAddr: 0x3AEF4, symSize: 0x104 }
  - { offset: 0x1E8933, size: 0x8, addend: 0x0, symName: __ZN4absl12lts_2024072212log_internal15FormatLogPrefixENS0_11LogSeverityENS0_4TimeEiNS0_11string_viewEiNS1_12PrefixFormatERNS0_4SpanIcEE, symObjAddr: 0x1F8, symBinAddr: 0x3B0EC, symSize: 0x408 }
  - { offset: 0x1E9702, size: 0x8, addend: 0x0, symName: __ZN4absl12lts_202407229StrFormatIJciiiiixiNS0_11string_viewEiPKcS2_EEENSt3__112basic_stringIcNS5_11char_traitsIcEENS5_9allocatorIcEEEERKNS0_19str_format_internal18FormatSpecTemplateIJXspclsr19str_format_internalE14ArgumentToConvIT_EEEEEEDpRKSE_, symObjAddr: 0x104, symBinAddr: 0x3AFF8, symSize: 0xF4 }
  - { offset: 0x1EA356, size: 0x8, addend: 0x0, symName: __ZN4absl12lts_202407228SNPrintFIJciiiEEEiPcmRKNS0_19str_format_internal18FormatSpecTemplateIJXspclsr19str_format_internalE14ArgumentToConvIT_EEEEEEDpRKS5_, symObjAddr: 0x648, symBinAddr: 0x3B53C, symSize: 0x8C }
  - { offset: 0x1ECF07, size: 0x8, addend: 0x0, symName: __ZN4absl12lts_202407224SpanIcE13remove_prefixEm, symObjAddr: 0x6D4, symBinAddr: 0x3B5C8, symSize: 0x50 }
  - { offset: 0x1ED030, size: 0x8, addend: 0x0, symName: __ZN4absl12lts_202407224SpanIcE13remove_suffixEm, symObjAddr: 0x600, symBinAddr: 0x3B4F4, symSize: 0x48 }
  - { offset: 0x1EFBB0, size: 0x8, addend: 0x0, symName: __ZN4absl12lts_2024072212log_internal12_GLOBAL__N_18BasenameENS0_11string_viewE, symObjAddr: 0xDC0, symBinAddr: 0x3C390, symSize: 0x5C }
  - { offset: 0x1EFC53, size: 0x8, addend: 0x0, symName: __ZN4absl12lts_2024072212log_internal10LogMessage14LogMessageDataC1EPKciNS0_11LogSeverityENS0_4TimeE, symObjAddr: 0xE1C, symBinAddr: 0x3C3EC, symSize: 0x8 }
  - { offset: 0x1EFCB7, size: 0x8, addend: 0x0, symName: __ZN4absl12lts_2024072212log_internal12_GLOBAL__N_113WriteToStringEPKcPv, symObjAddr: 0x1E00, symBinAddr: 0x3D214, symSize: 0x10 }
  - { offset: 0x1EFCF0, size: 0x8, addend: 0x0, symName: __ZN4absl12lts_2024072212log_internal12_GLOBAL__N_113WriteToStreamEPKcPv, symObjAddr: 0x1E3C, symBinAddr: 0x3D250, symSize: 0x30 }
  - { offset: 0x1F6422, size: 0x8, addend: 0x0, symName: __ZN4absl12lts_2024072212log_internal10LogMessage5FlushEv, symObjAddr: 0x140C, symBinAddr: 0x3C884, symSize: 0x19C }
  - { offset: 0x1F644A, size: 0x8, addend: 0x0, symName: __ZZN4absl12lts_2024072212log_internal10LogMessage5FlushEvE10seen_fatal, symObjAddr: 0x4FC55, symBinAddr: 0x87099, symSize: 0x0 }
  - { offset: 0x1F6AF8, size: 0x8, addend: 0x0, symName: _AbslInternalOnFatalLogMessage_lts_20240722, symObjAddr: 0x0, symBinAddr: 0x3B618, symSize: 0x4 }
  - { offset: 0x1F6BB4, size: 0x8, addend: 0x0, symName: __ZN4absl12lts_2024072212log_internal10LogMessagelsIcLi0EEERS2_RKT_, symObjAddr: 0x4, symBinAddr: 0x3B61C, symSize: 0x70 }
  - { offset: 0x1F6D0D, size: 0x8, addend: 0x0, symName: __ZN4absl12lts_2024072212log_internal10LogMessage11OstreamViewC2ERNS2_14LogMessageDataE, symObjAddr: 0x1AE8, symBinAddr: 0x3CF4C, symSize: 0xE0 }
  - { offset: 0x1F6FA6, size: 0x8, addend: 0x0, symName: __ZN4absl12lts_2024072212log_internal10LogMessage11OstreamViewD2Ev, symObjAddr: 0x1BC8, symBinAddr: 0x3D02C, symSize: 0x114 }
  - { offset: 0x1F71AD, size: 0x8, addend: 0x0, symName: __ZN4absl12lts_2024072212log_internal10LogMessage11OstreamViewC1ERNS2_14LogMessageDataE, symObjAddr: 0x74, symBinAddr: 0x3B68C, symSize: 0x4 }
  - { offset: 0x1F71D6, size: 0x8, addend: 0x0, symName: __ZN4absl12lts_2024072212log_internal10LogMessage11OstreamViewC1ERNS2_14LogMessageDataE, symObjAddr: 0x74, symBinAddr: 0x3B68C, symSize: 0x4 }
  - { offset: 0x1F71F0, size: 0x8, addend: 0x0, symName: __ZN4absl12lts_2024072212log_internal10LogMessage11OstreamView6streamEv, symObjAddr: 0x78, symBinAddr: 0x3B690, symSize: 0xC }
  - { offset: 0x1F7212, size: 0x8, addend: 0x0, symName: __ZN4absl12lts_2024072212log_internal10LogMessage11OstreamViewD1Ev, symObjAddr: 0x84, symBinAddr: 0x3B69C, symSize: 0x4 }
  - { offset: 0x1F7234, size: 0x8, addend: 0x0, symName: __ZN4absl12lts_2024072212log_internal10LogMessage11OstreamViewD1Ev, symObjAddr: 0x84, symBinAddr: 0x3B69C, symSize: 0x4 }
  - { offset: 0x1F7252, size: 0x8, addend: 0x0, symName: __ZN4absl12lts_2024072212log_internal10LogMessagelsIaLi0EEERS2_RKT_, symObjAddr: 0x88, symBinAddr: 0x3B6A0, symSize: 0x70 }
  - { offset: 0x1F73B6, size: 0x8, addend: 0x0, symName: __ZN4absl12lts_2024072212log_internal10LogMessagelsIhLi0EEERS2_RKT_, symObjAddr: 0xF8, symBinAddr: 0x3B710, symSize: 0x70 }
  - { offset: 0x1F751A, size: 0x8, addend: 0x0, symName: __ZN4absl12lts_2024072212log_internal10LogMessagelsIsLi0EEERS2_RKT_, symObjAddr: 0x168, symBinAddr: 0x3B780, symSize: 0x64 }
  - { offset: 0x1F764F, size: 0x8, addend: 0x0, symName: __ZN4absl12lts_2024072212log_internal10LogMessagelsItLi0EEERS2_RKT_, symObjAddr: 0x1CC, symBinAddr: 0x3B7E4, symSize: 0x64 }
  - { offset: 0x1F777F, size: 0x8, addend: 0x0, symName: __ZN4absl12lts_2024072212log_internal10LogMessagelsIiLi0EEERS2_RKT_, symObjAddr: 0x230, symBinAddr: 0x3B848, symSize: 0x64 }
  - { offset: 0x1F78B4, size: 0x8, addend: 0x0, symName: __ZN4absl12lts_2024072212log_internal10LogMessagelsIjLi0EEERS2_RKT_, symObjAddr: 0x294, symBinAddr: 0x3B8AC, symSize: 0x64 }
  - { offset: 0x1F79E9, size: 0x8, addend: 0x0, symName: __ZN4absl12lts_2024072212log_internal10LogMessagelsIlLi0EEERS2_RKT_, symObjAddr: 0x2F8, symBinAddr: 0x3B910, symSize: 0x64 }
  - { offset: 0x1F7B13, size: 0x8, addend: 0x0, symName: __ZN4absl12lts_2024072212log_internal10LogMessagelsImLi0EEERS2_RKT_, symObjAddr: 0x35C, symBinAddr: 0x3B974, symSize: 0x64 }
  - { offset: 0x1F7C48, size: 0x8, addend: 0x0, symName: __ZN4absl12lts_2024072212log_internal10LogMessagelsIxLi0EEERS2_RKT_, symObjAddr: 0x3C0, symBinAddr: 0x3B9D8, symSize: 0x64 }
  - { offset: 0x1F7D7D, size: 0x8, addend: 0x0, symName: __ZN4absl12lts_2024072212log_internal10LogMessagelsIyLi0EEERS2_RKT_, symObjAddr: 0x424, symBinAddr: 0x3BA3C, symSize: 0x64 }
  - { offset: 0x1F7EB2, size: 0x8, addend: 0x0, symName: __ZN4absl12lts_2024072212log_internal10LogMessagelsIPvLi0EEERS2_RKT_, symObjAddr: 0x488, symBinAddr: 0x3BAA0, symSize: 0x64 }
  - { offset: 0x1F7FE7, size: 0x8, addend: 0x0, symName: __ZN4absl12lts_2024072212log_internal10LogMessagelsIPKvLi0EEERS2_RKT_, symObjAddr: 0x4EC, symBinAddr: 0x3BB04, symSize: 0x64 }
  - { offset: 0x1F811C, size: 0x8, addend: 0x0, symName: __ZN4absl12lts_2024072212log_internal10LogMessagelsIfLi0EEERS2_RKT_, symObjAddr: 0x550, symBinAddr: 0x3BB68, symSize: 0x64 }
  - { offset: 0x1F8251, size: 0x8, addend: 0x0, symName: __ZN4absl12lts_2024072212log_internal10LogMessagelsIdLi0EEERS2_RKT_, symObjAddr: 0x5B4, symBinAddr: 0x3BBCC, symSize: 0x64 }
  - { offset: 0x1F8381, size: 0x8, addend: 0x0, symName: __ZN4absl12lts_2024072212log_internal10LogMessagelsIbLi0EEERS2_RKT_, symObjAddr: 0x618, symBinAddr: 0x3BC30, symSize: 0x64 }
  - { offset: 0x1F850D, size: 0x8, addend: 0x0, symName: __ZN4absl12lts_2024072212log_internal10LogMessage19CopyToEncodedBufferILNS2_10StringTypeE0EEEvNS0_11string_viewE, symObjAddr: 0x67C, symBinAddr: 0x3BC94, symSize: 0x140 }
  - { offset: 0x1F879F, size: 0x8, addend: 0x0, symName: __ZN4absl12lts_2024072212log_internal10LogMessage14LogMessageData27InitializeEncodingAndFormatEv, symObjAddr: 0xE24, symBinAddr: 0x3C3F4, symSize: 0x198 }
  - { offset: 0x1F8B9C, size: 0x8, addend: 0x0, symName: __ZN4absl12lts_2024072212log_internal10LogMessage19CopyToEncodedBufferILNS2_10StringTypeE1EEEvNS0_11string_viewE, symObjAddr: 0x804, symBinAddr: 0x3BDD4, symSize: 0x140 }
  - { offset: 0x1F8E2E, size: 0x8, addend: 0x0, symName: __ZN4absl12lts_2024072212log_internal10LogMessage19CopyToEncodedBufferILNS2_10StringTypeE0EEEvcm, symObjAddr: 0x944, symBinAddr: 0x3BF14, symSize: 0x180 }
  - { offset: 0x1F919D, size: 0x8, addend: 0x0, symName: __ZN4absl12lts_2024072212log_internal10LogMessage19CopyToEncodedBufferILNS2_10StringTypeE1EEEvcm, symObjAddr: 0xAC4, symBinAddr: 0x3C094, symSize: 0x180 }
  - { offset: 0x1F9BE7, size: 0x8, addend: 0x0, symName: __ZN4absl12lts_2024072212log_internal10LogMessage14LogMessageDataC2EPKciNS0_11LogSeverityENS0_4TimeE, symObjAddr: 0xC44, symBinAddr: 0x3C214, symSize: 0x17C }
  - { offset: 0x1FA551, size: 0x8, addend: 0x0, symName: __ZN4absl12lts_2024072212log_internal10LogMessage14LogMessageDataC1EPKciNS0_11LogSeverityENS0_4TimeE, symObjAddr: 0xE1C, symBinAddr: 0x3C3EC, symSize: 0x8 }
  - { offset: 0x1FA85F, size: 0x8, addend: 0x0, symName: __ZN4absl12lts_2024072212log_internal10LogMessage14LogMessageData25FinalizeEncodingAndFormatEv, symObjAddr: 0xFBC, symBinAddr: 0x3C58C, symSize: 0x204 }
  - { offset: 0x1FAEEB, size: 0x8, addend: 0x0, symName: __ZN4absl12lts_2024072212log_internal10LogMessageC2EPKciNS0_11LogSeverityE, symObjAddr: 0x11C0, symBinAddr: 0x67268, symSize: 0xD8 }
  - { offset: 0x1FB235, size: 0x8, addend: 0x0, symName: __ZN4absl12lts_2024072212log_internal10LogMessageC2EPKciNS0_11LogSeverityE, symObjAddr: 0x11C0, symBinAddr: 0x67268, symSize: 0xD8 }
  - { offset: 0x1FB4A4, size: 0x8, addend: 0x0, symName: __ZN4absl12lts_2024072212log_internal10LogMessage20LogBacktraceIfNeededEv, symObjAddr: 0x1298, symBinAddr: 0x3C790, symSize: 0xC4 }
  - { offset: 0x1FB6DB, size: 0x8, addend: 0x0, symName: __ZNKSt3__114default_deleteIN4absl12lts_2024072212log_internal10LogMessage14LogMessageDataEEclB8ne190102EPS5_, symObjAddr: 0x2480, symBinAddr: 0x3D310, symSize: 0x50 }
  - { offset: 0x1FBA39, size: 0x8, addend: 0x0, symName: __ZN4absl12lts_2024072213base_internal10ErrnoSaverD1Ev, symObjAddr: 0x135C, symBinAddr: 0x3C854, symSize: 0x30 }
  - { offset: 0x1FBA9D, size: 0x8, addend: 0x0, symName: __ZN4absl12lts_2024072212log_internal10LogMessageC1EPKciNS0_11LogSeverityE, symObjAddr: 0x138C, symBinAddr: 0x67340, symSize: 0x4 }
  - { offset: 0x1FBAD4, size: 0x8, addend: 0x0, symName: __ZN4absl12lts_2024072212log_internal10LogMessageC1EPKciNS0_11LogSeverityE, symObjAddr: 0x138C, symBinAddr: 0x67340, symSize: 0x4 }
  - { offset: 0x1FBAFC, size: 0x8, addend: 0x0, symName: __ZN4absl12lts_2024072212log_internal10LogMessageC2EPKciNS2_7InfoTagE, symObjAddr: 0x1390, symBinAddr: 0x67344, symSize: 0x8 }
  - { offset: 0x1FBBBB, size: 0x8, addend: 0x0, symName: __ZN4absl12lts_2024072212log_internal10LogMessageC1EPKciNS2_7InfoTagE, symObjAddr: 0x1398, symBinAddr: 0x6734C, symSize: 0x8 }
  - { offset: 0x1FBC0E, size: 0x8, addend: 0x0, symName: __ZN4absl12lts_2024072212log_internal10LogMessageC1EPKciNS2_7InfoTagE, symObjAddr: 0x1398, symBinAddr: 0x6734C, symSize: 0x8 }
  - { offset: 0x1FBC65, size: 0x8, addend: 0x0, symName: __ZN4absl12lts_2024072212log_internal10LogMessageC2EPKciNS2_10WarningTagE, symObjAddr: 0x13A0, symBinAddr: 0x67354, symSize: 0x8 }
  - { offset: 0x1FBCDE, size: 0x8, addend: 0x0, symName: __ZN4absl12lts_2024072212log_internal10LogMessageC1EPKciNS2_10WarningTagE, symObjAddr: 0x13A8, symBinAddr: 0x6735C, symSize: 0x8 }
  - { offset: 0x1FBD31, size: 0x8, addend: 0x0, symName: __ZN4absl12lts_2024072212log_internal10LogMessageC1EPKciNS2_10WarningTagE, symObjAddr: 0x13A8, symBinAddr: 0x6735C, symSize: 0x8 }
  - { offset: 0x1FBD88, size: 0x8, addend: 0x0, symName: __ZN4absl12lts_2024072212log_internal10LogMessageC2EPKciNS2_8ErrorTagE, symObjAddr: 0x13B0, symBinAddr: 0x67364, symSize: 0x8 }
  - { offset: 0x1FBE01, size: 0x8, addend: 0x0, symName: __ZN4absl12lts_2024072212log_internal10LogMessageC1EPKciNS2_8ErrorTagE, symObjAddr: 0x13B8, symBinAddr: 0x6736C, symSize: 0x8 }
  - { offset: 0x1FBE54, size: 0x8, addend: 0x0, symName: __ZN4absl12lts_2024072212log_internal10LogMessageC1EPKciNS2_8ErrorTagE, symObjAddr: 0x13B8, symBinAddr: 0x6736C, symSize: 0x8 }
  - { offset: 0x1FBEC5, size: 0x8, addend: 0x0, symName: __ZN4absl12lts_2024072212log_internal10LogMessageD2Ev, symObjAddr: 0x13C0, symBinAddr: 0x67374, symSize: 0x4C }
  - { offset: 0x1FC120, size: 0x8, addend: 0x0, symName: __ZN4absl12lts_2024072212log_internal10LogMessage9SendToLogEv, symObjAddr: 0x1A58, symBinAddr: 0x3CEBC, symSize: 0x80 }
  - { offset: 0x1FC33C, size: 0x8, addend: 0x0, symName: __ZN4absl12lts_2024072212log_internal10LogMessage14SetFailQuietlyEv, symObjAddr: 0x1AD8, symBinAddr: 0x3CF3C, symSize: 0x10 }
  - { offset: 0x1FC382, size: 0x8, addend: 0x0, symName: __ZN4absl12lts_2024072212log_internal10LogMessageD1Ev, symObjAddr: 0x15B8, symBinAddr: 0x673C0, symSize: 0x4 }
  - { offset: 0x1FC3B0, size: 0x8, addend: 0x0, symName: __ZN4absl12lts_2024072212log_internal10LogMessageD1Ev, symObjAddr: 0x15B8, symBinAddr: 0x673C0, symSize: 0x4 }
  - { offset: 0x1FC3C3, size: 0x8, addend: 0x0, symName: __ZN4absl12lts_2024072212log_internal10LogMessage10AtLocationENS0_11string_viewEi, symObjAddr: 0x15BC, symBinAddr: 0x3CA20, symSize: 0x50 }
  - { offset: 0x1FC49A, size: 0x8, addend: 0x0, symName: __ZN4absl12lts_2024072212log_internal10LogMessage8NoPrefixEv, symObjAddr: 0x160C, symBinAddr: 0x3CA70, symSize: 0xC }
  - { offset: 0x1FC4C4, size: 0x8, addend: 0x0, symName: __ZN4absl12lts_2024072212log_internal10LogMessage8NoPrefixEv, symObjAddr: 0x160C, symBinAddr: 0x3CA70, symSize: 0xC }
  - { offset: 0x1FC4E1, size: 0x8, addend: 0x0, symName: __ZN4absl12lts_2024072212log_internal10LogMessage13WithVerbosityEi, symObjAddr: 0x1618, symBinAddr: 0x3CA7C, symSize: 0x18 }
  - { offset: 0x1FC52A, size: 0x8, addend: 0x0, symName: __ZN4absl12lts_2024072212log_internal10LogMessage13WithTimestampENS0_4TimeE, symObjAddr: 0x1630, symBinAddr: 0x3CA94, symSize: 0x10 }
  - { offset: 0x1FC564, size: 0x8, addend: 0x0, symName: __ZN4absl12lts_2024072212log_internal10LogMessage13WithTimestampENS0_4TimeE, symObjAddr: 0x1630, symBinAddr: 0x3CA94, symSize: 0x10 }
  - { offset: 0x1FC581, size: 0x8, addend: 0x0, symName: __ZN4absl12lts_2024072212log_internal10LogMessage12WithThreadIDEi, symObjAddr: 0x1640, symBinAddr: 0x3CAA4, symSize: 0xC }
  - { offset: 0x1FC5B9, size: 0x8, addend: 0x0, symName: __ZN4absl12lts_2024072212log_internal10LogMessage12WithThreadIDEi, symObjAddr: 0x1640, symBinAddr: 0x3CAA4, symSize: 0xC }
  - { offset: 0x1FC5D6, size: 0x8, addend: 0x0, symName: __ZN4absl12lts_2024072212log_internal10LogMessage16WithMetadataFromERKNS0_8LogEntryE, symObjAddr: 0x164C, symBinAddr: 0x3CAB0, symSize: 0x54 }
  - { offset: 0x1FC60E, size: 0x8, addend: 0x0, symName: __ZN4absl12lts_2024072212log_internal10LogMessage16WithMetadataFromERKNS0_8LogEntryE, symObjAddr: 0x164C, symBinAddr: 0x3CAB0, symSize: 0x54 }
  - { offset: 0x1FC688, size: 0x8, addend: 0x0, symName: __ZN4absl12lts_2024072212log_internal10LogMessage10WithPerrorEv, symObjAddr: 0x16A0, symBinAddr: 0x3CB04, symSize: 0x10 }
  - { offset: 0x1FC6B2, size: 0x8, addend: 0x0, symName: __ZN4absl12lts_2024072212log_internal10LogMessage10WithPerrorEv, symObjAddr: 0x16A0, symBinAddr: 0x3CB04, symSize: 0x10 }
  - { offset: 0x1FC861, size: 0x8, addend: 0x0, symName: __ZN4absl12lts_2024072212log_internal10LogMessage10ToSinkAlsoEPNS0_7LogSinkE, symObjAddr: 0x16B0, symBinAddr: 0x3CB14, symSize: 0x118 }
  - { offset: 0x1FCEA4, size: 0x8, addend: 0x0, symName: __ZN4absl12lts_2024072223inlined_vector_internal7StorageIPNS0_7LogSinkELm16ENSt3__19allocatorIS4_EEE11EmplaceBackIJRKS4_EEERS4_DpOT_, symObjAddr: 0x2578, symBinAddr: 0x3D360, symSize: 0x44 }
  - { offset: 0x1FCEFB, size: 0x8, addend: 0x0, symName: __ZN4absl12lts_2024072223inlined_vector_internal7StorageIPNS0_7LogSinkELm16ENSt3__19allocatorIS4_EEE11EmplaceBackIJRKS4_EEERS4_DpOT_, symObjAddr: 0x2578, symBinAddr: 0x3D360, symSize: 0x44 }
  - { offset: 0x1FCF17, size: 0x8, addend: 0x0, symName: __ZN4absl12lts_2024072223inlined_vector_internal7StorageIPNS0_7LogSinkELm16ENSt3__19allocatorIS4_EEE11EmplaceBackIJRKS4_EEERS4_DpOT_, symObjAddr: 0x2578, symBinAddr: 0x3D360, symSize: 0x44 }
  - { offset: 0x1FD15D, size: 0x8, addend: 0x0, symName: __ZN4absl12lts_2024072223inlined_vector_internal7StorageIPNS0_7LogSinkELm16ENSt3__19allocatorIS4_EEE11EmplaceBackIJRKS4_EEERS4_DpOT_, symObjAddr: 0x2578, symBinAddr: 0x3D360, symSize: 0x44 }
  - { offset: 0x1FD1AC, size: 0x8, addend: 0x0, symName: __ZN4absl12lts_2024072212log_internal10LogMessage10ToSinkOnlyEPNS0_7LogSinkE, symObjAddr: 0x17C8, symBinAddr: 0x3CC2C, symSize: 0x140 }
  - { offset: 0x1FD971, size: 0x8, addend: 0x0, symName: __ZN4absl12lts_2024072212log_internal10LogMessage21FailWithoutStackTraceEv, symObjAddr: 0x1908, symBinAddr: 0x3CD6C, symSize: 0x14 }
  - { offset: 0x1FD99E, size: 0x8, addend: 0x0, symName: __ZN4absl12lts_2024072212log_internal10LogMessage11FailQuietlyEv, symObjAddr: 0x191C, symBinAddr: 0x3CD80, symSize: 0x10 }
  - { offset: 0x1FD9B1, size: 0x8, addend: 0x0, symName: __ZN4absl12lts_2024072212log_internal10LogMessage11FailQuietlyEv, symObjAddr: 0x191C, symBinAddr: 0x3CD80, symSize: 0x10 }
  - { offset: 0x1FD9CB, size: 0x8, addend: 0x0, symName: __ZN4absl12lts_2024072212log_internal10LogMessagelsERKNSt3__112basic_stringIcNS3_11char_traitsIcEENS3_9allocatorIcEEEE, symObjAddr: 0x192C, symBinAddr: 0x3CD90, symSize: 0x3C }
  - { offset: 0x1FD9EB, size: 0x8, addend: 0x0, symName: __ZN4absl12lts_2024072212log_internal10LogMessagelsERKNSt3__112basic_stringIcNS3_11char_traitsIcEENS3_9allocatorIcEEEE, symObjAddr: 0x192C, symBinAddr: 0x3CD90, symSize: 0x3C }
  - { offset: 0x1FDAA4, size: 0x8, addend: 0x0, symName: __ZN4absl12lts_2024072212log_internal10LogMessagelsENS0_11string_viewE, symObjAddr: 0x1968, symBinAddr: 0x3CDCC, symSize: 0x24 }
  - { offset: 0x1FDB1E, size: 0x8, addend: 0x0, symName: __ZN4absl12lts_2024072212log_internal10LogMessagelsEPFRNSt3__113basic_ostreamIcNS3_11char_traitsIcEEEES8_E, symObjAddr: 0x198C, symBinAddr: 0x3CDF0, symSize: 0x60 }
  - { offset: 0x1FDC8F, size: 0x8, addend: 0x0, symName: __ZN4absl12lts_2024072212log_internal10LogMessagelsEPFRNSt3__18ios_baseES5_E, symObjAddr: 0x19EC, symBinAddr: 0x3CE50, symSize: 0x6C }
  - { offset: 0x1FDE75, size: 0x8, addend: 0x0, symName: __ZN4absl12lts_2024072212log_internal10LogMessage12PrepareToDieEv, symObjAddr: 0x1D5C, symBinAddr: 0x3D170, symSize: 0xA4 }
  - { offset: 0x1FE053, size: 0x8, addend: 0x0, symName: __ZN4absl12lts_2024072212log_internal10LogMessage3DieEv, symObjAddr: 0x1E10, symBinAddr: 0x3D224, symSize: 0x2C }
  - { offset: 0x1FE0CD, size: 0x8, addend: 0x0, symName: __ZN4absl12lts_2024072212log_internal12_GLOBAL__N_113WriteToStreamEPKcPv, symObjAddr: 0x1E3C, symBinAddr: 0x3D250, symSize: 0x30 }
  - { offset: 0x1FE0D8, size: 0x8, addend: 0x0, symName: __ZN4absl12lts_2024072212log_internal10LogMessage14SetFailQuietlyEv, symObjAddr: 0x1AD8, symBinAddr: 0x3CF3C, symSize: 0x10 }
  - { offset: 0x1FE102, size: 0x8, addend: 0x0, symName: __ZN4absl12lts_2024072212log_internal10LogMessage14SetFailQuietlyEv, symObjAddr: 0x1AD8, symBinAddr: 0x3CF3C, symSize: 0x10 }
  - { offset: 0x1FE21E, size: 0x8, addend: 0x0, symName: __ZN4absl12lts_2024072212log_internal10LogMessage11OstreamViewD0Ev, symObjAddr: 0x1D2C, symBinAddr: 0x3D140, symSize: 0x14 }
  - { offset: 0x1FE27C, size: 0x8, addend: 0x0, symName: __ZNK4absl12lts_2024072212log_internal10LogMessage7IsFatalEv, symObjAddr: 0x1D40, symBinAddr: 0x3D154, symSize: 0x1C }
  - { offset: 0x1FE2A0, size: 0x8, addend: 0x0, symName: __ZNK4absl12lts_2024072212log_internal10LogMessage7IsFatalEv, symObjAddr: 0x1D40, symBinAddr: 0x3D154, symSize: 0x1C }
  - { offset: 0x1FE321, size: 0x8, addend: 0x0, symName: __ZN4absl12lts_2024072212log_internal15LogMessageFatalC2EPKci, symObjAddr: 0x1E6C, symBinAddr: 0x673C4, symSize: 0x4 }
  - { offset: 0x1FE33F, size: 0x8, addend: 0x0, symName: __ZN4absl12lts_2024072212log_internal15LogMessageFatalC2EPKci, symObjAddr: 0x1E6C, symBinAddr: 0x673C4, symSize: 0x4 }
  - { offset: 0x1FE354, size: 0x8, addend: 0x0, symName: __ZN4absl12lts_2024072212log_internal15LogMessageFatalC1EPKci, symObjAddr: 0x1E70, symBinAddr: 0x673C8, symSize: 0x4 }
  - { offset: 0x1FE372, size: 0x8, addend: 0x0, symName: __ZN4absl12lts_2024072212log_internal15LogMessageFatalC1EPKci, symObjAddr: 0x1E70, symBinAddr: 0x673C8, symSize: 0x4 }
  - { offset: 0x1FE3AF, size: 0x8, addend: 0x0, symName: __ZN4absl12lts_2024072212log_internal15LogMessageFatalC2EPKciNS0_11string_viewE, symObjAddr: 0x1E74, symBinAddr: 0x673CC, symSize: 0x50 }
  - { offset: 0x1FE4AA, size: 0x8, addend: 0x0, symName: _OUTLINED_FUNCTION_0, symObjAddr: 0x2794, symBinAddr: 0x3D47C, symSize: 0x14 }
  - { offset: 0x1FE4C2, size: 0x8, addend: 0x0, symName: _OUTLINED_FUNCTION_8, symObjAddr: 0x27F8, symBinAddr: 0x3D4C4, symSize: 0x8 }
  - { offset: 0x1FE4DA, size: 0x8, addend: 0x0, symName: _OUTLINED_FUNCTION_2, symObjAddr: 0x27B8, symBinAddr: 0x3D4A0, symSize: 0x10 }
  - { offset: 0x1FE4F2, size: 0x8, addend: 0x0, symName: _OUTLINED_FUNCTION_5, symObjAddr: 0x27DC, symBinAddr: 0x3D4B8, symSize: 0xC }
  - { offset: 0x1FE514, size: 0x8, addend: 0x0, symName: __ZN4absl12lts_2024072212log_internal15LogMessageFatalC1EPKciNS0_11string_viewE, symObjAddr: 0x1EC4, symBinAddr: 0x6741C, symSize: 0x4 }
  - { offset: 0x1FE56A, size: 0x8, addend: 0x0, symName: __ZN4absl12lts_2024072212log_internal15LogMessageFatalC1EPKciNS0_11string_viewE, symObjAddr: 0x1EC4, symBinAddr: 0x6741C, symSize: 0x4 }
  - { offset: 0x1FE599, size: 0x8, addend: 0x0, symName: __ZN4absl12lts_2024072212log_internal15LogMessageFatalD2Ev, symObjAddr: 0x1EC8, symBinAddr: 0x3D280, symSize: 0x18 }
  - { offset: 0x1FE5E9, size: 0x8, addend: 0x0, symName: __ZN4absl12lts_2024072212log_internal15LogMessageFatalD1Ev, symObjAddr: 0x1EE0, symBinAddr: 0x3D298, symSize: 0xC }
  - { offset: 0x1FE617, size: 0x8, addend: 0x0, symName: __ZN4absl12lts_2024072212log_internal20LogMessageDebugFatalC2EPKci, symObjAddr: 0x1EEC, symBinAddr: 0x67420, symSize: 0x4 }
  - { offset: 0x1FE62F, size: 0x8, addend: 0x0, symName: __ZN4absl12lts_2024072212log_internal20LogMessageDebugFatalC2EPKci, symObjAddr: 0x1EEC, symBinAddr: 0x67420, symSize: 0x4 }
  - { offset: 0x1FE64D, size: 0x8, addend: 0x0, symName: __ZN4absl12lts_2024072212log_internal20LogMessageDebugFatalC2EPKci, symObjAddr: 0x1EEC, symBinAddr: 0x67420, symSize: 0x4 }
  - { offset: 0x1FE658, size: 0x8, addend: 0x0, symName: __ZN4absl12lts_2024072212log_internal20LogMessageDebugFatalC1EPKci, symObjAddr: 0x1EF0, symBinAddr: 0x67424, symSize: 0x4 }
  - { offset: 0x1FE676, size: 0x8, addend: 0x0, symName: __ZN4absl12lts_2024072212log_internal20LogMessageDebugFatalC1EPKci, symObjAddr: 0x1EF0, symBinAddr: 0x67424, symSize: 0x4 }
  - { offset: 0x1FE681, size: 0x8, addend: 0x0, symName: __ZN4absl12lts_2024072212log_internal20LogMessageDebugFatalD2Ev, symObjAddr: 0x1EF4, symBinAddr: 0x3D2A4, symSize: 0x18 }
  - { offset: 0x1FE6D1, size: 0x8, addend: 0x0, symName: __ZN4absl12lts_2024072212log_internal20LogMessageDebugFatalD1Ev, symObjAddr: 0x1F0C, symBinAddr: 0x3D2BC, symSize: 0xC }
  - { offset: 0x1FE6FF, size: 0x8, addend: 0x0, symName: __ZN4absl12lts_2024072212log_internal27LogMessageQuietlyDebugFatalC2EPKci, symObjAddr: 0x1F18, symBinAddr: 0x67428, symSize: 0x18 }
  - { offset: 0x1FE717, size: 0x8, addend: 0x0, symName: __ZN4absl12lts_2024072212log_internal27LogMessageQuietlyDebugFatalC2EPKci, symObjAddr: 0x1F18, symBinAddr: 0x67428, symSize: 0x18 }
  - { offset: 0x1FE77D, size: 0x8, addend: 0x0, symName: _OUTLINED_FUNCTION_3, symObjAddr: 0x27C8, symBinAddr: 0x3D4B0, symSize: 0x8 }
  - { offset: 0x1FE795, size: 0x8, addend: 0x0, symName: _OUTLINED_FUNCTION_1, symObjAddr: 0x27A8, symBinAddr: 0x3D490, symSize: 0x10 }
  - { offset: 0x1FE7AD, size: 0x8, addend: 0x0, symName: __ZN4absl12lts_2024072212log_internal27LogMessageQuietlyDebugFatalC1EPKci, symObjAddr: 0x1F30, symBinAddr: 0x67440, symSize: 0x18 }
  - { offset: 0x1FE813, size: 0x8, addend: 0x0, symName: __ZN4absl12lts_2024072212log_internal27LogMessageQuietlyDebugFatalD2Ev, symObjAddr: 0x1F48, symBinAddr: 0x3D2C8, symSize: 0x18 }
  - { offset: 0x1FE863, size: 0x8, addend: 0x0, symName: __ZN4absl12lts_2024072212log_internal27LogMessageQuietlyDebugFatalD1Ev, symObjAddr: 0x1F60, symBinAddr: 0x3D2E0, symSize: 0xC }
  - { offset: 0x1FE891, size: 0x8, addend: 0x0, symName: __ZN4absl12lts_2024072212log_internal22LogMessageQuietlyFatalC2EPKci, symObjAddr: 0x1F6C, symBinAddr: 0x67458, symSize: 0x18 }
  - { offset: 0x1FE8A9, size: 0x8, addend: 0x0, symName: __ZN4absl12lts_2024072212log_internal22LogMessageQuietlyFatalC2EPKci, symObjAddr: 0x1F6C, symBinAddr: 0x67458, symSize: 0x18 }
  - { offset: 0x1FE90F, size: 0x8, addend: 0x0, symName: __ZN4absl12lts_2024072212log_internal22LogMessageQuietlyFatalC1EPKci, symObjAddr: 0x1F84, symBinAddr: 0x67470, symSize: 0x18 }
  - { offset: 0x1FE975, size: 0x8, addend: 0x0, symName: __ZN4absl12lts_2024072212log_internal22LogMessageQuietlyFatalC2EPKciNS0_11string_viewE, symObjAddr: 0x1F9C, symBinAddr: 0x67488, symSize: 0x48 }
  - { offset: 0x1FEA6B, size: 0x8, addend: 0x0, symName: __ZN4absl12lts_2024072212log_internal22LogMessageQuietlyFatalD2Ev, symObjAddr: 0x1FE4, symBinAddr: 0x3D2EC, symSize: 0x18 }
  - { offset: 0x1FEA7D, size: 0x8, addend: 0x0, symName: __ZN4absl12lts_2024072212log_internal22LogMessageQuietlyFatalD2Ev, symObjAddr: 0x1FE4, symBinAddr: 0x3D2EC, symSize: 0x18 }
  - { offset: 0x1FEACD, size: 0x8, addend: 0x0, symName: __ZN4absl12lts_2024072212log_internal22LogMessageQuietlyFatalC1EPKciNS0_11string_viewE, symObjAddr: 0x1FFC, symBinAddr: 0x674D0, symSize: 0x48 }
  - { offset: 0x1FEBC3, size: 0x8, addend: 0x0, symName: __ZN4absl12lts_2024072212log_internal22LogMessageQuietlyFatalD1Ev, symObjAddr: 0x2044, symBinAddr: 0x3D304, symSize: 0xC }
  - { offset: 0x1FEBD5, size: 0x8, addend: 0x0, symName: __ZN4absl12lts_2024072212log_internal22LogMessageQuietlyFatalD1Ev, symObjAddr: 0x2044, symBinAddr: 0x3D304, symSize: 0xC }
  - { offset: 0x1FF351, size: 0x8, addend: 0x0, symName: __ZN4absl12lts_2024072223inlined_vector_internal7StorageIPNS0_7LogSinkELm16ENSt3__19allocatorIS4_EEE15EmplaceBackSlowIJRKS4_EEERS4_DpOT_, symObjAddr: 0x25BC, symBinAddr: 0x3D3A4, symSize: 0xD8 }
  - { offset: 0x204E4B, size: 0x8, addend: 0x0, symName: __ZN4absl12lts_20240722lsERNSt3__113basic_ostreamIcNS1_11char_traitsIcEEEENS0_11LogSeverityE, symObjAddr: 0x0, symBinAddr: 0x3D4CC, symSize: 0x74 }
  - { offset: 0x204F97, size: 0x8, addend: 0x0, symName: __ZN4absl12lts_20240722lsERNSt3__113basic_ostreamIcNS1_11char_traitsIcEEEENS0_18LogSeverityAtLeastE, symObjAddr: 0x74, symBinAddr: 0x3D540, symSize: 0x64 }
  - { offset: 0x205051, size: 0x8, addend: 0x0, symName: __ZN4absl12lts_20240722lsERNSt3__113basic_ostreamIcNS1_11char_traitsIcEEEENS0_17LogSeverityAtMostE, symObjAddr: 0xD8, symBinAddr: 0x3D5A4, symSize: 0x64 }
  - { offset: 0x2076C9, size: 0x8, addend: 0x0, symName: __ZNK4absl12lts_202407227LogSink11KeyFunctionEv, symObjAddr: 0x0, symBinAddr: 0x3D608, symSize: 0x4 }
  - { offset: 0x208368, size: 0x8, addend: 0x0, symName: __ZNK4absl12lts_202407227LogSink11KeyFunctionEv, symObjAddr: 0x0, symBinAddr: 0x3D608, symSize: 0x4 }
  - { offset: 0x20838D, size: 0x8, addend: 0x0, symName: __ZN4absl12lts_202407227LogSinkD1Ev, symObjAddr: 0x4, symBinAddr: 0x67518, symSize: 0x4 }
  - { offset: 0x2083B6, size: 0x8, addend: 0x0, symName: __ZN4absl12lts_202407227LogSinkD0Ev, symObjAddr: 0x8, symBinAddr: 0x6751C, symSize: 0x4 }
  - { offset: 0x2083DF, size: 0x8, addend: 0x0, symName: __ZN4absl12lts_202407227LogSink5FlushEv, symObjAddr: 0xC, symBinAddr: 0x3D60C, symSize: 0x4 }
  - { offset: 0x20A2E1, size: 0x8, addend: 0x0, symName: __ZN4absl12lts_2024072212log_internal12_GLOBAL__N_111GlobalSinksEv, symObjAddr: 0x134, symBinAddr: 0x3D744, symSize: 0x68 }
  - { offset: 0x20A30E, size: 0x8, addend: 0x0, symName: __ZZN4absl12lts_2024072212log_internal12_GLOBAL__N_111GlobalSinksEvE12global_sinks, symObjAddr: 0x3C5F0, symBinAddr: 0x870A0, symSize: 0x0 }
  - { offset: 0x20A45B, size: 0x8, addend: 0x0, symName: __ZN4absl12lts_2024072212log_internal24ThreadIsLoggingToLogSinkEv, symObjAddr: 0x0, symBinAddr: 0x3D610, symSize: 0x24 }
  - { offset: 0x20A4A3, size: 0x8, addend: 0x0, symName: __ZN4absl12lts_2024072212log_internal10LogToSinksERKNS0_8LogEntryENS0_4SpanIPNS0_7LogSinkEEEb, symObjAddr: 0x24, symBinAddr: 0x3D634, symSize: 0x110 }
  - { offset: 0x20A82C, size: 0x8, addend: 0x0, symName: __ZN4absl12lts_2024072212log_internal10AddLogSinkEPNS0_7LogSinkE, symObjAddr: 0x19C, symBinAddr: 0x3D7AC, symSize: 0x24 }
  - { offset: 0x20A872, size: 0x8, addend: 0x0, symName: __ZN4absl12lts_2024072212log_internal13RemoveLogSinkEPNS0_7LogSinkE, symObjAddr: 0x330, symBinAddr: 0x3D940, symSize: 0xBC }
  - { offset: 0x20AB7B, size: 0x8, addend: 0x0, symName: __ZN4absl12lts_2024072212log_internal13FlushLogSinksEv, symObjAddr: 0x3EC, symBinAddr: 0x3D9FC, symSize: 0xE4 }
  - { offset: 0x20B073, size: 0x8, addend: 0x0, symName: __ZN4absl12lts_2024072213base_internal12CallOnceImplIZNS0_12log_internal12_GLOBAL__N_113StderrLogSink4SendERKNS0_8LogEntryEEUlvE_JEEEvPNSt3__16atomicIjEENS1_14SchedulingModeEOT_DpOT0_, symObjAddr: 0x624, symBinAddr: 0x3DC20, symSize: 0x180 }
  - { offset: 0x20B09A, size: 0x8, addend: 0x0, symName: __ZZN4absl12lts_2024072213base_internal12CallOnceImplIZNS0_12log_internal12_GLOBAL__N_113StderrLogSink4SendERKNS0_8LogEntryEEUlvE_JEEEvPNSt3__16atomicIjEENS1_14SchedulingModeEOT_DpOT0_E5trans, symObjAddr: 0xD2C, symBinAddr: 0x70528, symSize: 0x0 }
  - { offset: 0x210907, size: 0x8, addend: 0x0, symName: __ZN4absl12lts_2024072212log_internal12_GLOBAL__N_113StderrLogSink4SendERKNS0_8LogEntryE, symObjAddr: 0x564, symBinAddr: 0x3DB64, symSize: 0x9C }
  - { offset: 0x21092B, size: 0x8, addend: 0x0, symName: __ZZN4absl12lts_2024072212log_internal12_GLOBAL__N_113StderrLogSink4SendERKNS0_8LogEntryEE23warn_if_not_initialized, symObjAddr: 0x3C618, symBinAddr: 0x870C8, symSize: 0x0 }
  - { offset: 0x210D5F, size: 0x8, addend: 0x0, symName: __ZNK4absl12lts_202407228LogEntry36text_message_with_prefix_and_newlineEv, symObjAddr: 0x604, symBinAddr: 0x3DC00, symSize: 0x20 }
  - { offset: 0x210D88, size: 0x8, addend: 0x0, symName: __ZNK4absl12lts_202407228LogEntry36text_message_with_prefix_and_newlineEv, symObjAddr: 0x604, symBinAddr: 0x3DC00, symSize: 0x20 }
  - { offset: 0x210E1D, size: 0x8, addend: 0x0, symName: __ZN4absl12lts_2024072213base_internal12CallOnceImplIZNS0_12log_internal12_GLOBAL__N_113StderrLogSink4SendERKNS0_8LogEntryEEUlvE_JEEEvPNSt3__16atomicIjEENS1_14SchedulingModeEOT_DpOT0_, symObjAddr: 0x624, symBinAddr: 0x3DC20, symSize: 0x180 }
  - { offset: 0x210E28, size: 0x8, addend: 0x0, symName: __ZN4absl12lts_2024072212NoDestructorINS0_12log_internal12_GLOBAL__N_116GlobalLogSinkSetEEC1IJELi0EEEDpOT_, symObjAddr: 0x4D0, symBinAddr: 0x3DAE0, symSize: 0x7C }
  - { offset: 0x21101B, size: 0x8, addend: 0x0, symName: __ZN4absl12lts_2024072212log_internal12_GLOBAL__N_116GlobalLogSinkSet10AddLogSinkEPNS0_7LogSinkE, symObjAddr: 0x1C0, symBinAddr: 0x3D7D0, symSize: 0x170 }
  - { offset: 0x2118B5, size: 0x8, addend: 0x0, symName: __ZN4absl12lts_2024072212log_internal12_GLOBAL__N_116GlobalLogSinkSet10AddLogSinkEPNS0_7LogSinkE.cold.1, symObjAddr: 0xA4C, symBinAddr: 0x67520, symSize: 0x68 }
  - { offset: 0x211A6A, size: 0x8, addend: 0x0, symName: __ZN4absl12lts_2024072212log_internal13RemoveLogSinkEPNS0_7LogSinkE.cold.1, symObjAddr: 0xAB4, symBinAddr: 0x67588, symSize: 0x68 }
  - { offset: 0x211D2E, size: 0x8, addend: 0x0, symName: __ZN4absl12lts_2024072212NoDestructorINS0_12log_internal12_GLOBAL__N_116GlobalLogSinkSetEEC1IJELi0EEEDpOT_.cold.1, symObjAddr: 0xB1C, symBinAddr: 0x675F0, symSize: 0x3C }
  - { offset: 0x211E64, size: 0x8, addend: 0x0, symName: __ZN4absl12lts_2024072212log_internal12_GLOBAL__N_113StderrLogSinkD1Ev, symObjAddr: 0x55C, symBinAddr: 0x3DB5C, symSize: 0x4 }
  - { offset: 0x211E8D, size: 0x8, addend: 0x0, symName: __ZN4absl12lts_2024072212log_internal12_GLOBAL__N_113StderrLogSinkD0Ev, symObjAddr: 0x560, symBinAddr: 0x3DB60, symSize: 0x4 }
  - { offset: 0x21237F, size: 0x8, addend: 0x0, symName: __ZNK4absl12lts_2024072213base_internal10AtomicHookIPFvNS0_11LogSeverityEPKciRKNSt3__112basic_stringIcNS6_11char_traitsIcEENS6_9allocatorIcEEEEEEclIJS3_RKS5_iRA38_S4_EEEvDpOT_, symObjAddr: 0x7A4, symBinAddr: 0x3DDA0, symSize: 0x84 }
  - { offset: 0x212A6D, size: 0x8, addend: 0x0, symName: __ZNK4absl12lts_2024072213base_internal10AtomicHookIPFvNS0_11LogSeverityEPKciRKNSt3__112basic_stringIcNS6_11char_traitsIcEENS6_9allocatorIcEEEEEEclIJS3_RKS5_iRA34_S4_EEEvDpOT_, symObjAddr: 0x9C8, symBinAddr: 0x3DE24, symSize: 0x84 }
  - { offset: 0x212A91, size: 0x8, addend: 0x0, symName: __ZNK4absl12lts_2024072213base_internal10AtomicHookIPFvNS0_11LogSeverityEPKciRKNSt3__112basic_stringIcNS6_11char_traitsIcEENS6_9allocatorIcEEEEEEclIJS3_RKS5_iRA34_S4_EEEvDpOT_, symObjAddr: 0x9C8, symBinAddr: 0x3DE24, symSize: 0x84 }
  - { offset: 0x214DD4, size: 0x8, addend: 0x0, symName: __ZN4absl12lts_2024072213base_internal12_GLOBAL__N_119create_globals_onceE, symObjAddr: 0x13EE8, symBinAddr: 0x87228, symSize: 0x0 }
  - { offset: 0x214DEF, size: 0x8, addend: 0x0, symName: __ZN4absl12lts_2024072213base_internal12_GLOBAL__N_122unhooked_arena_storageE, symObjAddr: 0x13EF0, symBinAddr: 0x87230, symSize: 0x0 }
  - { offset: 0x214E0A, size: 0x8, addend: 0x0, symName: __ZN4absl12lts_2024072213base_internal12_GLOBAL__N_137unhooked_async_sig_safe_arena_storageE, symObjAddr: 0x14038, symBinAddr: 0x87378, symSize: 0x0 }
  - { offset: 0x214E25, size: 0x8, addend: 0x0, symName: __ZN4absl12lts_2024072213base_internal12_GLOBAL__N_121default_arena_storageE, symObjAddr: 0x13DA0, symBinAddr: 0x870E0, symSize: 0x0 }
  - { offset: 0x214E9D, size: 0x8, addend: 0x0, symName: __ZN4absl12lts_2024072213base_internal12_GLOBAL__N_118CreateGlobalArenasEv, symObjAddr: 0x34, symBinAddr: 0x3DEDC, symSize: 0x3C }
  - { offset: 0x21505A, size: 0x8, addend: 0x0, symName: __ZN4absl12lts_2024072213base_internal12CallOnceImplIRFvvEJEEEvPNSt3__16atomicIjEENS1_14SchedulingModeEOT_DpOT0_, symObjAddr: 0x109C, symBinAddr: 0x3EF34, symSize: 0x11C }
  - { offset: 0x215080, size: 0x8, addend: 0x0, symName: __ZZN4absl12lts_2024072213base_internal12CallOnceImplIRFvvEJEEEvPNSt3__16atomicIjEENS1_14SchedulingModeEOT_DpOT0_E5trans, symObjAddr: 0x1C20, symBinAddr: 0x70560, symSize: 0x0 }
  - { offset: 0x215445, size: 0x8, addend: 0x0, symName: __ZN4absl12lts_2024072213base_internalL16DoAllocWithArenaEmPNS1_13LowLevelAlloc5ArenaE, symObjAddr: 0x800, symBinAddr: 0x3E6A8, symSize: 0x5A8 }
  - { offset: 0x215B10, size: 0x8, addend: 0x0, symName: __ZN4absl12lts_2024072213base_internalL13AddToFreelistEPvPNS1_13LowLevelAlloc5ArenaE, symObjAddr: 0x6F0, symBinAddr: 0x3E598, symSize: 0xCC }
  - { offset: 0x215C3D, size: 0x8, addend: 0x0, symName: __ZN4absl12lts_2024072213base_internalL18LLA_SkiplistLevelsEmmPj, symObjAddr: 0xDB8, symBinAddr: 0x3EC50, symSize: 0x8C }
  - { offset: 0x215D34, size: 0x8, addend: 0x0, symName: __ZN4absl12lts_2024072213base_internalL18LLA_SkiplistInsertEPNS1_12_GLOBAL__N_19AllocListES4_PS4_, symObjAddr: 0xE44, symBinAddr: 0x3ECDC, symSize: 0xAC }
  - { offset: 0x215D3F, size: 0x8, addend: 0x0, symName: __ZN4absl12lts_2024072213base_internalL18LLA_SkiplistInsertEPNS1_12_GLOBAL__N_19AllocListES4_PS4_, symObjAddr: 0xE44, symBinAddr: 0x3ECDC, symSize: 0xAC }
  - { offset: 0x215DF1, size: 0x8, addend: 0x0, symName: __ZN4absl12lts_2024072213base_internalL8CoalesceEPNS1_12_GLOBAL__N_19AllocListE, symObjAddr: 0xEF0, symBinAddr: 0x3ED88, symSize: 0xC4 }
  - { offset: 0x215FBF, size: 0x8, addend: 0x0, symName: __ZN4absl12lts_2024072213base_internalL18LLA_SkiplistDeleteEPNS1_12_GLOBAL__N_19AllocListES4_PS4_, symObjAddr: 0xFB4, symBinAddr: 0x3EE4C, symSize: 0xE8 }
  - { offset: 0x2160A7, size: 0x8, addend: 0x0, symName: __ZN4absl12lts_2024072213base_internal12CallOnceImplIRFvvEJEEEvPNSt3__16atomicIjEENS1_14SchedulingModeEOT_DpOT0_, symObjAddr: 0x109C, symBinAddr: 0x3EF34, symSize: 0x11C }
  - { offset: 0x216FA4, size: 0x8, addend: 0x0, symName: __ZN4absl12lts_2024072213base_internal13LowLevelAlloc12DefaultArenaEv, symObjAddr: 0x0, symBinAddr: 0x3DEA8, symSize: 0x34 }
  - { offset: 0x216FE3, size: 0x8, addend: 0x0, symName: __ZN4absl12lts_2024072213base_internal13LowLevelAlloc12DefaultArenaEv, symObjAddr: 0x0, symBinAddr: 0x3DEA8, symSize: 0x34 }
  - { offset: 0x217006, size: 0x8, addend: 0x0, symName: __ZN4absl12lts_2024072213base_internal13LowLevelAlloc12DefaultArenaEv, symObjAddr: 0x0, symBinAddr: 0x3DEA8, symSize: 0x34 }
  - { offset: 0x217037, size: 0x8, addend: 0x0, symName: __ZN4absl12lts_2024072213base_internal13LowLevelAlloc12DefaultArenaEv.cold.1, symObjAddr: 0x11B8, symBinAddr: 0x6762C, symSize: 0x14 }
  - { offset: 0x217052, size: 0x8, addend: 0x0, symName: __ZN4absl12lts_2024072213base_internal13LowLevelAlloc12DefaultArenaEv.cold.1, symObjAddr: 0x11B8, symBinAddr: 0x6762C, symSize: 0x14 }
  - { offset: 0x21708D, size: 0x8, addend: 0x0, symName: __ZN4absl12lts_2024072213base_internal13LowLevelAlloc5ArenaC2Ej, symObjAddr: 0x70, symBinAddr: 0x3DF18, symSize: 0x90 }
  - { offset: 0x21713D, size: 0x8, addend: 0x0, symName: __ZN4absl12lts_2024072213base_internal13LowLevelAlloc5ArenaC1Ej, symObjAddr: 0x100, symBinAddr: 0x3DFA8, symSize: 0x4 }
  - { offset: 0x217166, size: 0x8, addend: 0x0, symName: __ZN4absl12lts_2024072213base_internal13LowLevelAlloc5ArenaC1Ej, symObjAddr: 0x100, symBinAddr: 0x3DFA8, symSize: 0x4 }
  - { offset: 0x2171D1, size: 0x8, addend: 0x0, symName: __ZN4absl12lts_2024072213base_internal13LowLevelAlloc8NewArenaEj, symObjAddr: 0x104, symBinAddr: 0x3DFAC, symSize: 0x9C }
  - { offset: 0x217462, size: 0x8, addend: 0x0, symName: __ZN4absl12lts_2024072213base_internal13LowLevelAlloc14AllocWithArenaEmPNS2_5ArenaE, symObjAddr: 0x1A0, symBinAddr: 0x3E048, symSize: 0x14 }
  - { offset: 0x2174B2, size: 0x8, addend: 0x0, symName: __ZN4absl12lts_2024072213base_internal13LowLevelAlloc11DeleteArenaEPNS2_5ArenaE, symObjAddr: 0x1B4, symBinAddr: 0x3E05C, symSize: 0x2E8 }
  - { offset: 0x2174BD, size: 0x8, addend: 0x0, symName: __ZN4absl12lts_2024072213base_internal13LowLevelAlloc14AllocWithArenaEmPNS2_5ArenaE.cold.1, symObjAddr: 0x11E0, symBinAddr: 0x67640, symSize: 0x5C }
  - { offset: 0x2174D5, size: 0x8, addend: 0x0, symName: __ZN4absl12lts_2024072213base_internal13LowLevelAlloc11DeleteArenaEPNS2_5ArenaE, symObjAddr: 0x1B4, symBinAddr: 0x3E05C, symSize: 0x2E8 }
  - { offset: 0x217897, size: 0x8, addend: 0x0, symName: __ZN4absl12lts_2024072213base_internal12_GLOBAL__N_19ArenaLockC1EPNS1_13LowLevelAlloc5ArenaE, symObjAddr: 0x49C, symBinAddr: 0x3E344, symSize: 0x98 }
  - { offset: 0x217A36, size: 0x8, addend: 0x0, symName: __ZN4absl12lts_2024072213base_internal12_GLOBAL__N_19ArenaLock5LeaveEv, symObjAddr: 0x534, symBinAddr: 0x3E3DC, symSize: 0x70 }
  - { offset: 0x217B55, size: 0x8, addend: 0x0, symName: __ZN4absl12lts_2024072213base_internal13LowLevelAlloc4FreeEPv, symObjAddr: 0x5A4, symBinAddr: 0x3E44C, symSize: 0xD4 }
  - { offset: 0x217BA9, size: 0x8, addend: 0x0, symName: __ZN4absl12lts_2024072213base_internal13LowLevelAlloc4FreeEPv, symObjAddr: 0x5A4, symBinAddr: 0x3E44C, symSize: 0xD4 }
  - { offset: 0x217CBF, size: 0x8, addend: 0x0, symName: __ZN4absl12lts_2024072213base_internal12_GLOBAL__N_19ArenaLockD1Ev, symObjAddr: 0x678, symBinAddr: 0x3E520, symSize: 0x78 }
  - { offset: 0x217D30, size: 0x8, addend: 0x0, symName: __ZN4absl12lts_2024072213base_internal13LowLevelAlloc11DeleteArenaEPNS2_5ArenaE.cold.3, symObjAddr: 0x1264, symBinAddr: 0x6769C, symSize: 0x5C }
  - { offset: 0x217F00, size: 0x8, addend: 0x0, symName: __ZN4absl12lts_2024072213base_internal12_GLOBAL__N_19ArenaLock5LeaveEv.cold.1, symObjAddr: 0x12C0, symBinAddr: 0x676F8, symSize: 0x4C }
  - { offset: 0x217F40, size: 0x8, addend: 0x0, symName: __ZN4absl12lts_2024072213base_internalL13AddToFreelistEPvPNS1_13LowLevelAlloc5ArenaE.cold.1, symObjAddr: 0x130C, symBinAddr: 0x67744, symSize: 0x5C }
  - { offset: 0x217F58, size: 0x8, addend: 0x0, symName: __ZN4absl12lts_2024072213base_internalL13AddToFreelistEPvPNS1_13LowLevelAlloc5ArenaE.cold.2, symObjAddr: 0x1368, symBinAddr: 0x677A0, symSize: 0x5C }
  - { offset: 0x217F70, size: 0x8, addend: 0x0, symName: __ZN4absl12lts_2024072213base_internal13LowLevelAlloc5AllocEm, symObjAddr: 0x7BC, symBinAddr: 0x3E664, symSize: 0x44 }
  - { offset: 0x218090, size: 0x8, addend: 0x0, symName: __ZN4absl12lts_2024072213base_internalL18LLA_SkiplistLevelsEmmPj.cold.1, symObjAddr: 0x13D8, symBinAddr: 0x677FC, symSize: 0x5C }
  - { offset: 0x2180AD, size: 0x8, addend: 0x0, symName: __ZN4absl12lts_2024072213base_internalL18LLA_SkiplistDeleteEPNS1_12_GLOBAL__N_19AllocListES4_PS4_.cold.1, symObjAddr: 0x1434, symBinAddr: 0x67858, symSize: 0x5C }
  - { offset: 0x218135, size: 0x8, addend: 0x0, symName: _OUTLINED_FUNCTION_0, symObjAddr: 0x1490, symBinAddr: 0x3F050, symSize: 0x8 }
  - { offset: 0x21A001, size: 0x8, addend: 0x0, symName: __ZN4absl12lts_2024072213hash_internal19LowLevelHashLenGt16EPKvmyPKy, symObjAddr: 0x0, symBinAddr: 0x3F058, symSize: 0x164 }
  - { offset: 0x21A105, size: 0x8, addend: 0x0, symName: __ZN4absl12lts_2024072213hash_internal19LowLevelHashLenGt16EPKvmyPKy, symObjAddr: 0x0, symBinAddr: 0x3F058, symSize: 0x164 }
  - { offset: 0x21A7A0, size: 0x8, addend: 0x0, symName: __ZN4absl12lts_2024072213hash_internal12LowLevelHashEPKvmyPKy, symObjAddr: 0x164, symBinAddr: 0x3F1BC, symSize: 0x8C }
  - { offset: 0x21D830, size: 0x8, addend: 0x0, symName: __ZN4absl12lts_2024072216strings_internal15IntegerToStringIiEENSt3__112basic_stringIcNS3_11char_traitsIcEENS3_9allocatorIcEEEET_, symObjAddr: 0x25CC, symBinAddr: 0x40D6C, symSize: 0xCC }
  - { offset: 0x21DB94, size: 0x8, addend: 0x0, symName: __ZN4absl12lts_2024072216strings_internal15IntegerToStringIjEENSt3__112basic_stringIcNS3_11char_traitsIcEENS3_9allocatorIcEEEET_, symObjAddr: 0x2770, symBinAddr: 0x40E38, symSize: 0xCC }
  - { offset: 0x21DEE0, size: 0x8, addend: 0x0, symName: __ZN4absl12lts_2024072216strings_internal15IntegerToStringIlEENSt3__112basic_stringIcNS3_11char_traitsIcEENS3_9allocatorIcEEEET_, symObjAddr: 0x283C, symBinAddr: 0x40F04, symSize: 0xCC }
  - { offset: 0x21E920, size: 0x8, addend: 0x0, symName: __ZN4absl12lts_2024072216strings_internal13JoinAlgorithmINSt3__111__wrap_iterIPKNS3_12basic_stringIcNS3_11char_traitsIcEENS3_9allocatorIcEEEEEEvEESA_T_SE_NS0_11string_viewENS1_11NoFormatterE, symObjAddr: 0x2C58, symBinAddr: 0x40FD0, symSize: 0x140 }
  - { offset: 0x21F273, size: 0x8, addend: 0x0, symName: __ZN4absl12lts_2024072214flags_internal13AbslParseFlagENS0_11string_viewEPbPNSt3__112basic_stringIcNS4_11char_traitsIcEENS4_9allocatorIcEEEE, symObjAddr: 0x0, symBinAddr: 0x3F248, symSize: 0x174 }
  - { offset: 0x21F545, size: 0x8, addend: 0x0, symName: __ZN4absl12lts_2024072214flags_internal13AbslParseFlagENS0_11string_viewEPsPNSt3__112basic_stringIcNS4_11char_traitsIcEENS4_9allocatorIcEEEE, symObjAddr: 0x174, symBinAddr: 0x3F3BC, symSize: 0xEC }
  - { offset: 0x21F734, size: 0x8, addend: 0x0, symName: __ZN4absl12lts_2024072214flags_internalL11NumericBaseENS0_11string_viewE, symObjAddr: 0x96C, symBinAddr: 0x3FBB4, symSize: 0x84 }
  - { offset: 0x21F7A9, size: 0x8, addend: 0x0, symName: __ZN4absl12lts_2024072214flags_internal13AbslParseFlagENS0_11string_viewEPNS0_7uint128EPNSt3__112basic_stringIcNS5_11char_traitsIcEENS5_9allocatorIcEEEE, symObjAddr: 0x9F0, symBinAddr: 0x3FC38, symSize: 0xF8 }
  - { offset: 0x21F7E4, size: 0x8, addend: 0x0, symName: __ZN4absl12lts_2024072214flags_internal13AbslParseFlagENS0_11string_viewEPtPNSt3__112basic_stringIcNS4_11char_traitsIcEENS4_9allocatorIcEEEE, symObjAddr: 0x260, symBinAddr: 0x3F4A8, symSize: 0xEC }
  - { offset: 0x21F9D3, size: 0x8, addend: 0x0, symName: __ZN4absl12lts_2024072214flags_internal13AbslParseFlagENS0_11string_viewEPiPNSt3__112basic_stringIcNS4_11char_traitsIcEENS4_9allocatorIcEEEE, symObjAddr: 0x34C, symBinAddr: 0x3F594, symSize: 0xDC }
  - { offset: 0x21FBB7, size: 0x8, addend: 0x0, symName: __ZN4absl12lts_2024072214flags_internal13AbslParseFlagENS0_11string_viewEPjPNSt3__112basic_stringIcNS4_11char_traitsIcEENS4_9allocatorIcEEEE, symObjAddr: 0x428, symBinAddr: 0x3F670, symSize: 0xDC }
  - { offset: 0x21FDCE, size: 0x8, addend: 0x0, symName: __ZN4absl12lts_2024072214flags_internal13AbslParseFlagENS0_11string_viewEPlPNSt3__112basic_stringIcNS4_11char_traitsIcEENS4_9allocatorIcEEEE, symObjAddr: 0x504, symBinAddr: 0x3F74C, symSize: 0xDC }
  - { offset: 0x21FFE5, size: 0x8, addend: 0x0, symName: __ZN4absl12lts_2024072214flags_internal13AbslParseFlagENS0_11string_viewEPmPNSt3__112basic_stringIcNS4_11char_traitsIcEENS4_9allocatorIcEEEE, symObjAddr: 0x5E0, symBinAddr: 0x3F828, symSize: 0xDC }
  - { offset: 0x2201FC, size: 0x8, addend: 0x0, symName: __ZN4absl12lts_2024072214flags_internal13AbslParseFlagENS0_11string_viewEPxPNSt3__112basic_stringIcNS4_11char_traitsIcEENS4_9allocatorIcEEEE, symObjAddr: 0x6BC, symBinAddr: 0x3F904, symSize: 0xDC }
  - { offset: 0x220413, size: 0x8, addend: 0x0, symName: __ZN4absl12lts_2024072214flags_internal13AbslParseFlagENS0_11string_viewEPyPNSt3__112basic_stringIcNS4_11char_traitsIcEENS4_9allocatorIcEEEE, symObjAddr: 0x798, symBinAddr: 0x3F9E0, symSize: 0xDC }
  - { offset: 0x2205FA, size: 0x8, addend: 0x0, symName: __ZN4absl12lts_2024072214flags_internal13AbslParseFlagENS0_11string_viewEPNS0_6int128EPNSt3__112basic_stringIcNS5_11char_traitsIcEENS5_9allocatorIcEEEE, symObjAddr: 0x874, symBinAddr: 0x3FABC, symSize: 0xF8 }
  - { offset: 0x2207B0, size: 0x8, addend: 0x0, symName: __ZN4absl12lts_2024072214flags_internal13AbslParseFlagENS0_11string_viewEPNS0_7uint128EPNSt3__112basic_stringIcNS5_11char_traitsIcEENS5_9allocatorIcEEEE, symObjAddr: 0x9F0, symBinAddr: 0x3FC38, symSize: 0xF8 }
  - { offset: 0x220966, size: 0x8, addend: 0x0, symName: __ZN4absl12lts_2024072214flags_internal13AbslParseFlagENS0_11string_viewEPfPNSt3__112basic_stringIcNS4_11char_traitsIcEENS4_9allocatorIcEEEE, symObjAddr: 0xAE8, symBinAddr: 0x3FD30, symSize: 0x4 }
  - { offset: 0x220990, size: 0x8, addend: 0x0, symName: __ZN4absl12lts_2024072214flags_internal13AbslParseFlagENS0_11string_viewEPfPNSt3__112basic_stringIcNS4_11char_traitsIcEENS4_9allocatorIcEEEE, symObjAddr: 0xAE8, symBinAddr: 0x3FD30, symSize: 0x4 }
  - { offset: 0x2209B1, size: 0x8, addend: 0x0, symName: __ZN4absl12lts_2024072214flags_internal13AbslParseFlagENS0_11string_viewEPdPNSt3__112basic_stringIcNS4_11char_traitsIcEENS4_9allocatorIcEEEE, symObjAddr: 0xAEC, symBinAddr: 0x3FD34, symSize: 0x4 }
  - { offset: 0x2209DB, size: 0x8, addend: 0x0, symName: __ZN4absl12lts_2024072214flags_internal13AbslParseFlagENS0_11string_viewEPdPNSt3__112basic_stringIcNS4_11char_traitsIcEENS4_9allocatorIcEEEE, symObjAddr: 0xAEC, symBinAddr: 0x3FD34, symSize: 0x4 }
  - { offset: 0x2209FC, size: 0x8, addend: 0x0, symName: __ZN4absl12lts_2024072214flags_internal13AbslParseFlagENS0_11string_viewEPNSt3__112basic_stringIcNS3_11char_traitsIcEENS3_9allocatorIcEEEESA_, symObjAddr: 0xAF0, symBinAddr: 0x3FD38, symSize: 0x28 }
  - { offset: 0x220A44, size: 0x8, addend: 0x0, symName: __ZN4absl12lts_2024072214flags_internal13AbslParseFlagENS0_11string_viewEPNSt3__16vectorINS3_12basic_stringIcNS3_11char_traitsIcEENS3_9allocatorIcEEEENS8_ISA_EEEEPSA_, symObjAddr: 0xB18, symBinAddr: 0x3FD60, symSize: 0x84 }
  - { offset: 0x220C73, size: 0x8, addend: 0x0, symName: __ZN4absl12lts_2024072214flags_internal7UnparseEb, symObjAddr: 0xB9C, symBinAddr: 0x3FDE4, symSize: 0x20 }
  - { offset: 0x220CD8, size: 0x8, addend: 0x0, symName: __ZN4absl12lts_2024072214flags_internal7UnparseEs, symObjAddr: 0xBBC, symBinAddr: 0x3FE04, symSize: 0x4 }
  - { offset: 0x220D06, size: 0x8, addend: 0x0, symName: __ZN4absl12lts_2024072214flags_internal7UnparseEs, symObjAddr: 0xBBC, symBinAddr: 0x3FE04, symSize: 0x4 }
  - { offset: 0x220D21, size: 0x8, addend: 0x0, symName: __ZN4absl12lts_2024072214flags_internal7UnparseEs, symObjAddr: 0xBBC, symBinAddr: 0x3FE04, symSize: 0x4 }
  - { offset: 0x220D3F, size: 0x8, addend: 0x0, symName: __ZN4absl12lts_2024072214flags_internal7UnparseEs, symObjAddr: 0xBBC, symBinAddr: 0x3FE04, symSize: 0x4 }
  - { offset: 0x220D58, size: 0x8, addend: 0x0, symName: __ZN4absl12lts_2024072214flags_internal7UnparseEt, symObjAddr: 0xBC0, symBinAddr: 0x3FE08, symSize: 0x4 }
  - { offset: 0x220D86, size: 0x8, addend: 0x0, symName: __ZN4absl12lts_2024072214flags_internal7UnparseEt, symObjAddr: 0xBC0, symBinAddr: 0x3FE08, symSize: 0x4 }
  - { offset: 0x220DA1, size: 0x8, addend: 0x0, symName: __ZN4absl12lts_2024072214flags_internal7UnparseEt, symObjAddr: 0xBC0, symBinAddr: 0x3FE08, symSize: 0x4 }
  - { offset: 0x220DBF, size: 0x8, addend: 0x0, symName: __ZN4absl12lts_2024072214flags_internal7UnparseEt, symObjAddr: 0xBC0, symBinAddr: 0x3FE08, symSize: 0x4 }
  - { offset: 0x220DD9, size: 0x8, addend: 0x0, symName: __ZN4absl12lts_2024072214flags_internal7UnparseEi, symObjAddr: 0xBC4, symBinAddr: 0x3FE0C, symSize: 0x4 }
  - { offset: 0x220DF7, size: 0x8, addend: 0x0, symName: __ZN4absl12lts_2024072214flags_internal7UnparseEi, symObjAddr: 0xBC4, symBinAddr: 0x3FE0C, symSize: 0x4 }
  - { offset: 0x220E12, size: 0x8, addend: 0x0, symName: __ZN4absl12lts_2024072214flags_internal7UnparseEi, symObjAddr: 0xBC4, symBinAddr: 0x3FE0C, symSize: 0x4 }
  - { offset: 0x220E30, size: 0x8, addend: 0x0, symName: __ZN4absl12lts_2024072214flags_internal7UnparseEi, symObjAddr: 0xBC4, symBinAddr: 0x3FE0C, symSize: 0x4 }
  - { offset: 0x220E49, size: 0x8, addend: 0x0, symName: __ZN4absl12lts_2024072214flags_internal7UnparseEj, symObjAddr: 0xBC8, symBinAddr: 0x3FE10, symSize: 0x4 }
  - { offset: 0x220E77, size: 0x8, addend: 0x0, symName: __ZN4absl12lts_2024072214flags_internal7UnparseEj, symObjAddr: 0xBC8, symBinAddr: 0x3FE10, symSize: 0x4 }
  - { offset: 0x220E92, size: 0x8, addend: 0x0, symName: __ZN4absl12lts_2024072214flags_internal7UnparseEj, symObjAddr: 0xBC8, symBinAddr: 0x3FE10, symSize: 0x4 }
  - { offset: 0x220EB0, size: 0x8, addend: 0x0, symName: __ZN4absl12lts_2024072214flags_internal7UnparseEj, symObjAddr: 0xBC8, symBinAddr: 0x3FE10, symSize: 0x4 }
  - { offset: 0x220EC9, size: 0x8, addend: 0x0, symName: __ZN4absl12lts_2024072214flags_internal7UnparseEl, symObjAddr: 0xBCC, symBinAddr: 0x3FE14, symSize: 0x4 }
  - { offset: 0x220EF7, size: 0x8, addend: 0x0, symName: __ZN4absl12lts_2024072214flags_internal7UnparseEl, symObjAddr: 0xBCC, symBinAddr: 0x3FE14, symSize: 0x4 }
  - { offset: 0x220F12, size: 0x8, addend: 0x0, symName: __ZN4absl12lts_2024072214flags_internal7UnparseEl, symObjAddr: 0xBCC, symBinAddr: 0x3FE14, symSize: 0x4 }
  - { offset: 0x220F30, size: 0x8, addend: 0x0, symName: __ZN4absl12lts_2024072214flags_internal7UnparseEl, symObjAddr: 0xBCC, symBinAddr: 0x3FE14, symSize: 0x4 }
  - { offset: 0x220F49, size: 0x8, addend: 0x0, symName: __ZN4absl12lts_2024072214flags_internal7UnparseEm, symObjAddr: 0xBD0, symBinAddr: 0x3FE18, symSize: 0x4 }
  - { offset: 0x220F77, size: 0x8, addend: 0x0, symName: __ZN4absl12lts_2024072214flags_internal7UnparseEm, symObjAddr: 0xBD0, symBinAddr: 0x3FE18, symSize: 0x4 }
  - { offset: 0x220F92, size: 0x8, addend: 0x0, symName: __ZN4absl12lts_2024072214flags_internal7UnparseEm, symObjAddr: 0xBD0, symBinAddr: 0x3FE18, symSize: 0x4 }
  - { offset: 0x220FB0, size: 0x8, addend: 0x0, symName: __ZN4absl12lts_2024072214flags_internal7UnparseEm, symObjAddr: 0xBD0, symBinAddr: 0x3FE18, symSize: 0x4 }
  - { offset: 0x220FC9, size: 0x8, addend: 0x0, symName: __ZN4absl12lts_2024072214flags_internal7UnparseEx, symObjAddr: 0xBD4, symBinAddr: 0x3FE1C, symSize: 0x4 }
  - { offset: 0x220FF7, size: 0x8, addend: 0x0, symName: __ZN4absl12lts_2024072214flags_internal7UnparseEx, symObjAddr: 0xBD4, symBinAddr: 0x3FE1C, symSize: 0x4 }
  - { offset: 0x221012, size: 0x8, addend: 0x0, symName: __ZN4absl12lts_2024072214flags_internal7UnparseEx, symObjAddr: 0xBD4, symBinAddr: 0x3FE1C, symSize: 0x4 }
  - { offset: 0x221030, size: 0x8, addend: 0x0, symName: __ZN4absl12lts_2024072214flags_internal7UnparseEx, symObjAddr: 0xBD4, symBinAddr: 0x3FE1C, symSize: 0x4 }
  - { offset: 0x221049, size: 0x8, addend: 0x0, symName: __ZN4absl12lts_2024072214flags_internal7UnparseEy, symObjAddr: 0xBD8, symBinAddr: 0x3FE20, symSize: 0x4 }
  - { offset: 0x221077, size: 0x8, addend: 0x0, symName: __ZN4absl12lts_2024072214flags_internal7UnparseEy, symObjAddr: 0xBD8, symBinAddr: 0x3FE20, symSize: 0x4 }
  - { offset: 0x221092, size: 0x8, addend: 0x0, symName: __ZN4absl12lts_2024072214flags_internal7UnparseEy, symObjAddr: 0xBD8, symBinAddr: 0x3FE20, symSize: 0x4 }
  - { offset: 0x2210B0, size: 0x8, addend: 0x0, symName: __ZN4absl12lts_2024072214flags_internal7UnparseEy, symObjAddr: 0xBD8, symBinAddr: 0x3FE20, symSize: 0x4 }
  - { offset: 0x2210CA, size: 0x8, addend: 0x0, symName: __ZN4absl12lts_2024072214flags_internal7UnparseENS0_6int128E, symObjAddr: 0xBDC, symBinAddr: 0x3FE24, symSize: 0xE0 }
  - { offset: 0x2212CE, size: 0x8, addend: 0x0, symName: __ZN4absl12lts_2024072214flags_internal7UnparseENS0_7uint128E, symObjAddr: 0xE30, symBinAddr: 0x3FF04, symSize: 0xE0 }
  - { offset: 0x2214D1, size: 0x8, addend: 0x0, symName: __ZN4absl12lts_2024072214flags_internal7UnparseEf, symObjAddr: 0xF10, symBinAddr: 0x3FFE4, symSize: 0x4 }
  - { offset: 0x221500, size: 0x8, addend: 0x0, symName: __ZN4absl12lts_2024072214flags_internal7UnparseEf, symObjAddr: 0xF10, symBinAddr: 0x3FFE4, symSize: 0x4 }
  - { offset: 0x22151C, size: 0x8, addend: 0x0, symName: __ZN4absl12lts_2024072214flags_internal23UnparseFloatingPointValIfEENSt3__112basic_stringIcNS3_11char_traitsIcEENS3_9allocatorIcEEEET_, symObjAddr: 0xF14, symBinAddr: 0x3FFE8, symSize: 0x164 }
  - { offset: 0x221B14, size: 0x8, addend: 0x0, symName: __ZN4absl12lts_2024072214flags_internal7UnparseEd, symObjAddr: 0x1078, symBinAddr: 0x4014C, symSize: 0x4 }
  - { offset: 0x221B43, size: 0x8, addend: 0x0, symName: __ZN4absl12lts_2024072214flags_internal7UnparseEd, symObjAddr: 0x1078, symBinAddr: 0x4014C, symSize: 0x4 }
  - { offset: 0x221B5F, size: 0x8, addend: 0x0, symName: __ZN4absl12lts_2024072214flags_internal23UnparseFloatingPointValIdEENSt3__112basic_stringIcNS3_11char_traitsIcEENS3_9allocatorIcEEEET_, symObjAddr: 0x107C, symBinAddr: 0x40150, symSize: 0x168 }
  - { offset: 0x222141, size: 0x8, addend: 0x0, symName: __ZN4absl12lts_2024072214flags_internal15AbslUnparseFlagENS0_11string_viewE, symObjAddr: 0x11E4, symBinAddr: 0x402B8, symSize: 0x20 }
  - { offset: 0x222171, size: 0x8, addend: 0x0, symName: __ZN4absl12lts_2024072214flags_internal15AbslUnparseFlagENS0_11string_viewE, symObjAddr: 0x11E4, symBinAddr: 0x402B8, symSize: 0x20 }
  - { offset: 0x22224A, size: 0x8, addend: 0x0, symName: __ZN4absl12lts_2024072214flags_internal15AbslUnparseFlagERKNSt3__16vectorINS2_12basic_stringIcNS2_11char_traitsIcEENS2_9allocatorIcEEEENS7_IS9_EEEE, symObjAddr: 0x1204, symBinAddr: 0x402D8, symSize: 0x18 }
  - { offset: 0x22227A, size: 0x8, addend: 0x0, symName: __ZN4absl12lts_2024072214flags_internal15AbslUnparseFlagERKNSt3__16vectorINS2_12basic_stringIcNS2_11char_traitsIcEENS2_9allocatorIcEEEENS7_IS9_EEEE, symObjAddr: 0x1204, symBinAddr: 0x402D8, symSize: 0x18 }
  - { offset: 0x222297, size: 0x8, addend: 0x0, symName: __ZN4absl12lts_2024072214flags_internal15AbslUnparseFlagERKNSt3__16vectorINS2_12basic_stringIcNS2_11char_traitsIcEENS2_9allocatorIcEEEENS7_IS9_EEEE, symObjAddr: 0x1204, symBinAddr: 0x402D8, symSize: 0x18 }
  - { offset: 0x222E7E, size: 0x8, addend: 0x0, symName: __ZN4absl12lts_2024072213AbslParseFlagENS0_11string_viewEPNS0_11LogSeverityEPNSt3__112basic_stringIcNS4_11char_traitsIcEENS4_9allocatorIcEEEE, symObjAddr: 0x121C, symBinAddr: 0x402F0, symSize: 0x1F8 }
  - { offset: 0x2231A9, size: 0x8, addend: 0x0, symName: __ZN4absl12lts_2024072215AbslUnparseFlagENS0_11LogSeverityE, symObjAddr: 0x1414, symBinAddr: 0x404E8, symSize: 0x20 }
  - { offset: 0x22960B, size: 0x8, addend: 0x0, symName: __ZNSt3__16vectorINS_12basic_stringIcNS_11char_traitsIcEENS_9allocatorIcEEEENS4_IS6_EEE16__init_with_sizeB8ne190102INS_11__wrap_iterIPKN4absl12lts_2024072211string_viewEEESG_EEvT_T0_m, symObjAddr: 0x2254, symBinAddr: 0x40AB0, symSize: 0x84 }
  - { offset: 0x22961E, size: 0x8, addend: 0x0, symName: __ZNSt3__135__uninitialized_allocator_copy_implB8ne190102INS_9allocatorIN4absl12lts_2024072211string_viewEEEPZNKS3_16strings_internal8SplitterINS3_6ByCharENS3_10AllowEmptyES4_E18ConvertToContainerINS_6vectorIS4_S5_EES4_Lb0EEclERKSA_E8raw_viewSI_PS4_EET2_RT_T0_T1_SK_, symObjAddr: 0x2198, symBinAddr: 0x40A3C, symSize: 0x34 }
  - { offset: 0x229748, size: 0x8, addend: 0x0, symName: __ZNKSt3__111__copy_implINS_17_ClassicAlgPolicyEEclB8ne190102IPZNK4absl12lts_2024072216strings_internal8SplitterINS5_6ByCharENS5_10AllowEmptyENS5_11string_viewEE18ConvertToContainerINS_6vectorISA_NS_9allocatorISA_EEEESA_Lb0EEclERKSB_E8raw_viewSL_PSA_EENS_4pairIT_T1_EESO_T0_SP_, symObjAddr: 0x21CC, symBinAddr: 0x40A70, symSize: 0x40 }
  - { offset: 0x2298BE, size: 0x8, addend: 0x0, symName: __ZNSt3__135__uninitialized_allocator_copy_implB8ne190102INS_9allocatorINS_12basic_stringIcNS_11char_traitsIcEENS1_IcEEEEEEPKN4absl12lts_2024072211string_viewESC_PS6_EET2_RT_T0_T1_SE_, symObjAddr: 0x2380, symBinAddr: 0x40BC8, symSize: 0xB4 }
  - { offset: 0x229B95, size: 0x8, addend: 0x0, symName: __ZNSt3__119__allocate_at_leastB8ne190102INS_9allocatorINS_12basic_stringIcNS_11char_traitsIcEENS1_IcEEEEEEEENS_19__allocation_resultINS_16allocator_traitsIT_E7pointerEEERSA_m, symObjAddr: 0x233C, symBinAddr: 0x40B84, symSize: 0x44 }
  - { offset: 0x229C32, size: 0x8, addend: 0x0, symName: __ZNSt3__135__uninitialized_allocator_copy_implB8ne190102INS_9allocatorINS_12basic_stringIcNS_11char_traitsIcEENS1_IcEEEEEEPKN4absl12lts_2024072211string_viewESC_PS6_EET2_RT_T0_T1_SE_, symObjAddr: 0x2380, symBinAddr: 0x40BC8, symSize: 0xB4 }
  - { offset: 0x22AF8F, size: 0x8, addend: 0x0, symName: __ZNK4absl12lts_2024072216strings_internal8SplitterINS0_6ByCharENS0_10AllowEmptyENS0_11string_viewEE18ConvertToContainerINSt3__16vectorIS5_NS8_9allocatorIS5_EEEES5_Lb0EEclERKS6_, symObjAddr: 0x1D28, symBinAddr: 0x405CC, symSize: 0xC4 }
  - { offset: 0x22B7AA, size: 0x8, addend: 0x0, symName: __ZNK4absl12lts_2024072216strings_internal8SplitterINS0_6ByCharENS0_10AllowEmptyENS0_11string_viewEE18ConvertToContainerINSt3__16vectorINS8_12basic_stringIcNS8_11char_traitsIcEENS8_9allocatorIcEEEENSD_ISF_EEEESF_Lb0EEclERKS6_, symObjAddr: 0x1CB0, symBinAddr: 0x40554, symSize: 0x78 }
  - { offset: 0x22BB91, size: 0x8, addend: 0x0, symName: __ZNSt3__16vectorINS_12basic_stringIcNS_11char_traitsIcEENS_9allocatorIcEEEENS4_IS6_EEE13__vdeallocateEv, symObjAddr: 0x24EC, symBinAddr: 0x40D34, symSize: 0x38 }
  - { offset: 0x22BC8C, size: 0x8, addend: 0x0, symName: __ZNSt3__16vectorINS_12basic_stringIcNS_11char_traitsIcEENS_9allocatorIcEEEENS4_IS6_EEE16__destroy_vectorclB8ne190102Ev, symObjAddr: 0x24AC, symBinAddr: 0x40CF4, symSize: 0x40 }
  - { offset: 0x22BD56, size: 0x8, addend: 0x0, symName: __ZNSt3__16vectorINS_12basic_stringIcNS_11char_traitsIcEENS_9allocatorIcEEEENS4_IS6_EEE7__clearB8ne190102Ev, symObjAddr: 0x1C64, symBinAddr: 0x40508, symSize: 0x4C }
  - { offset: 0x22C085, size: 0x8, addend: 0x0, symName: __ZN4absl12lts_2024072216strings_internal15IntegerToStringIiEENSt3__112basic_stringIcNS3_11char_traitsIcEENS3_9allocatorIcEEEET_, symObjAddr: 0x25CC, symBinAddr: 0x40D6C, symSize: 0xCC }
  - { offset: 0x22D136, size: 0x8, addend: 0x0, symName: __ZNSt3__16vectorINS_12basic_stringIcNS_11char_traitsIcEENS_9allocatorIcEEEENS4_IS6_EEE16__init_with_sizeB8ne190102INS_11__wrap_iterIPKN4absl12lts_2024072211string_viewEEESG_EEvT_T0_m, symObjAddr: 0x2254, symBinAddr: 0x40AB0, symSize: 0x84 }
  - { offset: 0x22D4B3, size: 0x8, addend: 0x0, symName: __ZN4absl12lts_2024072216strings_internal13SplitIteratorINS1_8SplitterINS0_6ByCharENS0_10AllowEmptyENS0_11string_viewEEEEC2ENS8_5StateEPKS7_, symObjAddr: 0x1E94, symBinAddr: 0x40738, symSize: 0x60 }
  - { offset: 0x22D568, size: 0x8, addend: 0x0, symName: __ZN4absl12lts_2024072216strings_internal13SplitIteratorINS1_8SplitterINS0_6ByCharENS0_10AllowEmptyENS0_11string_viewEEEEppEv, symObjAddr: 0x1DEC, symBinAddr: 0x40690, symSize: 0xA8 }
  - { offset: 0x22D5EB, size: 0x8, addend: 0x0, symName: __ZNSt3__16vectorIN4absl12lts_2024072211string_viewENS_9allocatorIS3_EEE18__insert_with_sizeB8ne190102IPZNKS2_16strings_internal8SplitterINS2_6ByCharENS2_10AllowEmptyES3_E18ConvertToContainerIS6_S3_Lb0EEclERKSC_E8raw_viewSI_EENS_11__wrap_iterIPS3_EENSJ_IPKS3_EET_T0_l, symObjAddr: 0x1EF4, symBinAddr: 0x40798, symSize: 0x220 }
  - { offset: 0x22E46C, size: 0x8, addend: 0x0, symName: __ZNKSt3__111__copy_implINS_17_ClassicAlgPolicyEEclB8ne190102IPZNK4absl12lts_2024072216strings_internal8SplitterINS5_6ByCharENS5_10AllowEmptyENS5_11string_viewEE18ConvertToContainerINS_6vectorISA_NS_9allocatorISA_EEEESA_Lb0EEclERKSB_E8raw_viewSL_PSA_EENS_4pairIT_T1_EESO_T0_SP_, symObjAddr: 0x21CC, symBinAddr: 0x40A70, symSize: 0x40 }
  - { offset: 0x22E554, size: 0x8, addend: 0x0, symName: __ZNSt3__114__split_bufferIN4absl12lts_2024072211string_viewERNS_9allocatorIS3_EEE28__construct_at_end_with_sizeIPZNKS2_16strings_internal8SplitterINS2_6ByCharENS2_10AllowEmptyES3_E18ConvertToContainerINS_6vectorIS3_S5_EES3_Lb0EEclERKSD_E8raw_viewEEvT_m, symObjAddr: 0x2114, symBinAddr: 0x409B8, symSize: 0x84 }
  - { offset: 0x22EB19, size: 0x8, addend: 0x0, symName: __ZNSt3__16vectorINS_12basic_stringIcNS_11char_traitsIcEENS_9allocatorIcEEEENS4_IS6_EEE11__vallocateB8ne190102Em, symObjAddr: 0x22D8, symBinAddr: 0x40B34, symSize: 0x50 }
  - { offset: 0x22EBBC, size: 0x8, addend: 0x0, symName: __ZNSt3__119__allocate_at_leastB8ne190102INS_9allocatorINS_12basic_stringIcNS_11char_traitsIcEENS1_IcEEEEEEEENS_19__allocation_resultINS_16allocator_traitsIT_E7pointerEEERSA_m, symObjAddr: 0x233C, symBinAddr: 0x40B84, symSize: 0x44 }
  - { offset: 0x22ED03, size: 0x8, addend: 0x0, symName: __ZNSt3__128__exception_guard_exceptionsINS_29_AllocatorDestroyRangeReverseINS_9allocatorINS_12basic_stringIcNS_11char_traitsIcEENS2_IcEEEEEEPS7_EEED2B8ne190102Ev, symObjAddr: 0x2434, symBinAddr: 0x40C7C, symSize: 0x34 }
  - { offset: 0x22ED42, size: 0x8, addend: 0x0, symName: __ZNKSt3__129_AllocatorDestroyRangeReverseINS_9allocatorINS_12basic_stringIcNS_11char_traitsIcEENS1_IcEEEEEEPS6_EclB8ne190102Ev, symObjAddr: 0x2468, symBinAddr: 0x40CB0, symSize: 0x44 }
  - { offset: 0x22F6C4, size: 0x8, addend: 0x0, symName: __ZN4absl12lts_2024072216strings_internal13JoinAlgorithmINSt3__111__wrap_iterIPKNS3_12basic_stringIcNS3_11char_traitsIcEENS3_9allocatorIcEEEEEEvEESA_T_SE_NS0_11string_viewENS1_11NoFormatterE, symObjAddr: 0x2C58, symBinAddr: 0x40FD0, symSize: 0x140 }
  - { offset: 0x2321C3, size: 0x8, addend: 0x0, symName: __ZN4absl12lts_2024072216EqualsIgnoreCaseENS0_11string_viewES1_, symObjAddr: 0x0, symBinAddr: 0x41110, symSize: 0x3C }
  - { offset: 0x232232, size: 0x8, addend: 0x0, symName: __ZN4absl12lts_2024072221StrContainsIgnoreCaseENS0_11string_viewES1_, symObjAddr: 0x4C, symBinAddr: 0x4114C, symSize: 0x94 }
  - { offset: 0x2322D5, size: 0x8, addend: 0x0, symName: __ZN4absl12lts_2024072220StartsWithIgnoreCaseENS0_11string_viewES1_, symObjAddr: 0xE0, symBinAddr: 0x411E0, symSize: 0x5C }
  - { offset: 0x2323A3, size: 0x8, addend: 0x0, symName: __ZN4absl12lts_2024072221StrContainsIgnoreCaseENS0_11string_viewEc, symObjAddr: 0x13C, symBinAddr: 0x4123C, symSize: 0x88 }
  - { offset: 0x232514, size: 0x8, addend: 0x0, symName: __ZN4absl12lts_2024072218EndsWithIgnoreCaseENS0_11string_viewES1_, symObjAddr: 0x200, symBinAddr: 0x412C4, symSize: 0x58 }
  - { offset: 0x232662, size: 0x8, addend: 0x0, symName: __ZN4absl12lts_2024072223FindLongestCommonPrefixENS0_11string_viewES1_, symObjAddr: 0x258, symBinAddr: 0x4131C, symSize: 0x104 }
  - { offset: 0x232B47, size: 0x8, addend: 0x0, symName: __ZN4absl12lts_2024072223FindLongestCommonSuffixENS0_11string_viewES1_, symObjAddr: 0x35C, symBinAddr: 0x41420, symSize: 0x78 }
  - { offset: 0x232D93, size: 0x8, addend: 0x0, symName: __ZN4absl12lts_2024072218EndsWithIgnoreCaseENS0_11string_viewES1_, symObjAddr: 0x200, symBinAddr: 0x412C4, symSize: 0x58 }
  - { offset: 0x23302C, size: 0x8, addend: 0x0, symName: __ZN4absl12lts_2024072223FindLongestCommonPrefixENS0_11string_viewES1_.cold.3, symObjAddr: 0x454, symBinAddr: 0x678B4, symSize: 0x2C }
  - { offset: 0x233047, size: 0x8, addend: 0x0, symName: __ZN4absl12lts_2024072223FindLongestCommonPrefixENS0_11string_viewES1_.cold.3, symObjAddr: 0x454, symBinAddr: 0x678B4, symSize: 0x2C }
  - { offset: 0x23305B, size: 0x8, addend: 0x0, symName: __ZN4absl12lts_2024072223FindLongestCommonPrefixENS0_11string_viewES1_.cold.3, symObjAddr: 0x454, symBinAddr: 0x678B4, symSize: 0x2C }
  - { offset: 0x23306F, size: 0x8, addend: 0x0, symName: __ZN4absl12lts_2024072223FindLongestCommonPrefixENS0_11string_viewES1_.cold.3, symObjAddr: 0x454, symBinAddr: 0x678B4, symSize: 0x2C }
  - { offset: 0x234F8F, size: 0x8, addend: 0x0, symName: __ZN4absl12lts_2024072216strings_internal10memcasecmpEPKcS3_m, symObjAddr: 0x0, symBinAddr: 0x41498, symSize: 0x54 }
  - { offset: 0x234FC3, size: 0x8, addend: 0x0, symName: __ZN4absl12lts_2024072216strings_internal10memcasecmpEPKcS3_m, symObjAddr: 0x0, symBinAddr: 0x41498, symSize: 0x54 }
  - { offset: 0x23502B, size: 0x8, addend: 0x0, symName: __ZN4absl12lts_2024072216strings_internal10memcasecmpEPKcS3_m, symObjAddr: 0x0, symBinAddr: 0x41498, symSize: 0x54 }
  - { offset: 0x23824C, size: 0x8, addend: 0x0, symName: '__ZN4absl12lts_2024072213base_internal12CallOnceImplIZNS0_12_GLOBAL__N_115GetMutexGlobalsEvE3$_0JEEEvPNSt3__16atomicIjEENS1_14SchedulingModeEOT_DpOT0_', symObjAddr: 0x33DC, symBinAddr: 0x43C48, symSize: 0x224 }
  - { offset: 0x238273, size: 0x8, addend: 0x0, symName: '__ZZN4absl12lts_2024072213base_internal12CallOnceImplIZNS0_12_GLOBAL__N_115GetMutexGlobalsEvE3$_0JEEEvPNSt3__16atomicIjEENS1_14SchedulingModeEOT_DpOT0_E5trans', symObjAddr: 0x5280, symBinAddr: 0x705E0, symSize: 0x0 }
  - { offset: 0x238908, size: 0x8, addend: 0x0, symName: __ZN4absl12lts_2024072224synchronization_internal10MutexDelayEii, symObjAddr: 0x150, symBinAddr: 0x4158C, symSize: 0xC0 }
  - { offset: 0x238C8A, size: 0x8, addend: 0x0, symName: __ZN4absl12lts_202407229Condition5kTrueE, symObjAddr: 0x52A8, symBinAddr: 0x858B0, symSize: 0x0 }
  - { offset: 0x238CA5, size: 0x8, addend: 0x0, symName: __MergedGlobals, symObjAddr: 0x53C0, symBinAddr: 0x86AE8, symSize: 0x0 }
  - { offset: 0x238CBF, size: 0x8, addend: 0x0, symName: __MergedGlobals, symObjAddr: 0x53C0, symBinAddr: 0x86AE8, symSize: 0x0 }
  - { offset: 0x238CDB, size: 0x8, addend: 0x0, symName: __ZN4absl12lts_2024072212_GLOBAL__N_115cond_var_tracerE, symObjAddr: 0x53A8, symBinAddr: 0x86AD0, symSize: 0x0 }
  - { offset: 0x238CF5, size: 0x8, addend: 0x0, symName: __ZN4absl12lts_2024072212_GLOBAL__N_124synch_deadlock_detectionE.0, symObjAddr: 0x53B8, symBinAddr: 0x86AE0, symSize: 0x0 }
  - { offset: 0x238D0F, size: 0x8, addend: 0x0, symName: __ZN4absl12lts_2024072212_GLOBAL__N_122synch_check_invariantsE.0, symObjAddr: 0x4FF8C, symBinAddr: 0x8950C, symSize: 0x0 }
  - { offset: 0x238D29, size: 0x8, addend: 0x0, symName: __ZN4absl12lts_2024072212_GLOBAL__N_17globalsE, symObjAddr: 0x4FFC0, symBinAddr: 0x89540, symSize: 0x0 }
  - { offset: 0x238E17, size: 0x8, addend: 0x0, symName: __ZN4absl12lts_2024072212_GLOBAL__N_18GetStackEPPvi, symObjAddr: 0x363C, symBinAddr: 0x43EA8, symSize: 0x8 }
  - { offset: 0x238EA7, size: 0x8, addend: 0x0, symName: __ZN4absl12lts_20240722L16EnsureSynchEventEPNSt3__16atomicIlEEPKcll, symObjAddr: 0x458, symBinAddr: 0x41884, symSize: 0x240 }
  - { offset: 0x238ED3, size: 0x8, addend: 0x0, symName: __ZZN4absl12lts_20240722L16EnsureSynchEventEPNSt3__16atomicIlEEPKcllE17synch_event_count, symObjAddr: 0x4DF48, symBinAddr: 0x874C8, symSize: 0x0 }
  - { offset: 0x239289, size: 0x8, addend: 0x0, symName: __ZN4absl12lts_20240722L14synch_event_muE, symObjAddr: 0x4FF88, symBinAddr: 0x89508, symSize: 0x0 }
  - { offset: 0x2392A4, size: 0x8, addend: 0x0, symName: __ZN4absl12lts_20240722L11synch_eventE, symObjAddr: 0x4DF50, symBinAddr: 0x874D0, symSize: 0x0 }
  - { offset: 0x239324, size: 0x8, addend: 0x0, symName: __ZN4absl12lts_20240722L17deadlock_graph_muE, symObjAddr: 0x4FF90, symBinAddr: 0x89510, symSize: 0x0 }
  - { offset: 0x23933E, size: 0x8, addend: 0x0, symName: __ZN4absl12lts_20240722L14deadlock_graphE, symObjAddr: 0x4DF40, symBinAddr: 0x874C0, symSize: 0x0 }
  - { offset: 0x23934B, size: 0x8, addend: 0x0, symName: __ZN4absl12lts_20240722L11StackStringEPPviPcib, symObjAddr: 0x3644, symBinAddr: 0x43EB0, symSize: 0x148 }
  - { offset: 0x239465, size: 0x8, addend: 0x0, symName: __ZN4absl12lts_20240722L11kExclusiveSE, symObjAddr: 0x5230, symBinAddr: 0x70590, symSize: 0x0 }
  - { offset: 0x239480, size: 0x8, addend: 0x0, symName: __ZN4absl12lts_20240722L8kSharedSE, symObjAddr: 0x5258, symBinAddr: 0x705B8, symSize: 0x0 }
  - { offset: 0x23949B, size: 0x8, addend: 0x0, symName: __ZN4absl12lts_20240722L16event_propertiesE, symObjAddr: 0x52C8, symBinAddr: 0x858D0, symSize: 0x0 }
  - { offset: 0x2394CB, size: 0x8, addend: 0x0, symName: __ZN4absl12lts_2024072221RegisterMutexProfilerEPFvxE, symObjAddr: 0x18, symBinAddr: 0x41504, symSize: 0x10 }
  - { offset: 0x23950A, size: 0x8, addend: 0x0, symName: __ZN4absl12lts_2024072219RegisterMutexTracerEPFvPKcPKvxE, symObjAddr: 0x80, symBinAddr: 0x4156C, symSize: 0x10 }
  - { offset: 0x239549, size: 0x8, addend: 0x0, symName: __ZN4absl12lts_2024072221RegisterCondVarTracerEPFvPKcPKvE, symObjAddr: 0xE8, symBinAddr: 0x4157C, symSize: 0x10 }
  - { offset: 0x2395E7, size: 0x8, addend: 0x0, symName: __ZN4absl12lts_20240722L15UnrefSynchEventEPNS0_10SynchEventE, symObjAddr: 0x698, symBinAddr: 0x41AC4, symSize: 0xC0 }
  - { offset: 0x2397C8, size: 0x8, addend: 0x0, symName: __ZN4absl12lts_2024072229EnableMutexInvariantDebuggingEb, symObjAddr: 0x758, symBinAddr: 0x41B84, symSize: 0x10 }
  - { offset: 0x2397F9, size: 0x8, addend: 0x0, symName: __ZN4absl12lts_2024072229EnableMutexInvariantDebuggingEb, symObjAddr: 0x758, symBinAddr: 0x41B84, symSize: 0x10 }
  - { offset: 0x239820, size: 0x8, addend: 0x0, symName: __ZN4absl12lts_2024072229EnableMutexInvariantDebuggingEb, symObjAddr: 0x758, symBinAddr: 0x41B84, symSize: 0x10 }
  - { offset: 0x239841, size: 0x8, addend: 0x0, symName: __ZN4absl12lts_2024072229SetMutexDeadlockDetectionModeENS0_15OnDeadlockCycleE, symObjAddr: 0x7B4, symBinAddr: 0x41BE0, symSize: 0x10 }
  - { offset: 0x23986D, size: 0x8, addend: 0x0, symName: __ZN4absl12lts_2024072229SetMutexDeadlockDetectionModeENS0_15OnDeadlockCycleE, symObjAddr: 0x7B4, symBinAddr: 0x41BE0, symSize: 0x10 }
  - { offset: 0x23988F, size: 0x8, addend: 0x0, symName: __ZN4absl12lts_2024072229SetMutexDeadlockDetectionModeENS0_15OnDeadlockCycleE, symObjAddr: 0x7B4, symBinAddr: 0x41BE0, symSize: 0x10 }
  - { offset: 0x239937, size: 0x8, addend: 0x0, symName: __ZN4absl12lts_20240722L18MuEquivalentWaiterEPNS0_13base_internal14PerThreadSynchES3_, symObjAddr: 0x928, symBinAddr: 0x41D54, symSize: 0x3C }
  - { offset: 0x239983, size: 0x8, addend: 0x0, symName: __ZN4absl12lts_20240722L7DequeueEPNS0_13base_internal14PerThreadSynchES3_, symObjAddr: 0x964, symBinAddr: 0x41D90, symSize: 0x78 }
  - { offset: 0x2399EC, size: 0x8, addend: 0x0, symName: __ZN4absl12lts_20240722L10GetGraphIdEPNS0_5MutexE, symObjAddr: 0xB48, symBinAddr: 0x41F74, symSize: 0xA8 }
  - { offset: 0x239BA3, size: 0x8, addend: 0x0, symName: __ZN4absl12lts_20240722L17Synch_GetAllLocksEv, symObjAddr: 0xBF0, symBinAddr: 0x4201C, symSize: 0x4C }
  - { offset: 0x239C30, size: 0x8, addend: 0x0, symName: __ZN4absl12lts_20240722L16GetGraphIdLockedEPNS0_5MutexE, symObjAddr: 0x3600, symBinAddr: 0x43E6C, symSize: 0x3C }
  - { offset: 0x239C7D, size: 0x8, addend: 0x0, symName: __ZN4absl12lts_20240722L13GetSynchEventEPKv, symObjAddr: 0xC3C, symBinAddr: 0x42068, symSize: 0x100 }
  - { offset: 0x239E8F, size: 0x8, addend: 0x0, symName: __ZN4absl12lts_20240722L22DebugOnlyDeadlockCheckEPNS0_5MutexE, symObjAddr: 0xDC4, symBinAddr: 0x421F0, symSize: 0x49C }
  - { offset: 0x23A535, size: 0x8, addend: 0x0, symName: __ZN4absl12lts_20240722L9LockEnterEPNS0_5MutexENS0_24synchronization_internal7GraphIdEPNS0_14SynchLocksHeldE, symObjAddr: 0x37D4, symBinAddr: 0x43FF8, symSize: 0x78 }
  - { offset: 0x23A8B3, size: 0x8, addend: 0x0, symName: __ZN4absl12lts_20240722L23CheckForMutexCorruptionElPKc, symObjAddr: 0x298C, symBinAddr: 0x433A0, symSize: 0x28 }
  - { offset: 0x23A903, size: 0x8, addend: 0x0, symName: __ZN4absl12lts_20240722L7EnqueueEPNS0_13base_internal14PerThreadSynchEPNS0_15SynchWaitParamsEli, symObjAddr: 0x29B4, symBinAddr: 0x433C8, symSize: 0x33C }
  - { offset: 0x23A90E, size: 0x8, addend: 0x0, symName: __ZN4absl12lts_20240722L14PostSynchEventEPvi, symObjAddr: 0x23F8, symBinAddr: 0x42E0C, symSize: 0x18C }
  - { offset: 0x23AB6F, size: 0x8, addend: 0x0, symName: __ZN4absl12lts_20240722L16ExactlyOneReaderEl, symObjAddr: 0x2954, symBinAddr: 0x43368, symSize: 0x38 }
  - { offset: 0x23ABBE, size: 0x8, addend: 0x0, symName: __ZN4absl12lts_20240722L23CheckForMutexCorruptionElPKc, symObjAddr: 0x298C, symBinAddr: 0x433A0, symSize: 0x28 }
  - { offset: 0x23ABC8, size: 0x8, addend: 0x0, symName: __ZN4absl12lts_20240722L7EnqueueEPNS0_13base_internal14PerThreadSynchEPNS0_15SynchWaitParamsEli, symObjAddr: 0x29B4, symBinAddr: 0x433C8, symSize: 0x33C }
  - { offset: 0x23B014, size: 0x8, addend: 0x0, symName: __ZN4absl12lts_202407225Mutex5TransEPKNS0_6MuHowSE, symObjAddr: 0x2CF0, symBinAddr: 0x682F8, symSize: 0xC }
  - { offset: 0x23B058, size: 0x8, addend: 0x0, symName: __ZN4absl12lts_20240722L18DebugOnlyLockLeaveEPNS0_5MutexE, symObjAddr: 0x27AC, symBinAddr: 0x431C0, symSize: 0xE8 }
  - { offset: 0x23B145, size: 0x8, addend: 0x0, symName: __ZN4absl12lts_202407225Mutex12ReaderUnlockEv, symObjAddr: 0x2894, symBinAddr: 0x432A8, symSize: 0xC0 }
  - { offset: 0x23B3F7, size: 0x8, addend: 0x0, symName: __ZN4absl12lts_20240722L11DereferenceEPv, symObjAddr: 0x335C, symBinAddr: 0x43BC8, symSize: 0x8 }
  - { offset: 0x23E027, size: 0x8, addend: 0x0, symName: _AbslInternalMutexYield_lts_20240722, symObjAddr: 0x0, symBinAddr: 0x414EC, symSize: 0x18 }
  - { offset: 0x23E078, size: 0x8, addend: 0x0, symName: __ZN4absl12lts_2024072213base_internal10AtomicHookIPFvxEE5StoreES4_, symObjAddr: 0x28, symBinAddr: 0x41514, symSize: 0x58 }
  - { offset: 0x23E14E, size: 0x8, addend: 0x0, symName: __ZN4absl12lts_2024072219RegisterMutexTracerEPFvPKcPKvxE, symObjAddr: 0x80, symBinAddr: 0x4156C, symSize: 0x10 }
  - { offset: 0x23E1F1, size: 0x8, addend: 0x0, symName: __ZN4absl12lts_2024072213base_internal10AtomicHookIPFvxEE5StoreES4_.cold.2, symObjAddr: 0x3870, symBinAddr: 0x684C4, symSize: 0x24 }
  - { offset: 0x23E21E, size: 0x8, addend: 0x0, symName: __ZN4absl12lts_2024072213base_internal10AtomicHookIPFvxEE5StoreES4_.cold.1, symObjAddr: 0x384C, symBinAddr: 0x684A0, symSize: 0x24 }
  - { offset: 0x23E2CA, size: 0x8, addend: 0x0, symName: __ZN4absl12lts_2024072221RegisterCondVarTracerEPFvPKcPKvE, symObjAddr: 0xE8, symBinAddr: 0x4157C, symSize: 0x10 }
  - { offset: 0x23E41F, size: 0x8, addend: 0x0, symName: __ZN4absl12lts_2024072224synchronization_internal10MutexDelayEii, symObjAddr: 0x150, symBinAddr: 0x4158C, symSize: 0xC0 }
  - { offset: 0x23E589, size: 0x8, addend: 0x0, symName: __ZN4absl12lts_2024072213base_internal15SchedulingGuard12ScopedEnableD1Ev, symObjAddr: 0x210, symBinAddr: 0x4164C, symSize: 0x78 }
  - { offset: 0x23E656, size: 0x8, addend: 0x0, symName: __ZN4absl12lts_202407225Mutex17IncrementSynchSemEPS1_PNS0_13base_internal14PerThreadSynchE, symObjAddr: 0x288, symBinAddr: 0x416C4, symSize: 0x8 }
  - { offset: 0x23E6D0, size: 0x8, addend: 0x0, symName: __ZN4absl12lts_202407225Mutex17DecrementSynchSemEPS1_PNS0_13base_internal14PerThreadSynchENS0_24synchronization_internal13KernelTimeoutE, symObjAddr: 0x290, symBinAddr: 0x416CC, symSize: 0x40 }
  - { offset: 0x23E78D, size: 0x8, addend: 0x0, symName: __ZN4absl12lts_202407225Mutex45InternalAttemptToUseMutexInFatalSignalHandlerEv, symObjAddr: 0x2D0, symBinAddr: 0x4170C, symSize: 0x2C }
  - { offset: 0x23E7AA, size: 0x8, addend: 0x0, symName: __ZN4absl12lts_202407225Mutex17DecrementSynchSemEPS1_PNS0_13base_internal14PerThreadSynchENS0_24synchronization_internal13KernelTimeoutE.cold.1, symObjAddr: 0x3924, symBinAddr: 0x684E8, symSize: 0x28 }
  - { offset: 0x23E7F8, size: 0x8, addend: 0x0, symName: __ZN4absl12lts_202407225Mutex45InternalAttemptToUseMutexInFatalSignalHandlerEv, symObjAddr: 0x2D0, symBinAddr: 0x4170C, symSize: 0x2C }
  - { offset: 0x23E889, size: 0x8, addend: 0x0, symName: __ZN4absl12lts_202407225MutexD2Ev, symObjAddr: 0x2FC, symBinAddr: 0x41738, symSize: 0x28 }
  - { offset: 0x23E8DD, size: 0x8, addend: 0x0, symName: __ZN4absl12lts_202407225Mutex18ForgetDeadlockInfoEv, symObjAddr: 0x360, symBinAddr: 0x4178C, symSize: 0xB8 }
  - { offset: 0x23E909, size: 0x8, addend: 0x0, symName: __ZN4absl12lts_202407225Mutex18ForgetDeadlockInfoEv, symObjAddr: 0x360, symBinAddr: 0x4178C, symSize: 0xB8 }
  - { offset: 0x23E924, size: 0x8, addend: 0x0, symName: __ZN4absl12lts_202407225Mutex18ForgetDeadlockInfoEv, symObjAddr: 0x360, symBinAddr: 0x4178C, symSize: 0xB8 }
  - { offset: 0x23EAA2, size: 0x8, addend: 0x0, symName: __ZN4absl12lts_202407225Mutex4DtorEv, symObjAddr: 0x324, symBinAddr: 0x41760, symSize: 0x4 }
  - { offset: 0x23EAC4, size: 0x8, addend: 0x0, symName: __ZN4absl12lts_202407225Mutex4DtorEv, symObjAddr: 0x324, symBinAddr: 0x41760, symSize: 0x4 }
  - { offset: 0x23EAF4, size: 0x8, addend: 0x0, symName: __ZN4absl12lts_202407225MutexD1Ev, symObjAddr: 0x338, symBinAddr: 0x41764, symSize: 0x28 }
  - { offset: 0x23ECAD, size: 0x8, addend: 0x0, symName: __ZN4absl12lts_202407225Mutex14EnableDebugLogEPKc, symObjAddr: 0x418, symBinAddr: 0x41844, symSize: 0x40 }
  - { offset: 0x23EE4A, size: 0x8, addend: 0x0, symName: __ZN4absl12lts_202407225Mutex24EnableInvariantDebuggingEPFvPvES2_, symObjAddr: 0x768, symBinAddr: 0x41B94, symSize: 0x4C }
  - { offset: 0x23EE96, size: 0x8, addend: 0x0, symName: __ZN4absl12lts_202407225Mutex24EnableInvariantDebuggingEPFvPvES2_, symObjAddr: 0x768, symBinAddr: 0x41B94, symSize: 0x4C }
  - { offset: 0x23EEB1, size: 0x8, addend: 0x0, symName: __ZN4absl12lts_202407225Mutex24EnableInvariantDebuggingEPFvPvES2_, symObjAddr: 0x768, symBinAddr: 0x41B94, symSize: 0x4C }
  - { offset: 0x23EF8C, size: 0x8, addend: 0x0, symName: __ZN4absl12lts_202407225Mutex9TryRemoveEPNS0_13base_internal14PerThreadSynchE, symObjAddr: 0x7C4, symBinAddr: 0x41BF0, symSize: 0x164 }
  - { offset: 0x23EFE6, size: 0x8, addend: 0x0, symName: __ZN4absl12lts_202407225Mutex9TryRemoveEPNS0_13base_internal14PerThreadSynchE, symObjAddr: 0x7C4, symBinAddr: 0x41BF0, symSize: 0x164 }
  - { offset: 0x23F008, size: 0x8, addend: 0x0, symName: __ZN4absl12lts_202407225Mutex9TryRemoveEPNS0_13base_internal14PerThreadSynchE, symObjAddr: 0x7C4, symBinAddr: 0x41BF0, symSize: 0x164 }
  - { offset: 0x23F276, size: 0x8, addend: 0x0, symName: __ZN4absl12lts_202407229Condition15GuaranteedEqualEPKS1_S3_, symObjAddr: 0x3380, symBinAddr: 0x43BEC, symSize: 0x50 }
  - { offset: 0x23F2DC, size: 0x8, addend: 0x0, symName: __ZN4absl12lts_202407225Mutex5BlockEPNS0_13base_internal14PerThreadSynchE, symObjAddr: 0x9DC, symBinAddr: 0x41E08, symSize: 0xC8 }
  - { offset: 0x23F40A, size: 0x8, addend: 0x0, symName: __ZN4absl12lts_202407225Mutex6WakeupEPNS0_13base_internal14PerThreadSynchE, symObjAddr: 0xAA4, symBinAddr: 0x41ED0, symSize: 0x34 }
  - { offset: 0x23F415, size: 0x8, addend: 0x0, symName: __ZN4absl12lts_202407225Mutex5BlockEPNS0_13base_internal14PerThreadSynchE.cold.1, symObjAddr: 0x394C, symBinAddr: 0x68510, symSize: 0x5C }
  - { offset: 0x23F450, size: 0x8, addend: 0x0, symName: __ZN4absl12lts_202407225Mutex6WakeupEPNS0_13base_internal14PerThreadSynchE, symObjAddr: 0xAA4, symBinAddr: 0x41ED0, symSize: 0x34 }
  - { offset: 0x23F54A, size: 0x8, addend: 0x0, symName: __ZNK4absl12lts_202407225Mutex13AssertNotHeldEv, symObjAddr: 0xAD8, symBinAddr: 0x41F04, symSize: 0x70 }
  - { offset: 0x23F67F, size: 0x8, addend: 0x0, symName: __ZN4absl12lts_20240722L10GetGraphIdEPNS0_5MutexE, symObjAddr: 0xB48, symBinAddr: 0x41F74, symSize: 0xA8 }
  - { offset: 0x23F691, size: 0x8, addend: 0x0, symName: __ZNK4absl12lts_202407225Mutex13AssertNotHeldEv.cold.1, symObjAddr: 0x39A8, symBinAddr: 0x6856C, symSize: 0x68 }
  - { offset: 0x23F6F8, size: 0x8, addend: 0x0, symName: __ZN4absl12lts_202407225Mutex4LockEv, symObjAddr: 0xD3C, symBinAddr: 0x42168, symSize: 0x88 }
  - { offset: 0x23F8CC, size: 0x8, addend: 0x0, symName: __ZN4absl12lts_202407225Mutex4LockEv.cold.1, symObjAddr: 0x3A10, symBinAddr: 0x685D4, symSize: 0x54 }
  - { offset: 0x23F8E7, size: 0x8, addend: 0x0, symName: __ZN4absl12lts_202407225Mutex4LockEv.cold.1, symObjAddr: 0x3A10, symBinAddr: 0x685D4, symSize: 0x54 }
  - { offset: 0x23F905, size: 0x8, addend: 0x0, symName: __ZN4absl12lts_202407225Mutex4LockEv.cold.1, symObjAddr: 0x3A10, symBinAddr: 0x685D4, symSize: 0x54 }
  - { offset: 0x23F920, size: 0x8, addend: 0x0, symName: __ZN4absl12lts_202407225Mutex4LockEv.cold.1, symObjAddr: 0x3A10, symBinAddr: 0x685D4, symSize: 0x54 }
  - { offset: 0x23FBB2, size: 0x8, addend: 0x0, symName: __ZN4absl12lts_202407225Mutex8LockSlowEPKNS0_6MuHowSEPKNS0_9ConditionEi, symObjAddr: 0x1260, symBinAddr: 0x678E0, symSize: 0xD0 }
  - { offset: 0x23FCD4, size: 0x8, addend: 0x0, symName: __ZN4absl12lts_202407225Mutex10ReaderLockEv, symObjAddr: 0x1330, symBinAddr: 0x4268C, symSize: 0xA4 }
  - { offset: 0x23FCE7, size: 0x8, addend: 0x0, symName: __ZN4absl12lts_202407225Mutex20LockSlowWithDeadlineEPKNS0_6MuHowSEPKNS0_9ConditionENS0_24synchronization_internal13KernelTimeoutEi, symObjAddr: 0x146C, symBinAddr: 0x427C8, symSize: 0x144 }
  - { offset: 0x24002E, size: 0x8, addend: 0x0, symName: __ZN4absl12lts_202407225Mutex10ReaderLockEv, symObjAddr: 0x1330, symBinAddr: 0x4268C, symSize: 0xA4 }
  - { offset: 0x2401B2, size: 0x8, addend: 0x0, symName: __ZN4absl12lts_202407225Mutex10ReaderLockEv.cold.1, symObjAddr: 0x3A64, symBinAddr: 0x68628, symSize: 0xC }
  - { offset: 0x2401CA, size: 0x8, addend: 0x0, symName: __ZN4absl12lts_202407225Mutex14LockWhenCommonERKNS0_9ConditionENS0_24synchronization_internal13KernelTimeoutEb, symObjAddr: 0x13D4, symBinAddr: 0x42730, symSize: 0x98 }
  - { offset: 0x2403EF, size: 0x8, addend: 0x0, symName: __ZN4absl12lts_202407225Mutex12LockSlowLoopEPNS0_15SynchWaitParamsEi, symObjAddr: 0x1F64, symBinAddr: 0x42A18, symSize: 0x354 }
  - { offset: 0x240AB8, size: 0x8, addend: 0x0, symName: __ZN4absl12lts_202407225Mutex7TryLockEv, symObjAddr: 0x22B8, symBinAddr: 0x68258, symSize: 0xA0 }
  - { offset: 0x240AC3, size: 0x8, addend: 0x0, symName: __ZN4absl12lts_202407225Mutex10UnlockSlowEPNS0_15SynchWaitParamsE, symObjAddr: 0x16BC, symBinAddr: 0x679B0, symSize: 0x8A8 }
  - { offset: 0x24164B, size: 0x8, addend: 0x0, symName: __ZN4absl12lts_202407225Mutex12LockSlowLoopEPNS0_15SynchWaitParamsEi, symObjAddr: 0x1F64, symBinAddr: 0x42A18, symSize: 0x354 }
  - { offset: 0x24165E, size: 0x8, addend: 0x0, symName: __ZN4absl12lts_202407225Mutex11AwaitCommonERKNS0_9ConditionENS0_24synchronization_internal13KernelTimeoutE, symObjAddr: 0x15B0, symBinAddr: 0x4290C, symSize: 0xE4 }
  - { offset: 0x24190A, size: 0x8, addend: 0x0, symName: __ZNK4absl12lts_202407225Mutex16AssertReaderHeldEv, symObjAddr: 0x1694, symBinAddr: 0x429F0, symSize: 0x20 }
  - { offset: 0x241915, size: 0x8, addend: 0x0, symName: __ZNK4absl12lts_202407225Mutex16AssertReaderHeldEv, symObjAddr: 0x1694, symBinAddr: 0x429F0, symSize: 0x20 }
  - { offset: 0x241941, size: 0x8, addend: 0x0, symName: __ZNK4absl12lts_202407225Mutex16AssertReaderHeldEv, symObjAddr: 0x1694, symBinAddr: 0x429F0, symSize: 0x20 }
  - { offset: 0x241963, size: 0x8, addend: 0x0, symName: __ZNK4absl12lts_202407225Mutex16AssertReaderHeldEv, symObjAddr: 0x1694, symBinAddr: 0x429F0, symSize: 0x20 }
  - { offset: 0x2419A0, size: 0x8, addend: 0x0, symName: __ZNK4absl12lts_202407229Condition4EvalEv, symObjAddr: 0x16B4, symBinAddr: 0x42A10, symSize: 0x8 }
  - { offset: 0x2419AB, size: 0x8, addend: 0x0, symName: __ZN4absl12lts_202407225Mutex11AwaitCommonERKNS0_9ConditionENS0_24synchronization_internal13KernelTimeoutE.cold.1, symObjAddr: 0x3A70, symBinAddr: 0x68634, symSize: 0x5C }
  - { offset: 0x2419C3, size: 0x8, addend: 0x0, symName: __ZNK4absl12lts_202407225Mutex16AssertReaderHeldEv.cold.1, symObjAddr: 0x3ACC, symBinAddr: 0x68690, symSize: 0x68 }
  - { offset: 0x2419FA, size: 0x8, addend: 0x0, symName: __ZNK4absl12lts_202407229Condition4EvalEv, symObjAddr: 0x16B4, symBinAddr: 0x42A10, symSize: 0x8 }
  - { offset: 0x241BC3, size: 0x8, addend: 0x0, symName: _OUTLINED_FUNCTION_0, symObjAddr: 0x42E0, symBinAddr: 0x44070, symSize: 0x10 }
  - { offset: 0x241BDB, size: 0x8, addend: 0x0, symName: __ZN4absl12lts_202407225Mutex12LockSlowLoopEPNS0_15SynchWaitParamsEi.cold.4, symObjAddr: 0x3C48, symBinAddr: 0x6880C, symSize: 0x5C }
  - { offset: 0x241BF3, size: 0x8, addend: 0x0, symName: __ZN4absl12lts_202407225Mutex12LockSlowLoopEPNS0_15SynchWaitParamsEi.cold.3, symObjAddr: 0x3BEC, symBinAddr: 0x687B0, symSize: 0x5C }
  - { offset: 0x241C0B, size: 0x8, addend: 0x0, symName: __ZN4absl12lts_202407225Mutex12LockSlowLoopEPNS0_15SynchWaitParamsEi.cold.2, symObjAddr: 0x3B90, symBinAddr: 0x68754, symSize: 0x5C }
  - { offset: 0x241C23, size: 0x8, addend: 0x0, symName: __ZN4absl12lts_202407225Mutex12LockSlowLoopEPNS0_15SynchWaitParamsEi.cold.1, symObjAddr: 0x3B34, symBinAddr: 0x686F8, symSize: 0x5C }
  - { offset: 0x241C3B, size: 0x8, addend: 0x0, symName: __ZN4absl12lts_202407225Mutex12LockSlowLoopEPNS0_15SynchWaitParamsEi.cold.5, symObjAddr: 0x3CA4, symBinAddr: 0x68868, symSize: 0x5C }
  - { offset: 0x241C53, size: 0x8, addend: 0x0, symName: __ZN4absl12lts_202407225Mutex7TryLockEv, symObjAddr: 0x22B8, symBinAddr: 0x68258, symSize: 0xA0 }
  - { offset: 0x241DD1, size: 0x8, addend: 0x0, symName: __ZN4absl12lts_202407225Mutex11TryLockSlowEv, symObjAddr: 0x2358, symBinAddr: 0x42D6C, symSize: 0xA0 }
  - { offset: 0x241FB4, size: 0x8, addend: 0x0, symName: __ZN4absl12lts_202407225Mutex13ReaderTryLockEv, symObjAddr: 0x2584, symBinAddr: 0x42F98, symSize: 0xCC }
  - { offset: 0x24214C, size: 0x8, addend: 0x0, symName: __ZN4absl12lts_202407225Mutex17ReaderTryLockSlowEv, symObjAddr: 0x2650, symBinAddr: 0x43064, symSize: 0xB8 }
  - { offset: 0x2422EF, size: 0x8, addend: 0x0, symName: __ZN4absl12lts_202407225Mutex6UnlockEv, symObjAddr: 0x2708, symBinAddr: 0x4311C, symSize: 0xA4 }
  - { offset: 0x24246C, size: 0x8, addend: 0x0, symName: __ZN4absl12lts_20240722L18DebugOnlyLockLeaveEPNS0_5MutexE, symObjAddr: 0x27AC, symBinAddr: 0x431C0, symSize: 0xE8 }
  - { offset: 0x242477, size: 0x8, addend: 0x0, symName: __ZN4absl12lts_202407225Mutex6UnlockEv.cold.1, symObjAddr: 0x3D00, symBinAddr: 0x688C4, symSize: 0x4C }
  - { offset: 0x24248F, size: 0x8, addend: 0x0, symName: __ZN4absl12lts_202407225Mutex6UnlockEv.cold.2, symObjAddr: 0x3D4C, symBinAddr: 0x68910, symSize: 0x50 }
  - { offset: 0x2424C8, size: 0x8, addend: 0x0, symName: __ZN4absl12lts_20240722L18DebugOnlyLockLeaveEPNS0_5MutexE.cold.2, symObjAddr: 0x3DC4, symBinAddr: 0x68988, symSize: 0x68 }
  - { offset: 0x24250E, size: 0x8, addend: 0x0, symName: __ZN4absl12lts_20240722L18DebugOnlyLockLeaveEPNS0_5MutexE.cold.1, symObjAddr: 0x3D9C, symBinAddr: 0x68960, symSize: 0x28 }
  - { offset: 0x24253C, size: 0x8, addend: 0x0, symName: __ZN4absl12lts_202407225Mutex12ReaderUnlockEv, symObjAddr: 0x2894, symBinAddr: 0x432A8, symSize: 0xC0 }
  - { offset: 0x242676, size: 0x8, addend: 0x0, symName: __ZN4absl12lts_20240722L16ExactlyOneReaderEl, symObjAddr: 0x2954, symBinAddr: 0x43368, symSize: 0x38 }
  - { offset: 0x242681, size: 0x8, addend: 0x0, symName: __ZN4absl12lts_202407225Mutex12ReaderUnlockEv.cold.1, symObjAddr: 0x3E2C, symBinAddr: 0x689F0, symSize: 0x28 }
  - { offset: 0x242699, size: 0x8, addend: 0x0, symName: __ZN4absl12lts_20240722L16ExactlyOneReaderEl.cold.1, symObjAddr: 0x3E54, symBinAddr: 0x68A18, symSize: 0x28 }
  - { offset: 0x2426B1, size: 0x8, addend: 0x0, symName: __ZN4absl12lts_20240722L16ExactlyOneReaderEl.cold.2, symObjAddr: 0x3E7C, symBinAddr: 0x68A40, symSize: 0x28 }
  - { offset: 0x2426C9, size: 0x8, addend: 0x0, symName: __ZN4absl12lts_20240722L23CheckForMutexCorruptionElPKc.cold.1, symObjAddr: 0x3EA4, symBinAddr: 0x68A68, symSize: 0xCC }
  - { offset: 0x2427D2, size: 0x8, addend: 0x0, symName: __ZN4absl12lts_20240722L7EnqueueEPNS0_13base_internal14PerThreadSynchEPNS0_15SynchWaitParamsEli.cold.1, symObjAddr: 0x3F70, symBinAddr: 0x68B34, symSize: 0x5C }
  - { offset: 0x242800, size: 0x8, addend: 0x0, symName: __ZN4absl12lts_20240722L7EnqueueEPNS0_13base_internal14PerThreadSynchEPNS0_15SynchWaitParamsEli.cold.2, symObjAddr: 0x3FCC, symBinAddr: 0x68B90, symSize: 0x5C }
  - { offset: 0x242818, size: 0x8, addend: 0x0, symName: __ZN4absl12lts_20240722L7EnqueueEPNS0_13base_internal14PerThreadSynchEPNS0_15SynchWaitParamsEli.cold.3, symObjAddr: 0x4028, symBinAddr: 0x68BEC, symSize: 0x28 }
  - { offset: 0x242830, size: 0x8, addend: 0x0, symName: __ZN4absl12lts_20240722L7EnqueueEPNS0_13base_internal14PerThreadSynchEPNS0_15SynchWaitParamsEli.cold.4, symObjAddr: 0x4050, symBinAddr: 0x68C14, symSize: 0x5C }
  - { offset: 0x242848, size: 0x8, addend: 0x0, symName: __ZN4absl12lts_202407225Mutex5TransEPKNS0_6MuHowSE, symObjAddr: 0x2CF0, symBinAddr: 0x682F8, symSize: 0xC }
  - { offset: 0x2428CC, size: 0x8, addend: 0x0, symName: __ZN4absl12lts_202407225Mutex3FerEPNS0_13base_internal14PerThreadSynchE, symObjAddr: 0x2CFC, symBinAddr: 0x43704, symSize: 0x19C }
  - { offset: 0x242CAB, size: 0x8, addend: 0x0, symName: __ZNK4absl12lts_202407225Mutex10AssertHeldEv, symObjAddr: 0x2E98, symBinAddr: 0x438A0, symSize: 0x18 }
  - { offset: 0x242CB6, size: 0x8, addend: 0x0, symName: __ZN4absl12lts_202407225Mutex3FerEPNS0_13base_internal14PerThreadSynchE.cold.1, symObjAddr: 0x40AC, symBinAddr: 0x68C70, symSize: 0x5C }
  - { offset: 0x242CCE, size: 0x8, addend: 0x0, symName: __ZN4absl12lts_202407225Mutex3FerEPNS0_13base_internal14PerThreadSynchE.cold.2, symObjAddr: 0x4108, symBinAddr: 0x68CCC, symSize: 0x5C }
  - { offset: 0x242CE6, size: 0x8, addend: 0x0, symName: __ZN4absl12lts_202407225Mutex3FerEPNS0_13base_internal14PerThreadSynchE.cold.4, symObjAddr: 0x41C0, symBinAddr: 0x68D84, symSize: 0x5C }
  - { offset: 0x242CFE, size: 0x8, addend: 0x0, symName: __ZN4absl12lts_202407225Mutex3FerEPNS0_13base_internal14PerThreadSynchE.cold.3, symObjAddr: 0x4164, symBinAddr: 0x68D28, symSize: 0x5C }
  - { offset: 0x242D16, size: 0x8, addend: 0x0, symName: __ZNK4absl12lts_202407225Mutex10AssertHeldEv, symObjAddr: 0x2E98, symBinAddr: 0x438A0, symSize: 0x18 }
  - { offset: 0x242D42, size: 0x8, addend: 0x0, symName: __ZNK4absl12lts_202407225Mutex10AssertHeldEv, symObjAddr: 0x2E98, symBinAddr: 0x438A0, symSize: 0x18 }
  - { offset: 0x242D64, size: 0x8, addend: 0x0, symName: __ZNK4absl12lts_202407225Mutex10AssertHeldEv, symObjAddr: 0x2E98, symBinAddr: 0x438A0, symSize: 0x18 }
  - { offset: 0x242DA1, size: 0x8, addend: 0x0, symName: __ZN4absl12lts_202407227CondVar14EnableDebugLogEPKc, symObjAddr: 0x2EB0, symBinAddr: 0x438B8, symSize: 0x2C }
  - { offset: 0x242DAC, size: 0x8, addend: 0x0, symName: __ZNK4absl12lts_202407225Mutex10AssertHeldEv.cold.1, symObjAddr: 0x421C, symBinAddr: 0x68DE0, symSize: 0x68 }
  - { offset: 0x242DF9, size: 0x8, addend: 0x0, symName: __ZN4absl12lts_202407227CondVar14EnableDebugLogEPKc, symObjAddr: 0x2EB0, symBinAddr: 0x438B8, symSize: 0x2C }
  - { offset: 0x242E76, size: 0x8, addend: 0x0, symName: __ZN4absl12lts_202407227CondVar6RemoveEPNS0_13base_internal14PerThreadSynchE, symObjAddr: 0x2EDC, symBinAddr: 0x438E4, symSize: 0xAC }
  - { offset: 0x24317D, size: 0x8, addend: 0x0, symName: __ZN4absl12lts_202407227CondVar10WaitCommonEPNS0_5MutexENS0_24synchronization_internal13KernelTimeoutE, symObjAddr: 0x2F88, symBinAddr: 0x68304, symSize: 0x19C }
  - { offset: 0x2435D0, size: 0x8, addend: 0x0, symName: __ZN4absl12lts_202407227CondVar6SignalEv, symObjAddr: 0x3124, symBinAddr: 0x43990, symSize: 0xD8 }
  - { offset: 0x2435E3, size: 0x8, addend: 0x0, symName: _OUTLINED_FUNCTION_5, symObjAddr: 0x4314, symBinAddr: 0x440A4, symSize: 0x14 }
  - { offset: 0x243650, size: 0x8, addend: 0x0, symName: __ZN4absl12lts_202407227CondVar6SignalEv, symObjAddr: 0x3124, symBinAddr: 0x43990, symSize: 0xD8 }
  - { offset: 0x243939, size: 0x8, addend: 0x0, symName: __ZN4absl12lts_202407227CondVar9SignalAllEv, symObjAddr: 0x31FC, symBinAddr: 0x43A68, symSize: 0xD8 }
  - { offset: 0x243BA7, size: 0x8, addend: 0x0, symName: __ZN4absl12lts_2024072219ReleasableMutexLock7ReleaseEv, symObjAddr: 0x32D4, symBinAddr: 0x43B40, symSize: 0x30 }
  - { offset: 0x243BFA, size: 0x8, addend: 0x0, symName: __ZN4absl12lts_202407229Condition10AlwaysTrueEPKS1_, symObjAddr: 0x3304, symBinAddr: 0x43B70, symSize: 0x8 }
  - { offset: 0x243C05, size: 0x8, addend: 0x0, symName: __ZN4absl12lts_2024072219ReleasableMutexLock7ReleaseEv.cold.1, symObjAddr: 0x4284, symBinAddr: 0x68E48, symSize: 0x5C }
  - { offset: 0x243C1D, size: 0x8, addend: 0x0, symName: __ZN4absl12lts_202407229Condition10AlwaysTrueEPKS1_, symObjAddr: 0x3304, symBinAddr: 0x43B70, symSize: 0x8 }
  - { offset: 0x243C3E, size: 0x8, addend: 0x0, symName: __ZN4absl12lts_202407229ConditionC2EPFbPvES2_, symObjAddr: 0x330C, symBinAddr: 0x43B78, symSize: 0x14 }
  - { offset: 0x243C6C, size: 0x8, addend: 0x0, symName: __ZN4absl12lts_202407229Condition19CallVoidPtrFunctionEPKS1_, symObjAddr: 0x3320, symBinAddr: 0x43B8C, symSize: 0xC }
  - { offset: 0x243CF6, size: 0x8, addend: 0x0, symName: __ZN4absl12lts_202407229ConditionC1EPFbPvES2_, symObjAddr: 0x332C, symBinAddr: 0x43B98, symSize: 0x14 }
  - { offset: 0x243D40, size: 0x8, addend: 0x0, symName: __ZN4absl12lts_202407229ConditionC1EPFbPvES2_, symObjAddr: 0x332C, symBinAddr: 0x43B98, symSize: 0x14 }
  - { offset: 0x243D94, size: 0x8, addend: 0x0, symName: __ZN4absl12lts_202407229ConditionC2EPKb, symObjAddr: 0x3340, symBinAddr: 0x43BAC, symSize: 0x1C }
  - { offset: 0x243E34, size: 0x8, addend: 0x0, symName: __ZN4absl12lts_202407229ConditionC1EPKb, symObjAddr: 0x3364, symBinAddr: 0x43BD0, symSize: 0x1C }
  - { offset: 0x243E70, size: 0x8, addend: 0x0, symName: __ZN4absl12lts_202407229ConditionC1EPKb, symObjAddr: 0x3364, symBinAddr: 0x43BD0, symSize: 0x1C }
  - { offset: 0x243EAF, size: 0x8, addend: 0x0, symName: __ZN4absl12lts_2024072213base_internal10AtomicHookIPFvxEE13DummyFunctionEx, symObjAddr: 0x33D0, symBinAddr: 0x43C3C, symSize: 0x4 }
  - { offset: 0x243ECE, size: 0x8, addend: 0x0, symName: __ZN4absl12lts_2024072213base_internal10AtomicHookIPFvPKcPKvxEE13DummyFunctionES4_S6_x, symObjAddr: 0x33D4, symBinAddr: 0x43C40, symSize: 0x4 }
  - { offset: 0x243F01, size: 0x8, addend: 0x0, symName: __ZN4absl12lts_2024072213base_internal10AtomicHookIPFvPKcPKvEE13DummyFunctionES4_S6_, symObjAddr: 0x33D8, symBinAddr: 0x43C44, symSize: 0x4 }
  - { offset: 0x24404B, size: 0x8, addend: 0x0, symName: _OUTLINED_FUNCTION_1, symObjAddr: 0x42F0, symBinAddr: 0x44080, symSize: 0x8 }
  - { offset: 0x244063, size: 0x8, addend: 0x0, symName: _OUTLINED_FUNCTION_2, symObjAddr: 0x42F8, symBinAddr: 0x44088, symSize: 0x8 }
  - { offset: 0x24407B, size: 0x8, addend: 0x0, symName: _OUTLINED_FUNCTION_3, symObjAddr: 0x4300, symBinAddr: 0x44090, symSize: 0x8 }
  - { offset: 0x244093, size: 0x8, addend: 0x0, symName: _OUTLINED_FUNCTION_4, symObjAddr: 0x4308, symBinAddr: 0x44098, symSize: 0xC }
  - { offset: 0x2470E1, size: 0x8, addend: 0x0, symName: __ZN4absl12lts_2024072212Notification6NotifyEv, symObjAddr: 0x0, symBinAddr: 0x440B8, symSize: 0xA4 }
  - { offset: 0x247298, size: 0x8, addend: 0x0, symName: __ZN4absl12lts_2024072212NotificationD2Ev, symObjAddr: 0xA4, symBinAddr: 0x4415C, symSize: 0x34 }
  - { offset: 0x24732E, size: 0x8, addend: 0x0, symName: __ZN4absl12lts_2024072212NotificationD1Ev, symObjAddr: 0xE8, symBinAddr: 0x44190, symSize: 0x4 }
  - { offset: 0x24735B, size: 0x8, addend: 0x0, symName: __ZN4absl12lts_2024072212NotificationD1Ev, symObjAddr: 0xE8, symBinAddr: 0x44190, symSize: 0x4 }
  - { offset: 0x24745A, size: 0x8, addend: 0x0, symName: __ZNK4absl12lts_2024072212Notification19WaitForNotificationEv, symObjAddr: 0xEC, symBinAddr: 0x44194, symSize: 0x8C }
  - { offset: 0x247588, size: 0x8, addend: 0x0, symName: __ZN4absl12lts_2024072212Notification23HasBeenNotifiedInternalEPKNSt3__16atomicIbEE, symObjAddr: 0x178, symBinAddr: 0x44220, symSize: 0xC }
  - { offset: 0x2475A8, size: 0x8, addend: 0x0, symName: __ZN4absl12lts_2024072212Notification23HasBeenNotifiedInternalEPKNSt3__16atomicIbEE, symObjAddr: 0x178, symBinAddr: 0x44220, symSize: 0xC }
  - { offset: 0x2475C9, size: 0x8, addend: 0x0, symName: __ZN4absl12lts_2024072212Notification23HasBeenNotifiedInternalEPKNSt3__16atomicIbEE, symObjAddr: 0x178, symBinAddr: 0x44220, symSize: 0xC }
  - { offset: 0x247618, size: 0x8, addend: 0x0, symName: __ZNK4absl12lts_2024072212Notification30WaitForNotificationWithTimeoutENS0_8DurationE, symObjAddr: 0x184, symBinAddr: 0x4422C, symSize: 0xAC }
  - { offset: 0x24779B, size: 0x8, addend: 0x0, symName: __ZNK4absl12lts_2024072212Notification31WaitForNotificationWithDeadlineENS0_4TimeE, symObjAddr: 0x230, symBinAddr: 0x442D8, symSize: 0xAC }
  - { offset: 0x247920, size: 0x8, addend: 0x0, symName: __ZN4absl12lts_202407229Condition19CastAndCallFunctionIKNSt3__16atomicIbEEEEbPKS1_, symObjAddr: 0x2DC, symBinAddr: 0x44384, symSize: 0xC }
  - { offset: 0x247967, size: 0x8, addend: 0x0, symName: __ZN4absl12lts_202407229Condition19CastAndCallFunctionIKNSt3__16atomicIbEEEEbPKS1_, symObjAddr: 0x2DC, symBinAddr: 0x44384, symSize: 0xC }
  - { offset: 0x24986E, size: 0x8, addend: 0x0, symName: __ZN4absl12lts_2024072212log_internal9kCharNullE, symObjAddr: 0x0, symBinAddr: 0x70604, symSize: 0x0 }
  - { offset: 0x249888, size: 0x8, addend: 0x0, symName: __ZN4absl12lts_2024072212log_internal15kSignedCharNullE, symObjAddr: 0x7, symBinAddr: 0x7060B, symSize: 0x0 }
  - { offset: 0x2498A2, size: 0x8, addend: 0x0, symName: __ZN4absl12lts_2024072212log_internal17kUnsignedCharNullE, symObjAddr: 0xE, symBinAddr: 0x70612, symSize: 0x0 }
  - { offset: 0x24C6E6, size: 0x8, addend: 0x0, symName: __ZN4absl12lts_2024072210SimpleAtofENS0_11string_viewEPf, symObjAddr: 0x0, symBinAddr: 0x44390, symSize: 0x13C }
  - { offset: 0x24C788, size: 0x8, addend: 0x0, symName: __ZN4absl12lts_2024072212_GLOBAL__N_112LookupTablesIiE13kVmaxOverBaseE, symObjAddr: 0x2CB8, symBinAddr: 0x70A68, symSize: 0x0 }
  - { offset: 0x24C7D1, size: 0x8, addend: 0x0, symName: __ZN4absl12lts_2024072212_GLOBAL__N_111kAsciiToIntE, symObjAddr: 0x2BB8, symBinAddr: 0x70968, symSize: 0x0 }
  - { offset: 0x24C7E9, size: 0x8, addend: 0x0, symName: __ZN4absl12lts_2024072212_GLOBAL__N_112LookupTablesIiE13kVminOverBaseE, symObjAddr: 0x2D4C, symBinAddr: 0x70AFC, symSize: 0x0 }
  - { offset: 0x24C801, size: 0x8, addend: 0x0, symName: __ZN4absl12lts_2024072212_GLOBAL__N_112LookupTablesIxE13kVmaxOverBaseE, symObjAddr: 0x2DE0, symBinAddr: 0x70B90, symSize: 0x0 }
  - { offset: 0x24C847, size: 0x8, addend: 0x0, symName: __ZN4absl12lts_2024072212_GLOBAL__N_112LookupTablesIxE13kVminOverBaseE, symObjAddr: 0x2F08, symBinAddr: 0x70CB8, symSize: 0x0 }
  - { offset: 0x24C85F, size: 0x8, addend: 0x0, symName: __ZN4absl12lts_2024072212_GLOBAL__N_112LookupTablesINS0_6int128EE13kVmaxOverBaseE, symObjAddr: 0x3030, symBinAddr: 0x70DE0, symSize: 0x0 }
  - { offset: 0x24C8A5, size: 0x8, addend: 0x0, symName: __ZN4absl12lts_2024072212_GLOBAL__N_112LookupTablesINS0_6int128EE13kVminOverBaseE, symObjAddr: 0x3280, symBinAddr: 0x71030, symSize: 0x0 }
  - { offset: 0x24C8BD, size: 0x8, addend: 0x0, symName: __ZN4absl12lts_2024072212_GLOBAL__N_112LookupTablesIjE13kVmaxOverBaseE, symObjAddr: 0x34D0, symBinAddr: 0x71280, symSize: 0x0 }
  - { offset: 0x24C903, size: 0x8, addend: 0x0, symName: __ZN4absl12lts_2024072212_GLOBAL__N_112LookupTablesIyE13kVmaxOverBaseE, symObjAddr: 0x3568, symBinAddr: 0x71318, symSize: 0x0 }
  - { offset: 0x24C949, size: 0x8, addend: 0x0, symName: __ZN4absl12lts_2024072212_GLOBAL__N_112LookupTablesINS0_7uint128EE13kVmaxOverBaseE, symObjAddr: 0x3690, symBinAddr: 0x71440, symSize: 0x0 }
  - { offset: 0x24CD01, size: 0x8, addend: 0x0, symName: __ZN4absl12lts_2024072212_GLOBAL__N_124safe_parse_sign_and_baseEPNS0_11string_viewEPiPb, symObjAddr: 0x1FE0, symBinAddr: 0x46334, symSize: 0x19C }
  - { offset: 0x24CE51, size: 0x8, addend: 0x0, symName: __ZN4absl12lts_2024072210SimpleAtobENS0_11string_viewEPb.cold.1, symObjAddr: 0x217C, symBinAddr: 0x68EA4, symSize: 0x5C }
  - { offset: 0x24D435, size: 0x8, addend: 0x0, symName: __ZN4absl12lts_2024072216numbers_internal8kHexCharE, symObjAddr: 0x2970, symBinAddr: 0x70720, symSize: 0x0 }
  - { offset: 0x24D450, size: 0x8, addend: 0x0, symName: __ZN4absl12lts_2024072216numbers_internal9kHexTableE, symObjAddr: 0x2981, symBinAddr: 0x70731, symSize: 0x0 }
  - { offset: 0x24D45E, size: 0x8, addend: 0x0, symName: __ZN4absl12lts_2024072216numbers_internal12PutTwoDigitsEjPc, symObjAddr: 0x3E8, symBinAddr: 0x44778, symSize: 0x40 }
  - { offset: 0x24D50F, size: 0x8, addend: 0x0, symName: __ZN4absl12lts_2024072216numbers_internal15FastIntToBufferEjPc, symObjAddr: 0x428, symBinAddr: 0x447B8, symSize: 0x168 }
  - { offset: 0x24D519, size: 0x8, addend: 0x0, symName: __ZN4absl12lts_2024072216numbers_internal15FastIntToBufferEjPc, symObjAddr: 0x428, symBinAddr: 0x447B8, symSize: 0x168 }
  - { offset: 0x24D7AF, size: 0x8, addend: 0x0, symName: __ZN4absl12lts_2024072216numbers_internal15FastIntToBufferEiPc, symObjAddr: 0x590, symBinAddr: 0x44920, symSize: 0x178 }
  - { offset: 0x24D7B9, size: 0x8, addend: 0x0, symName: __ZN4absl12lts_2024072216numbers_internal15FastIntToBufferEiPc, symObjAddr: 0x590, symBinAddr: 0x44920, symSize: 0x178 }
  - { offset: 0x24DA5F, size: 0x8, addend: 0x0, symName: __ZN4absl12lts_2024072216numbers_internal15FastIntToBufferEyPc, symObjAddr: 0x708, symBinAddr: 0x44A98, symSize: 0x3AC }
  - { offset: 0x24DA69, size: 0x8, addend: 0x0, symName: __ZN4absl12lts_2024072216numbers_internal15FastIntToBufferEyPc, symObjAddr: 0x708, symBinAddr: 0x44A98, symSize: 0x3AC }
  - { offset: 0x24E07C, size: 0x8, addend: 0x0, symName: __ZN4absl12lts_2024072216numbers_internal15FastIntToBufferExPc, symObjAddr: 0xAB4, symBinAddr: 0x44E44, symSize: 0x3BC }
  - { offset: 0x24E086, size: 0x8, addend: 0x0, symName: __ZN4absl12lts_2024072216numbers_internal15FastIntToBufferExPc, symObjAddr: 0xAB4, symBinAddr: 0x44E44, symSize: 0x3BC }
  - { offset: 0x24E6A9, size: 0x8, addend: 0x0, symName: __ZN4absl12lts_2024072216numbers_internal17SixDigitsToBufferEdPc, symObjAddr: 0xE70, symBinAddr: 0x45200, symSize: 0x79C }
  - { offset: 0x24E6B3, size: 0x8, addend: 0x0, symName: __ZN4absl12lts_2024072216numbers_internal17SixDigitsToBufferEdPc, symObjAddr: 0xE70, symBinAddr: 0x45200, symSize: 0x79C }
  - { offset: 0x24E8C2, size: 0x8, addend: 0x0, symName: __ZN4absl12lts_2024072216numbers_internal17safe_strto32_baseENS0_11string_viewEPii, symObjAddr: 0x160C, symBinAddr: 0x4599C, symSize: 0x18C }
  - { offset: 0x24EA33, size: 0x8, addend: 0x0, symName: __ZN4absl12lts_2024072216numbers_internal17safe_strto64_baseENS0_11string_viewEPxi, symObjAddr: 0x1798, symBinAddr: 0x45B28, symSize: 0x188 }
  - { offset: 0x24EA3D, size: 0x8, addend: 0x0, symName: __ZN4absl12lts_2024072216numbers_internal17safe_strto64_baseENS0_11string_viewEPxi, symObjAddr: 0x1798, symBinAddr: 0x45B28, symSize: 0x188 }
  - { offset: 0x24EBB7, size: 0x8, addend: 0x0, symName: __ZN4absl12lts_2024072216numbers_internal18safe_strto128_baseENS0_11string_viewEPNS0_6int128Ei, symObjAddr: 0x1920, symBinAddr: 0x45CB0, symSize: 0x248 }
  - { offset: 0x24EBC1, size: 0x8, addend: 0x0, symName: __ZN4absl12lts_2024072216numbers_internal18safe_strto128_baseENS0_11string_viewEPNS0_6int128Ei, symObjAddr: 0x1920, symBinAddr: 0x45CB0, symSize: 0x248 }
  - { offset: 0x24F0BE, size: 0x8, addend: 0x0, symName: __ZN4absl12lts_2024072216numbers_internal18safe_strtou32_baseENS0_11string_viewEPji, symObjAddr: 0x1B68, symBinAddr: 0x45EF8, symSize: 0xFC }
  - { offset: 0x24F0C8, size: 0x8, addend: 0x0, symName: __ZN4absl12lts_2024072216numbers_internal18safe_strtou32_baseENS0_11string_viewEPji, symObjAddr: 0x1B68, symBinAddr: 0x45EF8, symSize: 0xFC }
  - { offset: 0x24F1D0, size: 0x8, addend: 0x0, symName: __ZN4absl12lts_2024072216numbers_internal18safe_strtou64_baseENS0_11string_viewEPyi, symObjAddr: 0x1C64, symBinAddr: 0x45FF4, symSize: 0xFC }
  - { offset: 0x24F1DA, size: 0x8, addend: 0x0, symName: __ZN4absl12lts_2024072216numbers_internal18safe_strtou64_baseENS0_11string_viewEPyi, symObjAddr: 0x1C64, symBinAddr: 0x45FF4, symSize: 0xFC }
  - { offset: 0x24F2EB, size: 0x8, addend: 0x0, symName: __ZN4absl12lts_2024072216numbers_internal19safe_strtou128_baseENS0_11string_viewEPNS0_7uint128Ei, symObjAddr: 0x1D60, symBinAddr: 0x460F0, symSize: 0x150 }
  - { offset: 0x24F2F5, size: 0x8, addend: 0x0, symName: __ZN4absl12lts_2024072216numbers_internal19safe_strtou128_baseENS0_11string_viewEPNS0_7uint128Ei, symObjAddr: 0x1D60, symBinAddr: 0x460F0, symSize: 0x150 }
  - { offset: 0x24F64E, size: 0x8, addend: 0x0, symName: __ZN4absl12lts_2024072210SimpleAtofENS0_11string_viewEPf, symObjAddr: 0x0, symBinAddr: 0x44390, symSize: 0x13C }
  - { offset: 0x24F808, size: 0x8, addend: 0x0, symName: __ZN4absl12lts_2024072210SimpleAtodENS0_11string_viewEPd, symObjAddr: 0x13C, symBinAddr: 0x444CC, symSize: 0x13C }
  - { offset: 0x24F9C2, size: 0x8, addend: 0x0, symName: __ZN4absl12lts_2024072210SimpleAtobENS0_11string_viewEPb, symObjAddr: 0x278, symBinAddr: 0x44608, symSize: 0x170 }
  - { offset: 0x24FB40, size: 0x8, addend: 0x0, symName: __ZN4absl12lts_2024072216numbers_internal12PutTwoDigitsEjPc, symObjAddr: 0x3E8, symBinAddr: 0x44778, symSize: 0x40 }
  - { offset: 0x24FDAF, size: 0x8, addend: 0x0, symName: __ZN4absl12lts_20240722L7PowFiveEyi, symObjAddr: 0x1EEC, symBinAddr: 0x46240, symSize: 0x88 }
  - { offset: 0x250126, size: 0x8, addend: 0x0, symName: __ZN4absl12lts_20240722L5Mul32ENSt3__14pairIyyEEj, symObjAddr: 0x1F74, symBinAddr: 0x462C8, symSize: 0x6C }
  - { offset: 0x251211, size: 0x8, addend: 0x0, symName: __ZN4absl12lts_20240722L7PowFiveEyi, symObjAddr: 0x1EEC, symBinAddr: 0x46240, symSize: 0x88 }
  - { offset: 0x251228, size: 0x8, addend: 0x0, symName: __ZN4absl12lts_2024072210SimpleAtobENS0_11string_viewEPb.cold.1, symObjAddr: 0x217C, symBinAddr: 0x68EA4, symSize: 0x5C }
  - { offset: 0x251242, size: 0x8, addend: 0x0, symName: __ZN4absl12lts_2024072216numbers_internal12PutTwoDigitsEjPc.cold.1, symObjAddr: 0x21D8, symBinAddr: 0x68F00, symSize: 0x28 }
  - { offset: 0x25125A, size: 0x8, addend: 0x0, symName: __ZN4absl12lts_2024072216numbers_internal15FastIntToBufferEjPc.cold.1, symObjAddr: 0x2200, symBinAddr: 0x68F28, symSize: 0x24 }
  - { offset: 0x2512BD, size: 0x8, addend: 0x0, symName: __ZN4absl12lts_2024072216numbers_internal15FastIntToBufferEyPc.cold.2, symObjAddr: 0x226C, symBinAddr: 0x68F4C, symSize: 0x28 }
  - { offset: 0x2513BC, size: 0x8, addend: 0x0, symName: __ZN4absl12lts_2024072216numbers_internal17SixDigitsToBufferEdPc.cold.1, symObjAddr: 0x2328, symBinAddr: 0x68F74, symSize: 0x28 }
  - { offset: 0x2513D4, size: 0x8, addend: 0x0, symName: __ZN4absl12lts_2024072216numbers_internal17safe_strto32_baseENS0_11string_viewEPii.cold.2, symObjAddr: 0x2374, symBinAddr: 0x68FC0, symSize: 0x24 }
  - { offset: 0x251418, size: 0x8, addend: 0x0, symName: __ZN4absl12lts_2024072216numbers_internal17safe_strto32_baseENS0_11string_viewEPii.cold.3, symObjAddr: 0x2398, symBinAddr: 0x68FE4, symSize: 0x24 }
  - { offset: 0x25145C, size: 0x8, addend: 0x0, symName: __ZN4absl12lts_2024072216numbers_internal17safe_strto32_baseENS0_11string_viewEPii.cold.1, symObjAddr: 0x2350, symBinAddr: 0x68F9C, symSize: 0x24 }
  - { offset: 0x2518EB, size: 0x8, addend: 0x0, symName: _OUTLINED_FUNCTION_0, symObjAddr: 0x25D0, symBinAddr: 0x464D0, symSize: 0x8 }
  - { offset: 0x251903, size: 0x8, addend: 0x0, symName: _OUTLINED_FUNCTION_1, symObjAddr: 0x25D8, symBinAddr: 0x464D8, symSize: 0x8 }
  - { offset: 0x25191B, size: 0x8, addend: 0x0, symName: _OUTLINED_FUNCTION_2, symObjAddr: 0x25E0, symBinAddr: 0x464E0, symSize: 0x8 }
  - { offset: 0x251933, size: 0x8, addend: 0x0, symName: _OUTLINED_FUNCTION_3, symObjAddr: 0x25E8, symBinAddr: 0x464E8, symSize: 0x8 }
  - { offset: 0x2537E0, size: 0x8, addend: 0x0, symName: __ZN4absl12lts_2024072216strings_internal13OStringStream9Streambuf8overflowEi, symObjAddr: 0x0, symBinAddr: 0x464F0, symSize: 0x30 }
  - { offset: 0x2565DC, size: 0x8, addend: 0x0, symName: __ZN4absl12lts_2024072216strings_internal13OStringStream9Streambuf8overflowEi, symObjAddr: 0x0, symBinAddr: 0x464F0, symSize: 0x30 }
  - { offset: 0x256616, size: 0x8, addend: 0x0, symName: __ZN4absl12lts_2024072216strings_internal13OStringStream9Streambuf6xsputnEPKcl, symObjAddr: 0x30, symBinAddr: 0x46520, symSize: 0x30 }
  - { offset: 0x256621, size: 0x8, addend: 0x0, symName: __ZN4absl12lts_2024072216strings_internal13OStringStream9Streambuf8overflowEi.cold.1, symObjAddr: 0x78, symBinAddr: 0x69008, symSize: 0x28 }
  - { offset: 0x256639, size: 0x8, addend: 0x0, symName: __ZN4absl12lts_2024072216strings_internal13OStringStream9Streambuf6xsputnEPKcl, symObjAddr: 0x30, symBinAddr: 0x46520, symSize: 0x30 }
  - { offset: 0x256682, size: 0x8, addend: 0x0, symName: __ZN4absl12lts_2024072216strings_internal13OStringStream9StreambufD1Ev, symObjAddr: 0x60, symBinAddr: 0x46550, symSize: 0x4 }
  - { offset: 0x25668D, size: 0x8, addend: 0x0, symName: __ZN4absl12lts_2024072216strings_internal13OStringStream9Streambuf6xsputnEPKcl.cold.1, symObjAddr: 0xA0, symBinAddr: 0x69030, symSize: 0x28 }
  - { offset: 0x2566C6, size: 0x8, addend: 0x0, symName: __ZN4absl12lts_2024072216strings_internal13OStringStream9StreambufD1Ev, symObjAddr: 0x60, symBinAddr: 0x46550, symSize: 0x4 }
  - { offset: 0x2566E8, size: 0x8, addend: 0x0, symName: __ZN4absl12lts_2024072216strings_internal13OStringStream9StreambufD1Ev, symObjAddr: 0x60, symBinAddr: 0x46550, symSize: 0x4 }
  - { offset: 0x25671E, size: 0x8, addend: 0x0, symName: __ZN4absl12lts_2024072216strings_internal13OStringStream9StreambufD0Ev, symObjAddr: 0x64, symBinAddr: 0x46554, symSize: 0x14 }
  - { offset: 0x258607, size: 0x8, addend: 0x0, symName: __ZN4absl12lts_2024072219str_format_internal13BufferRawSink5WriteENS0_11string_viewE, symObjAddr: 0x0, symBinAddr: 0x46568, symSize: 0x58 }
  - { offset: 0x2593AD, size: 0x8, addend: 0x0, symName: __ZN4absl12lts_2024072219str_format_internal13BufferRawSink5WriteENS0_11string_viewE, symObjAddr: 0x0, symBinAddr: 0x46568, symSize: 0x58 }
  - { offset: 0x2596B0, size: 0x8, addend: 0x0, symName: __ZN4absl12lts_2024072219str_format_internal11FILERawSink5WriteENS0_11string_viewE, symObjAddr: 0x58, symBinAddr: 0x465C0, symSize: 0x110 }
  - { offset: 0x259867, size: 0x8, addend: 0x0, symName: __ZN4absl12lts_2024072219str_format_internal12_GLOBAL__N_115ClearErrnoGuardD1Ev, symObjAddr: 0x168, symBinAddr: 0x466D0, symSize: 0x3C }
  - { offset: 0x25B5E6, size: 0x8, addend: 0x0, symName: __ZN4absl12lts_2024072219str_format_internal32ConsumeUnboundConversionNoInlineEPKcS3_PNS1_17UnboundConversionEPi, symObjAddr: 0x0, symBinAddr: 0x4670C, symSize: 0x4 }
  - { offset: 0x25B609, size: 0x8, addend: 0x0, symName: __ZN4absl12lts_2024072219str_format_internal13ConvTagHolder5valueE, symObjAddr: 0x1C49, symBinAddr: 0x716F2, symSize: 0x0 }
  - { offset: 0x25B8FD, size: 0x8, addend: 0x0, symName: __ZN4absl12lts_2024072219str_format_internal32ConsumeUnboundConversionNoInlineEPKcS3_PNS1_17UnboundConversionEPi, symObjAddr: 0x0, symBinAddr: 0x4670C, symSize: 0x4 }
  - { offset: 0x25B952, size: 0x8, addend: 0x0, symName: __ZN4absl12lts_2024072219str_format_internal32ConsumeUnboundConversionNoInlineEPKcS3_PNS1_17UnboundConversionEPi, symObjAddr: 0x0, symBinAddr: 0x4670C, symSize: 0x4 }
  - { offset: 0x25B979, size: 0x8, addend: 0x0, symName: __ZN4absl12lts_2024072219str_format_internal24ConsumeUnboundConversionEPKcS3_PNS1_17UnboundConversionEPi, symObjAddr: 0x4, symBinAddr: 0x46710, symSize: 0x10 }
  - { offset: 0x25B9EB, size: 0x8, addend: 0x0, symName: __ZN4absl12lts_2024072219str_format_internal17ConsumeConversionILb0EEEPKcS4_S4_PNS1_17UnboundConversionEPi, symObjAddr: 0x9B0, symBinAddr: 0x470BC, symSize: 0x3F4 }
  - { offset: 0x25BDB6, size: 0x8, addend: 0x0, symName: __ZNK4absl12lts_2024072219str_format_internal7ConvTag8as_flagsEv, symObjAddr: 0xDA4, symBinAddr: 0x474B0, symSize: 0x44 }
  - { offset: 0x25BDCB, size: 0x8, addend: 0x0, symName: __ZN4absl12lts_2024072219str_format_internal17ConsumeConversionILb1EEEPKcS4_S4_PNS1_17UnboundConversionEPi, symObjAddr: 0x41C, symBinAddr: 0x46B28, symSize: 0x594 }
  - { offset: 0x25C205, size: 0x8, addend: 0x0, symName: __ZN4absl12lts_2024072219str_format_internal17ConsumeConversionILb0EEEPKcS4_S4_PNS1_17UnboundConversionEPi, symObjAddr: 0x9B0, symBinAddr: 0x470BC, symSize: 0x3F4 }
  - { offset: 0x25C219, size: 0x8, addend: 0x0, symName: __ZN4absl12lts_2024072219str_format_internal17LengthModToStringENS0_9LengthModE, symObjAddr: 0x14, symBinAddr: 0x46720, symSize: 0x2C }
  - { offset: 0x25C274, size: 0x8, addend: 0x0, symName: __ZN4absl12lts_2024072219str_format_internal17ParseFormatStringINS1_16ParsedFormatBase20ParsedFormatConsumerEEEbNS0_11string_viewET_, symObjAddr: 0x110, symBinAddr: 0x4681C, symSize: 0x194 }
  - { offset: 0x25C684, size: 0x8, addend: 0x0, symName: __ZNK4absl12lts_2024072219str_format_internal16ParsedFormatBase18MatchesConversionsEbSt16initializer_listINS0_23FormatConversionCharSetEE, symObjAddr: 0x2A4, symBinAddr: 0x469B0, symSize: 0x174 }
  - { offset: 0x25C717, size: 0x8, addend: 0x0, symName: __ZN4absl12lts_2024072219str_format_internal29FormatConversionCharToConvIntEc, symObjAddr: 0xE90, symBinAddr: 0x4759C, symSize: 0xF0 }
  - { offset: 0x25C7B6, size: 0x8, addend: 0x0, symName: __ZN4absl12lts_2024072219str_format_internal20CheckFastPathSettingERKNS1_17UnboundConversionE, symObjAddr: 0xE1C, symBinAddr: 0x47528, symSize: 0x74 }
  - { offset: 0x2623E8, size: 0x8, addend: 0x0, symName: __ZNSt3__119__allocate_at_leastB8ne190102INS_9allocatorIN4absl12lts_2024072219str_format_internal16ParsedFormatBase14ConversionItemEEEEENS_19__allocation_resultINS_16allocator_traitsIT_E7pointerEEERSA_m, symObjAddr: 0x17C4, symBinAddr: 0x47B30, symSize: 0x34 }
  - { offset: 0x263D1C, size: 0x8, addend: 0x0, symName: __ZN4absl12lts_2024072219str_format_internal16ParsedFormatBaseC2ENS0_11string_viewEbSt16initializer_listINS0_23FormatConversionCharSetEE, symObjAddr: 0x40, symBinAddr: 0x4674C, symSize: 0xD0 }
  - { offset: 0x263FD9, size: 0x8, addend: 0x0, symName: __ZNK4absl12lts_2024072219str_format_internal16ParsedFormatBase18MatchesConversionsEbSt16initializer_listINS0_23FormatConversionCharSetEE, symObjAddr: 0x2A4, symBinAddr: 0x469B0, symSize: 0x174 }
  - { offset: 0x2645D8, size: 0x8, addend: 0x0, symName: __ZN4absl12lts_2024072219str_format_internal16ParsedFormatBaseC2ENS0_11string_viewEbSt16initializer_listINS0_23FormatConversionCharSetEE.cold.1, symObjAddr: 0x1840, symBinAddr: 0x69058, symSize: 0x18 }
  - { offset: 0x2647DB, size: 0x8, addend: 0x0, symName: __ZN4absl12lts_2024072219str_format_internal16ParsedFormatBase20ParsedFormatConsumer6AppendENS0_11string_viewE, symObjAddr: 0x1524, symBinAddr: 0x478A4, symSize: 0x14C }
  - { offset: 0x264B84, size: 0x8, addend: 0x0, symName: __ZN4absl12lts_2024072219str_format_internal16ParsedFormatBase20ParsedFormatConsumer10ConvertOneERKNS1_17UnboundConversionENS0_11string_viewE, symObjAddr: 0x1670, symBinAddr: 0x479F0, symSize: 0x140 }
  - { offset: 0x264B8F, size: 0x8, addend: 0x0, symName: __ZN4absl12lts_2024072219str_format_internal16ParsedFormatBase20ParsedFormatConsumer10ConvertOneERKNS1_17UnboundConversionENS0_11string_viewE, symObjAddr: 0x1670, symBinAddr: 0x479F0, symSize: 0x140 }
  - { offset: 0x26539C, size: 0x8, addend: 0x0, symName: __ZNSt3__112__hash_tableIiNS_4hashIiEENS_8equal_toIiEENS_9allocatorIiEEE25__emplace_unique_key_argsIiJRKiEEENS_4pairINS_15__hash_iteratorIPNS_11__hash_nodeIiPvEEEEbEERKT_DpOT0_, symObjAddr: 0xF80, symBinAddr: 0x4768C, symSize: 0x218 }
  - { offset: 0x265AF9, size: 0x8, addend: 0x0, symName: __ZN4absl12lts_2024072219str_format_internal16ParsedFormatBaseC1ENS0_11string_viewEbSt16initializer_listINS0_23FormatConversionCharSetEE, symObjAddr: 0x418, symBinAddr: 0x46B24, symSize: 0x4 }
  - { offset: 0x265B4E, size: 0x8, addend: 0x0, symName: __ZN4absl12lts_2024072219str_format_internal16ParsedFormatBaseC1ENS0_11string_viewEbSt16initializer_listINS0_23FormatConversionCharSetEE, symObjAddr: 0x418, symBinAddr: 0x46B24, symSize: 0x4 }
  - { offset: 0x265C2E, size: 0x8, addend: 0x0, symName: __ZNK4absl12lts_2024072219str_format_internal7ConvTag8as_flagsEv, symObjAddr: 0xDA4, symBinAddr: 0x474B0, symSize: 0x44 }
  - { offset: 0x265CB5, size: 0x8, addend: 0x0, symName: __ZNK4absl12lts_2024072219str_format_internal7ConvTag9as_lengthEv, symObjAddr: 0xDE8, symBinAddr: 0x474F4, symSize: 0x34 }
  - { offset: 0x265CC0, size: 0x8, addend: 0x0, symName: __ZN4absl12lts_2024072219str_format_internal17ConsumeConversionILb1EEEPKcS4_S4_PNS1_17UnboundConversionEPi.cold.8, symObjAddr: 0x19CC, symBinAddr: 0x69130, symSize: 0x28 }
  - { offset: 0x265CD8, size: 0x8, addend: 0x0, symName: __ZN4absl12lts_2024072219str_format_internal17ConsumeConversionILb1EEEPKcS4_S4_PNS1_17UnboundConversionEPi.cold.1, symObjAddr: 0x18C4, symBinAddr: 0x69070, symSize: 0x28 }
  - { offset: 0x265CF0, size: 0x8, addend: 0x0, symName: __ZNK4absl12lts_2024072219str_format_internal7ConvTag9as_lengthEv, symObjAddr: 0xDE8, symBinAddr: 0x474F4, symSize: 0x34 }
  - { offset: 0x265D56, size: 0x8, addend: 0x0, symName: __ZN4absl12lts_2024072219str_format_internal20CheckFastPathSettingERKNS1_17UnboundConversionE, symObjAddr: 0xE1C, symBinAddr: 0x47528, symSize: 0x74 }
  - { offset: 0x265D61, size: 0x8, addend: 0x0, symName: __ZN4absl12lts_2024072219str_format_internal17ConsumeConversionILb1EEEPKcS4_S4_PNS1_17UnboundConversionEPi.cold.6, symObjAddr: 0x197C, symBinAddr: 0x690E0, symSize: 0x28 }
  - { offset: 0x265D79, size: 0x8, addend: 0x0, symName: __ZN4absl12lts_2024072219str_format_internal17ConsumeConversionILb1EEEPKcS4_S4_PNS1_17UnboundConversionEPi.cold.7, symObjAddr: 0x19A4, symBinAddr: 0x69108, symSize: 0x28 }
  - { offset: 0x265DA7, size: 0x8, addend: 0x0, symName: __ZN4absl12lts_2024072219str_format_internal17ConsumeConversionILb1EEEPKcS4_S4_PNS1_17UnboundConversionEPi.cold.3, symObjAddr: 0x1910, symBinAddr: 0x690BC, symSize: 0x24 }
  - { offset: 0x265DEA, size: 0x8, addend: 0x0, symName: __ZN4absl12lts_2024072219str_format_internal17ConsumeConversionILb1EEEPKcS4_S4_PNS1_17UnboundConversionEPi.cold.2, symObjAddr: 0x18EC, symBinAddr: 0x69098, symSize: 0x24 }
  - { offset: 0x265EAA, size: 0x8, addend: 0x0, symName: __ZNK4absl12lts_2024072219str_format_internal7ConvTag8as_flagsEv.cold.3, symObjAddr: 0x1B4C, symBinAddr: 0x691A8, symSize: 0x28 }
  - { offset: 0x265EC2, size: 0x8, addend: 0x0, symName: __ZNK4absl12lts_2024072219str_format_internal7ConvTag8as_flagsEv.cold.2, symObjAddr: 0x1B24, symBinAddr: 0x69180, symSize: 0x28 }
  - { offset: 0x265EDA, size: 0x8, addend: 0x0, symName: __ZNK4absl12lts_2024072219str_format_internal7ConvTag8as_flagsEv.cold.1, symObjAddr: 0x1AFC, symBinAddr: 0x69158, symSize: 0x28 }
  - { offset: 0x265EF2, size: 0x8, addend: 0x0, symName: __ZNK4absl12lts_2024072219str_format_internal7ConvTag9as_lengthEv.cold.2, symObjAddr: 0x1B9C, symBinAddr: 0x691F8, symSize: 0x28 }
  - { offset: 0x265F0A, size: 0x8, addend: 0x0, symName: __ZNK4absl12lts_2024072219str_format_internal7ConvTag9as_lengthEv.cold.1, symObjAddr: 0x1B74, symBinAddr: 0x691D0, symSize: 0x28 }
  - { offset: 0x266DC5, size: 0x8, addend: 0x0, symName: __ZNSt3__119__allocate_at_leastB8ne190102INS_9allocatorIN4absl12lts_2024072219str_format_internal16ParsedFormatBase14ConversionItemEEEEENS_19__allocation_resultINS_16allocator_traitsIT_E7pointerEEERSA_m, symObjAddr: 0x17C4, symBinAddr: 0x47B30, symSize: 0x34 }
  - { offset: 0x266ECE, size: 0x8, addend: 0x0, symName: _OUTLINED_FUNCTION_1, symObjAddr: 0x1BCC, symBinAddr: 0x47B64, symSize: 0x8 }
  - { offset: 0x268BE1, size: 0x8, addend: 0x0, symName: __ZN4absl12lts_2024072224synchronization_internal12PerThreadSem23SetThreadBlockedCounterEPNSt3__16atomicIiEE, symObjAddr: 0x0, symBinAddr: 0x47B6C, symSize: 0x30 }
  - { offset: 0x269C53, size: 0x8, addend: 0x0, symName: __ZN4absl12lts_2024072224synchronization_internal12PerThreadSem23SetThreadBlockedCounterEPNSt3__16atomicIiEE, symObjAddr: 0x0, symBinAddr: 0x47B6C, symSize: 0x30 }
  - { offset: 0x269CB8, size: 0x8, addend: 0x0, symName: __ZN4absl12lts_2024072224synchronization_internal12PerThreadSem23GetThreadBlockedCounterEv, symObjAddr: 0x30, symBinAddr: 0x47B9C, symSize: 0x24 }
  - { offset: 0x269DA4, size: 0x8, addend: 0x0, symName: __ZN4absl12lts_2024072224synchronization_internal12PerThreadSem4TickEPNS0_13base_internal14ThreadIdentityE, symObjAddr: 0x54, symBinAddr: 0x47BC0, symSize: 0x3C }
  - { offset: 0x269EE6, size: 0x8, addend: 0x0, symName: _AbslInternalPerThreadSemPoke_lts_20240722, symObjAddr: 0x90, symBinAddr: 0x47BFC, symSize: 0x8 }
  - { offset: 0x269F0E, size: 0x8, addend: 0x0, symName: _AbslInternalPerThreadSemPoke_lts_20240722, symObjAddr: 0x90, symBinAddr: 0x47BFC, symSize: 0x8 }
  - { offset: 0x269F3B, size: 0x8, addend: 0x0, symName: _AbslInternalPerThreadSemInit_lts_20240722, symObjAddr: 0x98, symBinAddr: 0x47C04, symSize: 0x8 }
  - { offset: 0x269F63, size: 0x8, addend: 0x0, symName: _AbslInternalPerThreadSemInit_lts_20240722, symObjAddr: 0x98, symBinAddr: 0x47C04, symSize: 0x8 }
  - { offset: 0x269F7D, size: 0x8, addend: 0x0, symName: _AbslInternalPerThreadSemPost_lts_20240722, symObjAddr: 0xA0, symBinAddr: 0x47C0C, symSize: 0x8 }
  - { offset: 0x269FA5, size: 0x8, addend: 0x0, symName: _AbslInternalPerThreadSemPost_lts_20240722, symObjAddr: 0xA0, symBinAddr: 0x47C0C, symSize: 0x8 }
  - { offset: 0x26A052, size: 0x8, addend: 0x0, symName: _AbslInternalPerThreadSemWait_lts_20240722, symObjAddr: 0xA8, symBinAddr: 0x47C14, symSize: 0x8C }
  - { offset: 0x26C19C, size: 0x8, addend: 0x0, symName: __ZN4absl12lts_2024072213base_internal33InitializePoisonedPointerInternalEv, symObjAddr: 0x0, symBinAddr: 0x47CA0, symSize: 0x5C }
  - { offset: 0x26C25B, size: 0x8, addend: 0x0, symName: __ZN4absl12lts_2024072213base_internal33InitializePoisonedPointerInternalEv, symObjAddr: 0x0, symBinAddr: 0x47CA0, symSize: 0x5C }
  - { offset: 0x26C9DA, size: 0x8, addend: 0x0, symName: __ZN4absl12lts_2024072215random_internal12_GLOBAL__N_19pool_onceE, symObjAddr: 0x18980, symBinAddr: 0x895C0, symSize: 0x0 }
  - { offset: 0x26C9E8, size: 0x8, addend: 0x0, symName: __ZN4absl12lts_2024072215random_internal12_GLOBAL__N_112InitPoolURBGEv, symObjAddr: 0x660, symBinAddr: 0x48304, symSize: 0x174 }
  - { offset: 0x26CF44, size: 0x8, addend: 0x0, symName: __ZN4absl12lts_2024072215random_internal12_GLOBAL__N_112shared_poolsE, symObjAddr: 0x18940, symBinAddr: 0x89580, symSize: 0x0 }
  - { offset: 0x26D07B, size: 0x8, addend: 0x0, symName: __ZN4absl12lts_2024072215random_internal12_GLOBAL__N_123GetPoolForCurrentThreadEv, symObjAddr: 0x11C, symBinAddr: 0x47E18, symSize: 0x78 }
  - { offset: 0x26F299, size: 0x8, addend: 0x0, symName: __ZN4absl12lts_2024072215random_internal10RandenPoolIhE3minEv, symObjAddr: 0x0, symBinAddr: 0x47CFC, symSize: 0x8 }
  - { offset: 0x26F2AD, size: 0x8, addend: 0x0, symName: __ZN4absl12lts_2024072215random_internal10RandenPoolIhE3maxEv, symObjAddr: 0x8, symBinAddr: 0x47D04, symSize: 0x8 }
  - { offset: 0x26F2C1, size: 0x8, addend: 0x0, symName: __ZN4absl12lts_2024072215random_internal10RandenPoolIhEC2Ev, symObjAddr: 0x10, symBinAddr: 0x47D0C, symSize: 0x4 }
  - { offset: 0x26F2EA, size: 0x8, addend: 0x0, symName: __ZN4absl12lts_2024072215random_internal10RandenPoolIhEC1Ev, symObjAddr: 0x14, symBinAddr: 0x47D10, symSize: 0x4 }
  - { offset: 0x26F313, size: 0x8, addend: 0x0, symName: __ZN4absl12lts_2024072215random_internal10RandenPoolIhEclEv, symObjAddr: 0x18, symBinAddr: 0x47D14, symSize: 0x4 }
  - { offset: 0x26F33A, size: 0x8, addend: 0x0, symName: __ZN4absl12lts_2024072215random_internal10RandenPoolIhEclEv, symObjAddr: 0x18, symBinAddr: 0x47D14, symSize: 0x4 }
  - { offset: 0x26F345, size: 0x8, addend: 0x0, symName: __ZN4absl12lts_2024072215random_internal10RandenPoolIhE8GenerateEv, symObjAddr: 0x1C, symBinAddr: 0x47D18, symSize: 0xD4 }
  - { offset: 0x26F89A, size: 0x8, addend: 0x0, symName: __ZN4absl12lts_2024072215random_internal10RandenPoolIhE4FillENS0_4SpanIhEE, symObjAddr: 0xF0, symBinAddr: 0x47DEC, symSize: 0x2C }
  - { offset: 0x26F8E9, size: 0x8, addend: 0x0, symName: __ZN4absl12lts_2024072215random_internal12_GLOBAL__N_115RandenPoolEntry4FillEPhm, symObjAddr: 0x194, symBinAddr: 0x47E90, symSize: 0x11C }
