---
triple:          'arm64-apple-darwin'
binary-path:     '/Users/aoy3/Documents/GitHub/HayyGov/build/ios/Profile-iphoneos/leveldb-library/leveldb.framework/leveldb'
relocations:
  - { offset: 0x33, size: 0x8, addend: 0x0, symName: _leveldbVersionString, symObjAddr: 0x0, symBinAddr: 0x28830, symSize: 0x0 }
  - { offset: 0x67, size: 0x8, addend: 0x0, symName: _leveldbVersionNumber, symObjAddr: 0x28, symBinAddr: 0x28858, symSize: 0x0 }
  - { offset: 0xA2, size: 0x8, addend: 0x0, symName: __ZN7leveldb5ArenaC2Ev, symObjAddr: 0x0, symBinAddr: 0x4000, symSize: 0x10 }
  - { offset: 0x4496, size: 0x8, addend: 0x0, symName: __ZNSt3__119__allocate_at_leastB8ne190102INS_9allocatorIPcEEEENS_19__allocation_resultINS_16allocator_traitsIT_E7pointerEEERS6_m, symObjAddr: 0x2D0, symBinAddr: 0x42D0, symSize: 0x34 }
  - { offset: 0x4533, size: 0x8, addend: 0x0, symName: __ZSt28__throw_bad_array_new_lengthB8ne190102v, symObjAddr: 0x304, symBinAddr: 0x4304, symSize: 0x28 }
  - { offset: 0x4546, size: 0x8, addend: 0x0, symName: __ZNSt3__120__throw_length_errorB8ne190102EPKc, symObjAddr: 0x25C, symBinAddr: 0x425C, symSize: 0x50 }
  - { offset: 0x536D, size: 0x8, addend: 0x0, symName: __ZSt28__throw_bad_array_new_lengthB8ne190102v, symObjAddr: 0x304, symBinAddr: 0x4304, symSize: 0x28 }
  - { offset: 0x579E, size: 0x8, addend: 0x0, symName: __ZN7leveldb5ArenaC2Ev, symObjAddr: 0x0, symBinAddr: 0x4000, symSize: 0x10 }
  - { offset: 0x57DC, size: 0x8, addend: 0x0, symName: __ZN7leveldb5ArenaC1Ev, symObjAddr: 0x10, symBinAddr: 0x4010, symSize: 0x10 }
  - { offset: 0x5808, size: 0x8, addend: 0x0, symName: __ZN7leveldb5ArenaC1Ev, symObjAddr: 0x10, symBinAddr: 0x4010, symSize: 0x10 }
  - { offset: 0x5922, size: 0x8, addend: 0x0, symName: __ZN7leveldb5ArenaD2Ev, symObjAddr: 0x20, symBinAddr: 0x4020, symSize: 0x60 }
  - { offset: 0x5AC4, size: 0x8, addend: 0x0, symName: __ZN7leveldb5ArenaD1Ev, symObjAddr: 0x80, symBinAddr: 0x4080, symSize: 0x4 }
  - { offset: 0x5AF0, size: 0x8, addend: 0x0, symName: __ZN7leveldb5ArenaD1Ev, symObjAddr: 0x80, symBinAddr: 0x4080, symSize: 0x4 }
  - { offset: 0x5B02, size: 0x8, addend: 0x0, symName: __ZN7leveldb5Arena16AllocateFallbackEm, symObjAddr: 0x84, symBinAddr: 0x4084, symSize: 0x64 }
  - { offset: 0x5B88, size: 0x8, addend: 0x0, symName: __ZN7leveldb5Arena16AllocateNewBlockEm, symObjAddr: 0xE8, symBinAddr: 0x40E8, symSize: 0x104 }
  - { offset: 0x5F1E, size: 0x8, addend: 0x0, symName: __ZN7leveldb5Arena15AllocateAlignedEm, symObjAddr: 0x1EC, symBinAddr: 0x41EC, symSize: 0x5C }
  - { offset: 0x61DD, size: 0x8, addend: 0x0, symName: __ZNKSt3__16vectorIPcNS_9allocatorIS1_EEE20__throw_length_errorB8ne190102Ev, symObjAddr: 0x248, symBinAddr: 0x4248, symSize: 0x14 }
  - { offset: 0x6205, size: 0x8, addend: 0x0, symName: __ZNSt3__120__throw_length_errorB8ne190102EPKc, symObjAddr: 0x25C, symBinAddr: 0x425C, symSize: 0x50 }
  - { offset: 0x620F, size: 0x8, addend: 0x0, symName: __ZN7leveldb5Arena15AllocateAlignedEm, symObjAddr: 0x1EC, symBinAddr: 0x41EC, symSize: 0x5C }
  - { offset: 0x629E, size: 0x8, addend: 0x0, symName: __ZNKSt3__16vectorIPcNS_9allocatorIS1_EEE20__throw_length_errorB8ne190102Ev, symObjAddr: 0x248, symBinAddr: 0x4248, symSize: 0x14 }
  - { offset: 0x62A9, size: 0x8, addend: 0x0, symName: __ZN7leveldb5Arena15AllocateAlignedEm.cold.1, symObjAddr: 0x32C, symBinAddr: 0x26890, symSize: 0x28 }
  - { offset: 0x62C1, size: 0x8, addend: 0x0, symName: __ZNSt12length_errorC1B8ne190102EPKc, symObjAddr: 0x2AC, symBinAddr: 0x42AC, symSize: 0x24 }
  - { offset: 0x86E7, size: 0x8, addend: 0x0, symName: __ZN7leveldb5BlockC2ERKNS_13BlockContentsE, symObjAddr: 0x0, symBinAddr: 0x432C, symSize: 0x44 }
  - { offset: 0xBE53, size: 0x8, addend: 0x0, symName: __ZN7leveldb5BlockC2ERKNS_13BlockContentsE, symObjAddr: 0x0, symBinAddr: 0x432C, symSize: 0x44 }
  - { offset: 0xBE8D, size: 0x8, addend: 0x0, symName: __ZN7leveldb5BlockC2ERKNS_13BlockContentsE, symObjAddr: 0x0, symBinAddr: 0x432C, symSize: 0x44 }
  - { offset: 0xBEFB, size: 0x8, addend: 0x0, symName: __ZN7leveldb5BlockC1ERKNS_13BlockContentsE, symObjAddr: 0x44, symBinAddr: 0x4370, symSize: 0x4 }
  - { offset: 0xBF35, size: 0x8, addend: 0x0, symName: __ZN7leveldb5BlockC1ERKNS_13BlockContentsE, symObjAddr: 0x44, symBinAddr: 0x4370, symSize: 0x4 }
  - { offset: 0xBF4F, size: 0x8, addend: 0x0, symName: __ZN7leveldb5BlockD2Ev, symObjAddr: 0x48, symBinAddr: 0x4374, symSize: 0x38 }
  - { offset: 0xBF8F, size: 0x8, addend: 0x0, symName: __ZN7leveldb5BlockD1Ev, symObjAddr: 0x80, symBinAddr: 0x43AC, symSize: 0x38 }
  - { offset: 0xC10A, size: 0x8, addend: 0x0, symName: __ZN7leveldb5Block11NewIteratorEPKNS_10ComparatorE, symObjAddr: 0xB8, symBinAddr: 0x43E4, symSize: 0x104 }
  - { offset: 0xC33E, size: 0x8, addend: 0x0, symName: __ZN7leveldb5Block4IterC2EPKNS_10ComparatorEPKcjj, symObjAddr: 0x1BC, symBinAddr: 0x44E8, symSize: 0xD4 }
  - { offset: 0xC800, size: 0x8, addend: 0x0, symName: __ZN7leveldb5Block4IterD1Ev, symObjAddr: 0x290, symBinAddr: 0x45BC, symSize: 0x4C }
  - { offset: 0xC9C0, size: 0x8, addend: 0x0, symName: __ZN7leveldb5Block4IterD0Ev, symObjAddr: 0x2DC, symBinAddr: 0x4608, symSize: 0x50 }
  - { offset: 0xCB8B, size: 0x8, addend: 0x0, symName: __ZNK7leveldb5Block4Iter5ValidEv, symObjAddr: 0x32C, symBinAddr: 0x4658, symSize: 0x14 }
  - { offset: 0xCBB1, size: 0x8, addend: 0x0, symName: __ZN7leveldb5Block4Iter11SeekToFirstEv, symObjAddr: 0x340, symBinAddr: 0x466C, symSize: 0x28 }
  - { offset: 0xCBFE, size: 0x8, addend: 0x0, symName: __ZN7leveldb5Block4Iter18SeekToRestartPointEj, symObjAddr: 0x738, symBinAddr: 0x4A64, symSize: 0x58 }
  - { offset: 0xCC40, size: 0x8, addend: 0x0, symName: __ZN7leveldb5Block4Iter18SeekToRestartPointEj, symObjAddr: 0x738, symBinAddr: 0x4A64, symSize: 0x58 }
  - { offset: 0xCC5E, size: 0x8, addend: 0x0, symName: __ZN7leveldb5Block4Iter18SeekToRestartPointEj, symObjAddr: 0x738, symBinAddr: 0x4A64, symSize: 0x58 }
  - { offset: 0xCC7D, size: 0x8, addend: 0x0, symName: __ZN7leveldb5Block4Iter18SeekToRestartPointEj, symObjAddr: 0x738, symBinAddr: 0x4A64, symSize: 0x58 }
  - { offset: 0xCD78, size: 0x8, addend: 0x0, symName: __ZN7leveldb5Block4Iter12ParseNextKeyEv, symObjAddr: 0x790, symBinAddr: 0x4ABC, symSize: 0x1E4 }
  - { offset: 0xCD83, size: 0x8, addend: 0x0, symName: __ZN7leveldb5Block4Iter12ParseNextKeyEv, symObjAddr: 0x790, symBinAddr: 0x4ABC, symSize: 0x1E4 }
  - { offset: 0xD020, size: 0x8, addend: 0x0, symName: __ZN7leveldb5Block4Iter10SeekToLastEv, symObjAddr: 0x368, symBinAddr: 0x4694, symSize: 0x54 }
  - { offset: 0xD1F5, size: 0x8, addend: 0x0, symName: __ZN7leveldb5Block4Iter4SeekERKNS_5SliceE, symObjAddr: 0x3BC, symBinAddr: 0x46E8, symSize: 0x1EC }
  - { offset: 0xD5E4, size: 0x8, addend: 0x0, symName: __ZN7leveldb5Block4Iter4NextEv, symObjAddr: 0x5A8, symBinAddr: 0x48D4, symSize: 0x34 }
  - { offset: 0xD5EF, size: 0x8, addend: 0x0, symName: __ZN7leveldb5Block4Iter15CorruptionErrorEv, symObjAddr: 0x974, symBinAddr: 0x4CA0, symSize: 0x98 }
  - { offset: 0xD882, size: 0x8, addend: 0x0, symName: __ZN7leveldb5Block4Iter4SeekERKNS_5SliceE.cold.1, symObjAddr: 0xA0C, symBinAddr: 0x268B8, symSize: 0x24 }
  - { offset: 0xD8B0, size: 0x8, addend: 0x0, symName: __ZN7leveldb5Block4Iter4NextEv, symObjAddr: 0x5A8, symBinAddr: 0x48D4, symSize: 0x34 }
  - { offset: 0xD8F9, size: 0x8, addend: 0x0, symName: __ZN7leveldb5Block4Iter4PrevEv, symObjAddr: 0x5DC, symBinAddr: 0x4908, symSize: 0xB0 }
  - { offset: 0xD904, size: 0x8, addend: 0x0, symName: __ZN7leveldb5Block4Iter4NextEv.cold.1, symObjAddr: 0xA30, symBinAddr: 0x268DC, symSize: 0x28 }
  - { offset: 0xD91C, size: 0x8, addend: 0x0, symName: __ZN7leveldb5Block4Iter4PrevEv, symObjAddr: 0x5DC, symBinAddr: 0x4908, symSize: 0xB0 }
  - { offset: 0xDA2A, size: 0x8, addend: 0x0, symName: __ZNK7leveldb5Block4Iter3keyEv, symObjAddr: 0x68C, symBinAddr: 0x49B8, symSize: 0x4C }
  - { offset: 0xDA49, size: 0x8, addend: 0x0, symName: __ZN7leveldb5Block4Iter4PrevEv.cold.1, symObjAddr: 0xA58, symBinAddr: 0x26904, symSize: 0x28 }
  - { offset: 0xDA61, size: 0x8, addend: 0x0, symName: __ZNK7leveldb5Block4Iter3keyEv, symObjAddr: 0x68C, symBinAddr: 0x49B8, symSize: 0x4C }
  - { offset: 0xDB47, size: 0x8, addend: 0x0, symName: __ZNK7leveldb5Block4Iter5valueEv, symObjAddr: 0x6D8, symBinAddr: 0x4A04, symSize: 0x34 }
  - { offset: 0xDB52, size: 0x8, addend: 0x0, symName: __ZNK7leveldb5Block4Iter3keyEv.cold.1, symObjAddr: 0xAA4, symBinAddr: 0x2692C, symSize: 0x28 }
  - { offset: 0xDB6A, size: 0x8, addend: 0x0, symName: __ZNK7leveldb5Block4Iter5valueEv, symObjAddr: 0x6D8, symBinAddr: 0x4A04, symSize: 0x34 }
  - { offset: 0xDBA6, size: 0x8, addend: 0x0, symName: __ZNK7leveldb5Block4Iter6statusEv, symObjAddr: 0x70C, symBinAddr: 0x4A38, symSize: 0x2C }
  - { offset: 0xDBB1, size: 0x8, addend: 0x0, symName: __ZNK7leveldb5Block4Iter5valueEv.cold.1, symObjAddr: 0xACC, symBinAddr: 0x26954, symSize: 0x28 }
  - { offset: 0xDC13, size: 0x8, addend: 0x0, symName: __ZNK7leveldb5Block4Iter6statusEv, symObjAddr: 0x70C, symBinAddr: 0x4A38, symSize: 0x2C }
  - { offset: 0xDD76, size: 0x8, addend: 0x0, symName: _OUTLINED_FUNCTION_0, symObjAddr: 0xB18, symBinAddr: 0x4D38, symSize: 0x8 }
  - { offset: 0xFC4E, size: 0x8, addend: 0x0, symName: __ZN7leveldb12BlockBuilderC2EPKNS_7OptionsE, symObjAddr: 0x0, symBinAddr: 0x4D40, symSize: 0x108 }
  - { offset: 0x132C9, size: 0x8, addend: 0x0, symName: __ZNSt3__119__allocate_at_leastB8ne190102INS_9allocatorIjEEEENS_19__allocation_resultINS_16allocator_traitsIT_E7pointerEEERS5_m, symObjAddr: 0x5D0, symBinAddr: 0x5288, symSize: 0x34 }
  - { offset: 0x146BF, size: 0x8, addend: 0x0, symName: __ZN7leveldb12BlockBuilderC2EPKNS_7OptionsE, symObjAddr: 0x0, symBinAddr: 0x4D40, symSize: 0x108 }
  - { offset: 0x14DA1, size: 0x8, addend: 0x0, symName: __ZN7leveldb12BlockBuilderC1EPKNS_7OptionsE, symObjAddr: 0x108, symBinAddr: 0x4E48, symSize: 0x4 }
  - { offset: 0x14DDB, size: 0x8, addend: 0x0, symName: __ZN7leveldb12BlockBuilderC1EPKNS_7OptionsE, symObjAddr: 0x108, symBinAddr: 0x4E48, symSize: 0x4 }
  - { offset: 0x14F63, size: 0x8, addend: 0x0, symName: __ZN7leveldb12BlockBuilder5ResetEv, symObjAddr: 0x10C, symBinAddr: 0x4E4C, symSize: 0xEC }
  - { offset: 0x1552D, size: 0x8, addend: 0x0, symName: __ZNK7leveldb12BlockBuilder19CurrentSizeEstimateEv, symObjAddr: 0x1F8, symBinAddr: 0x4F38, symSize: 0x20 }
  - { offset: 0x15557, size: 0x8, addend: 0x0, symName: __ZNK7leveldb12BlockBuilder19CurrentSizeEstimateEv, symObjAddr: 0x1F8, symBinAddr: 0x4F38, symSize: 0x20 }
  - { offset: 0x15574, size: 0x8, addend: 0x0, symName: __ZNK7leveldb12BlockBuilder19CurrentSizeEstimateEv, symObjAddr: 0x1F8, symBinAddr: 0x4F38, symSize: 0x20 }
  - { offset: 0x15641, size: 0x8, addend: 0x0, symName: __ZN7leveldb12BlockBuilder6FinishEv, symObjAddr: 0x218, symBinAddr: 0x4F58, symSize: 0x7C }
  - { offset: 0x157E6, size: 0x8, addend: 0x0, symName: __ZN7leveldb12BlockBuilder3AddERKNS_5SliceES3_, symObjAddr: 0x294, symBinAddr: 0x4FD4, symSize: 0x2B4 }
  - { offset: 0x15F3C, size: 0x8, addend: 0x0, symName: __ZN7leveldb12BlockBuilder3AddERKNS_5SliceES3_.cold.4, symObjAddr: 0x6A4, symBinAddr: 0x269F4, symSize: 0x28 }
  - { offset: 0x15F54, size: 0x8, addend: 0x0, symName: __ZN7leveldb12BlockBuilder3AddERKNS_5SliceES3_.cold.3, symObjAddr: 0x67C, symBinAddr: 0x269CC, symSize: 0x28 }
  - { offset: 0x15F6C, size: 0x8, addend: 0x0, symName: __ZN7leveldb12BlockBuilder3AddERKNS_5SliceES3_.cold.2, symObjAddr: 0x654, symBinAddr: 0x269A4, symSize: 0x28 }
  - { offset: 0x15F84, size: 0x8, addend: 0x0, symName: __ZN7leveldb12BlockBuilder3AddERKNS_5SliceES3_.cold.1, symObjAddr: 0x62C, symBinAddr: 0x2697C, symSize: 0x28 }
  - { offset: 0x17EE9, size: 0x8, addend: 0x0, symName: __ZN7leveldb20NewBloomFilterPolicyEi, symObjAddr: 0x0, symBinAddr: 0x52BC, symSize: 0x60 }
  - { offset: 0x1AA30, size: 0x8, addend: 0x0, symName: __ZN7leveldb20NewBloomFilterPolicyEi, symObjAddr: 0x0, symBinAddr: 0x52BC, symSize: 0x60 }
  - { offset: 0x1AB6D, size: 0x8, addend: 0x0, symName: __ZN7leveldb12_GLOBAL__N_117BloomFilterPolicyD1Ev, symObjAddr: 0x60, symBinAddr: 0x531C, symSize: 0x4 }
  - { offset: 0x1AB8F, size: 0x8, addend: 0x0, symName: __ZN7leveldb12_GLOBAL__N_117BloomFilterPolicyD1Ev, symObjAddr: 0x60, symBinAddr: 0x531C, symSize: 0x4 }
  - { offset: 0x1ABC2, size: 0x8, addend: 0x0, symName: __ZN7leveldb12_GLOBAL__N_117BloomFilterPolicyD0Ev, symObjAddr: 0x64, symBinAddr: 0x5320, symSize: 0x14 }
  - { offset: 0x1AC24, size: 0x8, addend: 0x0, symName: __ZNK7leveldb12_GLOBAL__N_117BloomFilterPolicy4NameEv, symObjAddr: 0x78, symBinAddr: 0x5334, symSize: 0xC }
  - { offset: 0x1ACD4, size: 0x8, addend: 0x0, symName: __ZNK7leveldb12_GLOBAL__N_117BloomFilterPolicy12CreateFilterEPKNS_5SliceEiPNSt3__112basic_stringIcNS5_11char_traitsIcEENS5_9allocatorIcEEEE, symObjAddr: 0x84, symBinAddr: 0x5340, symSize: 0x118 }
  - { offset: 0x1AEEB, size: 0x8, addend: 0x0, symName: __ZNK7leveldb12_GLOBAL__N_117BloomFilterPolicy11KeyMayMatchERKNS_5SliceES4_, symObjAddr: 0x19C, symBinAddr: 0x5458, symSize: 0xA8 }
  - { offset: 0x1AF87, size: 0x8, addend: 0x0, symName: __ZNK7leveldb12_GLOBAL__N_117BloomFilterPolicy11KeyMayMatchERKNS_5SliceES4_, symObjAddr: 0x19C, symBinAddr: 0x5458, symSize: 0xA8 }
  - { offset: 0x1CEEB, size: 0x8, addend: 0x0, symName: __ZN7leveldb10BuildTableERKNSt3__112basic_stringIcNS0_11char_traitsIcEENS0_9allocatorIcEEEEPNS_3EnvERKNS_7OptionsEPNS_10TableCacheEPNS_8IteratorEPNS_12FileMetaDataE, symObjAddr: 0x0, symBinAddr: 0x5500, symSize: 0x394 }
  - { offset: 0x1D0D0, size: 0x8, addend: 0x0, symName: __ZN7leveldb10BuildTableERKNSt3__112basic_stringIcNS0_11char_traitsIcEENS0_9allocatorIcEEEEPNS_3EnvERKNS_7OptionsEPNS_10TableCacheEPNS_8IteratorEPNS_12FileMetaDataE, symObjAddr: 0x0, symBinAddr: 0x5500, symSize: 0x394 }
  - { offset: 0x279C9, size: 0x8, addend: 0x0, symName: __ZZ33leveldb_filterpolicy_create_bloomEN7WrapperD1Ev, symObjAddr: 0x140C, symBinAddr: 0x6B34, symSize: 0x40 }
  - { offset: 0x28C1E, size: 0x8, addend: 0x0, symName: _leveldb_open, symObjAddr: 0x0, symBinAddr: 0x5894, symSize: 0xC0 }
  - { offset: 0x28F8C, size: 0x8, addend: 0x0, symName: __ZNSt3__112basic_stringIcNS_11char_traitsIcEENS_9allocatorIcEEEC2B8ne190102ILi0EEEPKc, symObjAddr: 0x14C0, symBinAddr: 0x6BE8, symSize: 0xA8 }
  - { offset: 0x291DB, size: 0x8, addend: 0x0, symName: __ZNKSt3__112basic_stringIcNS_11char_traitsIcEENS_9allocatorIcEEE20__throw_length_errorB8ne190102Ev, symObjAddr: 0x1568, symBinAddr: 0x6C90, symSize: 0x14 }
  - { offset: 0x291F3, size: 0x8, addend: 0x0, symName: __ZL9SaveErrorPPcRKN7leveldb6StatusE, symObjAddr: 0xC0, symBinAddr: 0x5954, symSize: 0x90 }
  - { offset: 0x29367, size: 0x8, addend: 0x0, symName: _leveldb_close, symObjAddr: 0x150, symBinAddr: 0x59E4, symSize: 0x34 }
  - { offset: 0x293FA, size: 0x8, addend: 0x0, symName: __ZL9SaveErrorPPcRKN7leveldb6StatusE.cold.1, symObjAddr: 0x157C, symBinAddr: 0x26A1C, symSize: 0x28 }
  - { offset: 0x29412, size: 0x8, addend: 0x0, symName: _leveldb_close, symObjAddr: 0x150, symBinAddr: 0x59E4, symSize: 0x34 }
  - { offset: 0x294A5, size: 0x8, addend: 0x0, symName: _leveldb_put, symObjAddr: 0x184, symBinAddr: 0x5A18, symSize: 0x78 }
  - { offset: 0x2968D, size: 0x8, addend: 0x0, symName: _leveldb_delete, symObjAddr: 0x1FC, symBinAddr: 0x5A90, symSize: 0x70 }
  - { offset: 0x297F9, size: 0x8, addend: 0x0, symName: _leveldb_write, symObjAddr: 0x26C, symBinAddr: 0x5B00, symSize: 0x68 }
  - { offset: 0x29A51, size: 0x8, addend: 0x0, symName: _leveldb_get, symObjAddr: 0x2D4, symBinAddr: 0x5B68, symSize: 0x114 }
  - { offset: 0x2A040, size: 0x8, addend: 0x0, symName: _leveldb_create_iterator, symObjAddr: 0x3E8, symBinAddr: 0x5C7C, symSize: 0x50 }
  - { offset: 0x2A09B, size: 0x8, addend: 0x0, symName: _leveldb_create_snapshot, symObjAddr: 0x438, symBinAddr: 0x5CCC, symSize: 0x40 }
  - { offset: 0x2A0E0, size: 0x8, addend: 0x0, symName: _leveldb_release_snapshot, symObjAddr: 0x478, symBinAddr: 0x5D0C, symSize: 0x34 }
  - { offset: 0x2A167, size: 0x8, addend: 0x0, symName: _leveldb_property_value, symObjAddr: 0x4AC, symBinAddr: 0x5D40, symSize: 0xAC }
  - { offset: 0x2A5D5, size: 0x8, addend: 0x0, symName: _leveldb_approximate_sizes, symObjAddr: 0x558, symBinAddr: 0x5DEC, symSize: 0xDC }
  - { offset: 0x2A74C, size: 0x8, addend: 0x0, symName: _leveldb_compact_range, symObjAddr: 0x634, symBinAddr: 0x5EC8, symSize: 0x58 }
  - { offset: 0x2A85B, size: 0x8, addend: 0x0, symName: _leveldb_destroy_db, symObjAddr: 0x68C, symBinAddr: 0x5F20, symSize: 0x98 }
  - { offset: 0x2AC53, size: 0x8, addend: 0x0, symName: _leveldb_repair_db, symObjAddr: 0x724, symBinAddr: 0x5FB8, symSize: 0x98 }
  - { offset: 0x2AFC1, size: 0x8, addend: 0x0, symName: _leveldb_iter_destroy, symObjAddr: 0x7BC, symBinAddr: 0x6050, symSize: 0x34 }
  - { offset: 0x2AFF6, size: 0x8, addend: 0x0, symName: _leveldb_iter_valid, symObjAddr: 0x7F0, symBinAddr: 0x6084, symSize: 0x20 }
  - { offset: 0x2B02F, size: 0x8, addend: 0x0, symName: _leveldb_iter_seek_to_first, symObjAddr: 0x810, symBinAddr: 0x60A4, symSize: 0x10 }
  - { offset: 0x2B064, size: 0x8, addend: 0x0, symName: _leveldb_iter_seek_to_last, symObjAddr: 0x820, symBinAddr: 0x60B4, symSize: 0x10 }
  - { offset: 0x2B099, size: 0x8, addend: 0x0, symName: _leveldb_iter_seek, symObjAddr: 0x830, symBinAddr: 0x60C4, symSize: 0x30 }
  - { offset: 0x2B14C, size: 0x8, addend: 0x0, symName: _leveldb_iter_next, symObjAddr: 0x860, symBinAddr: 0x60F4, symSize: 0x10 }
  - { offset: 0x2B181, size: 0x8, addend: 0x0, symName: _leveldb_iter_prev, symObjAddr: 0x870, symBinAddr: 0x6104, symSize: 0x10 }
  - { offset: 0x2B1B6, size: 0x8, addend: 0x0, symName: _leveldb_iter_key, symObjAddr: 0x880, symBinAddr: 0x6114, symSize: 0x30 }
  - { offset: 0x2B211, size: 0x8, addend: 0x0, symName: _leveldb_iter_value, symObjAddr: 0x8B0, symBinAddr: 0x6144, symSize: 0x30 }
  - { offset: 0x2B26C, size: 0x8, addend: 0x0, symName: _leveldb_iter_get_error, symObjAddr: 0x8E0, symBinAddr: 0x6174, symSize: 0x68 }
  - { offset: 0x2B3DC, size: 0x8, addend: 0x0, symName: _leveldb_writebatch_create, symObjAddr: 0x948, symBinAddr: 0x61DC, symSize: 0x40 }
  - { offset: 0x2B465, size: 0x8, addend: 0x0, symName: _leveldb_writebatch_destroy, symObjAddr: 0x988, symBinAddr: 0x621C, symSize: 0x1C }
  - { offset: 0x2B4C5, size: 0x8, addend: 0x0, symName: _leveldb_writebatch_clear, symObjAddr: 0x9A4, symBinAddr: 0x6238, symSize: 0x4 }
  - { offset: 0x2B4EC, size: 0x8, addend: 0x0, symName: _leveldb_writebatch_put, symObjAddr: 0x9A8, symBinAddr: 0x623C, symSize: 0x2C }
  - { offset: 0x2B607, size: 0x8, addend: 0x0, symName: _leveldb_writebatch_delete, symObjAddr: 0x9D4, symBinAddr: 0x6268, symSize: 0x24 }
  - { offset: 0x2B6A7, size: 0x8, addend: 0x0, symName: _leveldb_writebatch_iterate, symObjAddr: 0x9F8, symBinAddr: 0x628C, symSize: 0x64 }
  - { offset: 0x2B960, size: 0x8, addend: 0x0, symName: __ZZ26leveldb_writebatch_iterateEN1HD1Ev, symObjAddr: 0xA5C, symBinAddr: 0x62F0, symSize: 0x4 }
  - { offset: 0x2B982, size: 0x8, addend: 0x0, symName: __ZZ26leveldb_writebatch_iterateEN1HD1Ev, symObjAddr: 0xA5C, symBinAddr: 0x62F0, symSize: 0x4 }
  - { offset: 0x2B99D, size: 0x8, addend: 0x0, symName: _leveldb_writebatch_append, symObjAddr: 0xA60, symBinAddr: 0x62F4, symSize: 0x4 }
  - { offset: 0x2BA33, size: 0x8, addend: 0x0, symName: _leveldb_options_create, symObjAddr: 0xA64, symBinAddr: 0x62F8, symSize: 0x40 }
  - { offset: 0x2BA88, size: 0x8, addend: 0x0, symName: _leveldb_options_destroy, symObjAddr: 0xAA4, symBinAddr: 0x6338, symSize: 0xC }
  - { offset: 0x2BAAF, size: 0x8, addend: 0x0, symName: _leveldb_options_set_comparator, symObjAddr: 0xAB0, symBinAddr: 0x6344, symSize: 0x8 }
  - { offset: 0x2BAE5, size: 0x8, addend: 0x0, symName: _leveldb_options_set_filter_policy, symObjAddr: 0xAB8, symBinAddr: 0x634C, symSize: 0x8 }
  - { offset: 0x2BB1B, size: 0x8, addend: 0x0, symName: _leveldb_options_set_create_if_missing, symObjAddr: 0xAC0, symBinAddr: 0x6354, symSize: 0x10 }
  - { offset: 0x2BB51, size: 0x8, addend: 0x0, symName: _leveldb_options_set_error_if_exists, symObjAddr: 0xAD0, symBinAddr: 0x6364, symSize: 0x10 }
  - { offset: 0x2BB87, size: 0x8, addend: 0x0, symName: _leveldb_options_set_paranoid_checks, symObjAddr: 0xAE0, symBinAddr: 0x6374, symSize: 0x10 }
  - { offset: 0x2BBBD, size: 0x8, addend: 0x0, symName: _leveldb_options_set_env, symObjAddr: 0xAF0, symBinAddr: 0x6384, symSize: 0x18 }
  - { offset: 0x2BBF3, size: 0x8, addend: 0x0, symName: _leveldb_options_set_info_log, symObjAddr: 0xB08, symBinAddr: 0x639C, symSize: 0x18 }
  - { offset: 0x2BC29, size: 0x8, addend: 0x0, symName: _leveldb_options_set_write_buffer_size, symObjAddr: 0xB20, symBinAddr: 0x63B4, symSize: 0x8 }
  - { offset: 0x2BC5F, size: 0x8, addend: 0x0, symName: _leveldb_options_set_max_open_files, symObjAddr: 0xB28, symBinAddr: 0x63BC, symSize: 0x8 }
  - { offset: 0x2BC95, size: 0x8, addend: 0x0, symName: _leveldb_options_set_cache, symObjAddr: 0xB30, symBinAddr: 0x63C4, symSize: 0xC }
  - { offset: 0x2BCCB, size: 0x8, addend: 0x0, symName: _leveldb_options_set_block_size, symObjAddr: 0xB3C, symBinAddr: 0x63D0, symSize: 0x8 }
  - { offset: 0x2BD01, size: 0x8, addend: 0x0, symName: _leveldb_options_set_block_restart_interval, symObjAddr: 0xB44, symBinAddr: 0x63D8, symSize: 0x8 }
  - { offset: 0x2BD37, size: 0x8, addend: 0x0, symName: _leveldb_options_set_max_file_size, symObjAddr: 0xB4C, symBinAddr: 0x63E0, symSize: 0x8 }
  - { offset: 0x2BD6D, size: 0x8, addend: 0x0, symName: _leveldb_options_set_compression, symObjAddr: 0xB54, symBinAddr: 0x63E8, symSize: 0x8 }
  - { offset: 0x2BF11, size: 0x8, addend: 0x0, symName: _leveldb_comparator_create, symObjAddr: 0xB5C, symBinAddr: 0x63F0, symSize: 0x50 }
  - { offset: 0x2BFBB, size: 0x8, addend: 0x0, symName: _leveldb_comparator_destroy, symObjAddr: 0xBAC, symBinAddr: 0x6440, symSize: 0x14 }
  - { offset: 0x2C16C, size: 0x8, addend: 0x0, symName: _leveldb_filterpolicy_create, symObjAddr: 0xBC0, symBinAddr: 0x6454, symSize: 0x5C }
  - { offset: 0x2C227, size: 0x8, addend: 0x0, symName: _leveldb_filterpolicy_destroy, symObjAddr: 0xC1C, symBinAddr: 0x64B0, symSize: 0x14 }
  - { offset: 0x2C25A, size: 0x8, addend: 0x0, symName: _leveldb_filterpolicy_create_bloom, symObjAddr: 0xC30, symBinAddr: 0x64C4, symSize: 0x50 }
  - { offset: 0x2C3F8, size: 0x8, addend: 0x0, symName: __ZZ33leveldb_filterpolicy_create_bloomEN7Wrapper9DoNothingEPv, symObjAddr: 0xC80, symBinAddr: 0x6514, symSize: 0x4 }
  - { offset: 0x2C4B9, size: 0x8, addend: 0x0, symName: _leveldb_readoptions_create, symObjAddr: 0xC84, symBinAddr: 0x6518, symSize: 0x24 }
  - { offset: 0x2C546, size: 0x8, addend: 0x0, symName: _leveldb_readoptions_destroy, symObjAddr: 0xCA8, symBinAddr: 0x653C, symSize: 0xC }
  - { offset: 0x2C56D, size: 0x8, addend: 0x0, symName: _leveldb_readoptions_set_verify_checksums, symObjAddr: 0xCB4, symBinAddr: 0x6548, symSize: 0x10 }
  - { offset: 0x2C5A3, size: 0x8, addend: 0x0, symName: _leveldb_readoptions_set_fill_cache, symObjAddr: 0xCC4, symBinAddr: 0x6558, symSize: 0x10 }
  - { offset: 0x2C5D9, size: 0x8, addend: 0x0, symName: _leveldb_readoptions_set_snapshot, symObjAddr: 0xCD4, symBinAddr: 0x6568, symSize: 0x18 }
  - { offset: 0x2C6A9, size: 0x8, addend: 0x0, symName: _leveldb_writeoptions_create, symObjAddr: 0xCEC, symBinAddr: 0x6580, symSize: 0x1C }
  - { offset: 0x2C736, size: 0x8, addend: 0x0, symName: _leveldb_writeoptions_destroy, symObjAddr: 0xD08, symBinAddr: 0x659C, symSize: 0xC }
  - { offset: 0x2C75D, size: 0x8, addend: 0x0, symName: _leveldb_writeoptions_set_sync, symObjAddr: 0xD14, symBinAddr: 0x65A8, symSize: 0x10 }
  - { offset: 0x2C793, size: 0x8, addend: 0x0, symName: _leveldb_cache_create_lru, symObjAddr: 0xD24, symBinAddr: 0x65B8, symSize: 0x38 }
  - { offset: 0x2C7E5, size: 0x8, addend: 0x0, symName: _leveldb_cache_destroy, symObjAddr: 0xD5C, symBinAddr: 0x65F0, symSize: 0x34 }
  - { offset: 0x2C81A, size: 0x8, addend: 0x0, symName: _leveldb_create_default_env, symObjAddr: 0xD90, symBinAddr: 0x6624, symSize: 0x38 }
  - { offset: 0x2C847, size: 0x8, addend: 0x0, symName: _leveldb_env_destroy, symObjAddr: 0xDC8, symBinAddr: 0x665C, symSize: 0x3C }
  - { offset: 0x2C890, size: 0x8, addend: 0x0, symName: _leveldb_env_get_test_directory, symObjAddr: 0xE04, symBinAddr: 0x6698, symSize: 0xD0 }
  - { offset: 0x2CD28, size: 0x8, addend: 0x0, symName: _leveldb_free, symObjAddr: 0xED4, symBinAddr: 0x6768, symSize: 0x4 }
  - { offset: 0x2CD51, size: 0x8, addend: 0x0, symName: _leveldb_free, symObjAddr: 0xED4, symBinAddr: 0x6768, symSize: 0x4 }
  - { offset: 0x2CD64, size: 0x8, addend: 0x0, symName: _leveldb_major_version, symObjAddr: 0xED8, symBinAddr: 0x676C, symSize: 0x8 }
  - { offset: 0x2CD7F, size: 0x8, addend: 0x0, symName: _leveldb_minor_version, symObjAddr: 0xEE0, symBinAddr: 0x6774, symSize: 0x8 }
  - { offset: 0x2CD9A, size: 0x8, addend: 0x0, symName: __ZZ26leveldb_writebatch_iterateEN1HD0Ev, symObjAddr: 0xEE8, symBinAddr: 0x677C, symSize: 0x14 }
  - { offset: 0x2CE13, size: 0x8, addend: 0x0, symName: __ZZ26leveldb_writebatch_iterateEN1H3PutERKN7leveldb5SliceES3_, symObjAddr: 0xEFC, symBinAddr: 0x6790, symSize: 0x18 }
  - { offset: 0x2CEA5, size: 0x8, addend: 0x0, symName: __ZZ26leveldb_writebatch_iterateEN1H6DeleteERKN7leveldb5SliceE, symObjAddr: 0xF14, symBinAddr: 0x67A8, symSize: 0x14 }
  - { offset: 0x2CF08, size: 0x8, addend: 0x0, symName: __ZN20leveldb_comparator_tD1Ev, symObjAddr: 0xF28, symBinAddr: 0x67BC, symSize: 0x4 }
  - { offset: 0x2CF2A, size: 0x8, addend: 0x0, symName: __ZN20leveldb_comparator_tD1Ev, symObjAddr: 0xF28, symBinAddr: 0x67BC, symSize: 0x4 }
  - { offset: 0x2CF3D, size: 0x8, addend: 0x0, symName: __ZN20leveldb_comparator_tD2Ev, symObjAddr: 0xF70, symBinAddr: 0x6804, symSize: 0x3C }
  - { offset: 0x2CF8B, size: 0x8, addend: 0x0, symName: __ZN20leveldb_comparator_tD0Ev, symObjAddr: 0xF2C, symBinAddr: 0x67C0, symSize: 0x14 }
  - { offset: 0x2CFE4, size: 0x8, addend: 0x0, symName: __ZNK20leveldb_comparator_t7CompareERKN7leveldb5SliceES3_, symObjAddr: 0xF40, symBinAddr: 0x67D4, symSize: 0x1C }
  - { offset: 0x2D06C, size: 0x8, addend: 0x0, symName: __ZNK20leveldb_comparator_t4NameEv, symObjAddr: 0xF5C, symBinAddr: 0x67F0, symSize: 0xC }
  - { offset: 0x2D09E, size: 0x8, addend: 0x0, symName: __ZNK20leveldb_comparator_t21FindShortestSeparatorEPNSt3__112basic_stringIcNS0_11char_traitsIcEENS0_9allocatorIcEEEERKN7leveldb5SliceE, symObjAddr: 0xF68, symBinAddr: 0x67FC, symSize: 0x4 }
  - { offset: 0x2D0D6, size: 0x8, addend: 0x0, symName: __ZNK20leveldb_comparator_t18FindShortSuccessorEPNSt3__112basic_stringIcNS0_11char_traitsIcEENS0_9allocatorIcEEEE, symObjAddr: 0xF6C, symBinAddr: 0x6800, symSize: 0x4 }
  - { offset: 0x2D107, size: 0x8, addend: 0x0, symName: __ZN22leveldb_filterpolicy_tD1Ev, symObjAddr: 0xFBC, symBinAddr: 0x6850, symSize: 0x4 }
  - { offset: 0x2D129, size: 0x8, addend: 0x0, symName: __ZN22leveldb_filterpolicy_tD1Ev, symObjAddr: 0xFBC, symBinAddr: 0x6850, symSize: 0x4 }
  - { offset: 0x2D13C, size: 0x8, addend: 0x0, symName: __ZN22leveldb_filterpolicy_tD2Ev, symObjAddr: 0x113C, symBinAddr: 0x69D0, symSize: 0x3C }
  - { offset: 0x2D18A, size: 0x8, addend: 0x0, symName: __ZN22leveldb_filterpolicy_tD0Ev, symObjAddr: 0xFC0, symBinAddr: 0x6854, symSize: 0x14 }
  - { offset: 0x2D1E3, size: 0x8, addend: 0x0, symName: __ZNK22leveldb_filterpolicy_t4NameEv, symObjAddr: 0xFD4, symBinAddr: 0x6868, symSize: 0xC }
  - { offset: 0x2D46D, size: 0x8, addend: 0x0, symName: __ZNK22leveldb_filterpolicy_t12CreateFilterEPKN7leveldb5SliceEiPNSt3__112basic_stringIcNS4_11char_traitsIcEENS4_9allocatorIcEEEE, symObjAddr: 0xFE0, symBinAddr: 0x6874, symSize: 0x128 }
  - { offset: 0x2DB5E, size: 0x8, addend: 0x0, symName: __ZNSt3__16vectorIPKcNS_9allocatorIS2_EEEC2B8ne190102Em, symObjAddr: 0x1178, symBinAddr: 0x6A0C, symSize: 0x74 }
  - { offset: 0x2DDCE, size: 0x8, addend: 0x0, symName: __ZNSt3__16vectorImNS_9allocatorImEEEC2B8ne190102Em, symObjAddr: 0x1310, symBinAddr: 0x6AC0, symSize: 0x74 }
  - { offset: 0x2E03E, size: 0x8, addend: 0x0, symName: __ZNK22leveldb_filterpolicy_t11KeyMayMatchERKN7leveldb5SliceES3_, symObjAddr: 0x1108, symBinAddr: 0x699C, symSize: 0x34 }
  - { offset: 0x2E24F, size: 0x8, addend: 0x0, symName: __ZNSt3__16vectorIPKcNS_9allocatorIS2_EEE11__vallocateB8ne190102Em, symObjAddr: 0x11EC, symBinAddr: 0x6A80, symSize: 0x40 }
  - { offset: 0x2E5E9, size: 0x8, addend: 0x0, symName: __ZZ33leveldb_filterpolicy_create_bloomEN7WrapperD1Ev, symObjAddr: 0x140C, symBinAddr: 0x6B34, symSize: 0x40 }
  - { offset: 0x2E65B, size: 0x8, addend: 0x0, symName: __ZZ33leveldb_filterpolicy_create_bloomEN7WrapperD0Ev, symObjAddr: 0x144C, symBinAddr: 0x6B74, symSize: 0x44 }
  - { offset: 0x2E6DF, size: 0x8, addend: 0x0, symName: __ZZ33leveldb_filterpolicy_create_bloomENK7Wrapper4NameEv, symObjAddr: 0x1490, symBinAddr: 0x6BB8, symSize: 0x10 }
  - { offset: 0x2E715, size: 0x8, addend: 0x0, symName: __ZZ33leveldb_filterpolicy_create_bloomENK7Wrapper12CreateFilterEPKN7leveldb5SliceEiPNSt3__112basic_stringIcNS4_11char_traitsIcEENS4_9allocatorIcEEEE, symObjAddr: 0x14A0, symBinAddr: 0x6BC8, symSize: 0x10 }
  - { offset: 0x2E78E, size: 0x8, addend: 0x0, symName: __ZZ33leveldb_filterpolicy_create_bloomENK7Wrapper11KeyMayMatchERKN7leveldb5SliceES3_, symObjAddr: 0x14B0, symBinAddr: 0x6BD8, symSize: 0x10 }
  - { offset: 0x2E93A, size: 0x8, addend: 0x0, symName: __ZNKSt3__112basic_stringIcNS_11char_traitsIcEENS_9allocatorIcEEE20__throw_length_errorB8ne190102Ev, symObjAddr: 0x1568, symBinAddr: 0x6C90, symSize: 0x14 }
  - { offset: 0x2E962, size: 0x8, addend: 0x0, symName: __ZL9SaveErrorPPcRKN7leveldb6StatusE.cold.1, symObjAddr: 0x157C, symBinAddr: 0x26A1C, symSize: 0x28 }
  - { offset: 0x31206, size: 0x8, addend: 0x0, symName: __ZN7leveldb11NewLRUCacheEm, symObjAddr: 0xC, symBinAddr: 0x6CB0, symSize: 0x108 }
  - { offset: 0x321A9, size: 0x8, addend: 0x0, symName: __ZN7leveldb5CacheD2Ev, symObjAddr: 0x0, symBinAddr: 0x6CA4, symSize: 0x4 }
  - { offset: 0x321D2, size: 0x8, addend: 0x0, symName: __ZN7leveldb5CacheD1Ev, symObjAddr: 0x4, symBinAddr: 0x6CA8, symSize: 0x4 }
  - { offset: 0x321F9, size: 0x8, addend: 0x0, symName: __ZN7leveldb5CacheD0Ev, symObjAddr: 0x8, symBinAddr: 0x6CAC, symSize: 0x4 }
  - { offset: 0x32462, size: 0x8, addend: 0x0, symName: __ZN7leveldb12_GLOBAL__N_111HandleTable6ResizeEv, symObjAddr: 0x8A8, symBinAddr: 0x754C, symSize: 0xD4 }
  - { offset: 0x32533, size: 0x8, addend: 0x0, symName: __ZN7leveldb12_GLOBAL__N_18LRUCacheD1Ev, symObjAddr: 0x118, symBinAddr: 0x6DBC, symSize: 0xE8 }
  - { offset: 0x32624, size: 0x8, addend: 0x0, symName: __ZN7leveldb5Cache5PruneEv, symObjAddr: 0x114, symBinAddr: 0x6DB8, symSize: 0x4 }
  - { offset: 0x326AC, size: 0x8, addend: 0x0, symName: __ZN7leveldb12_GLOBAL__N_18LRUCache5UnrefEPNS0_9LRUHandleE, symObjAddr: 0x98C, symBinAddr: 0x7620, symSize: 0xAC }
  - { offset: 0x3278A, size: 0x8, addend: 0x0, symName: __ZN7leveldb12_GLOBAL__N_18LRUCache11FinishEraseEPNS0_9LRUHandleE, symObjAddr: 0xA38, symBinAddr: 0x76CC, symSize: 0x5C }
  - { offset: 0x327CA, size: 0x8, addend: 0x0, symName: __ZN7leveldb12_GLOBAL__N_115ShardedLRUCacheD1Ev, symObjAddr: 0x200, symBinAddr: 0x6EA4, symSize: 0x4C }
  - { offset: 0x32849, size: 0x8, addend: 0x0, symName: __ZN7leveldb12_GLOBAL__N_115ShardedLRUCacheD0Ev, symObjAddr: 0x24C, symBinAddr: 0x6EF0, symSize: 0x14 }
  - { offset: 0x32AD3, size: 0x8, addend: 0x0, symName: __ZN7leveldb12_GLOBAL__N_115ShardedLRUCache6InsertERKNS_5SliceEPvmPFvS4_S5_E, symObjAddr: 0x260, symBinAddr: 0x6F04, symSize: 0x294 }
  - { offset: 0x32ECB, size: 0x8, addend: 0x0, symName: __ZN7leveldb12_GLOBAL__N_111HandleTable11FindPointerERKNS_5SliceEj, symObjAddr: 0xA94, symBinAddr: 0x7728, symSize: 0x9C }
  - { offset: 0x32F71, size: 0x8, addend: 0x0, symName: __ZN7leveldb12_GLOBAL__N_111HandleTable6ResizeEv.cold.1, symObjAddr: 0xB30, symBinAddr: 0x26A44, symSize: 0x28 }
  - { offset: 0x32F7C, size: 0x8, addend: 0x0, symName: __ZN7leveldb12_GLOBAL__N_18LRUCache11FinishEraseEPNS0_9LRUHandleE, symObjAddr: 0xA38, symBinAddr: 0x76CC, symSize: 0x5C }
  - { offset: 0x32FEF, size: 0x8, addend: 0x0, symName: __ZN7leveldb12_GLOBAL__N_111HandleTable11FindPointerERKNS_5SliceEj, symObjAddr: 0xA94, symBinAddr: 0x7728, symSize: 0x9C }
  - { offset: 0x330A8, size: 0x8, addend: 0x0, symName: __ZN7leveldb12_GLOBAL__N_115ShardedLRUCache6LookupERKNS_5SliceE, symObjAddr: 0x4F4, symBinAddr: 0x7198, symSize: 0xCC }
  - { offset: 0x3332A, size: 0x8, addend: 0x0, symName: __ZN7leveldb12_GLOBAL__N_115ShardedLRUCache7ReleaseEPNS_5Cache6HandleE, symObjAddr: 0x5C0, symBinAddr: 0x7264, symSize: 0x58 }
  - { offset: 0x33478, size: 0x8, addend: 0x0, symName: __ZN7leveldb12_GLOBAL__N_115ShardedLRUCache5ValueEPNS_5Cache6HandleE, symObjAddr: 0x618, symBinAddr: 0x72BC, symSize: 0x8 }
  - { offset: 0x334E3, size: 0x8, addend: 0x0, symName: __ZN7leveldb12_GLOBAL__N_115ShardedLRUCache5EraseERKNS_5SliceE, symObjAddr: 0x620, symBinAddr: 0x72C4, symSize: 0x98 }
  - { offset: 0x336E0, size: 0x8, addend: 0x0, symName: __ZN7leveldb12_GLOBAL__N_115ShardedLRUCache5NewIdEv, symObjAddr: 0x6B8, symBinAddr: 0x735C, symSize: 0x3C }
  - { offset: 0x337CE, size: 0x8, addend: 0x0, symName: __ZN7leveldb12_GLOBAL__N_115ShardedLRUCache5PruneEv, symObjAddr: 0x6F4, symBinAddr: 0x7398, symSize: 0x158 }
  - { offset: 0x339DC, size: 0x8, addend: 0x0, symName: __ZNK7leveldb12_GLOBAL__N_115ShardedLRUCache11TotalChargeEv, symObjAddr: 0x84C, symBinAddr: 0x74F0, symSize: 0x5C }
  - { offset: 0x33AFC, size: 0x8, addend: 0x0, symName: __ZN7leveldb12_GLOBAL__N_111HandleTable6ResizeEv.cold.1, symObjAddr: 0xB30, symBinAddr: 0x26A44, symSize: 0x28 }
  - { offset: 0x33B21, size: 0x8, addend: 0x0, symName: __ZN7leveldb12_GLOBAL__N_18LRUCache5UnrefEPNS0_9LRUHandleE.cold.3, symObjAddr: 0xBA8, symBinAddr: 0x26ABC, symSize: 0x28 }
  - { offset: 0x33B39, size: 0x8, addend: 0x0, symName: __ZN7leveldb12_GLOBAL__N_18LRUCache5UnrefEPNS0_9LRUHandleE.cold.2, symObjAddr: 0xB80, symBinAddr: 0x26A94, symSize: 0x28 }
  - { offset: 0x33B51, size: 0x8, addend: 0x0, symName: __ZN7leveldb12_GLOBAL__N_18LRUCache5UnrefEPNS0_9LRUHandleE.cold.1, symObjAddr: 0xB58, symBinAddr: 0x26A6C, symSize: 0x28 }
  - { offset: 0x33B7F, size: 0x8, addend: 0x0, symName: __ZN7leveldb12_GLOBAL__N_18LRUCache11FinishEraseEPNS0_9LRUHandleE.cold.1, symObjAddr: 0xBD0, symBinAddr: 0x26AE4, symSize: 0x28 }
  - { offset: 0x35A25, size: 0x8, addend: 0x0, symName: __ZN7leveldb10PutFixed32EPNSt3__112basic_stringIcNS0_11char_traitsIcEENS0_9allocatorIcEEEEj, symObjAddr: 0x0, symBinAddr: 0x77C4, symSize: 0x28 }
  - { offset: 0x35A38, size: 0x8, addend: 0x0, symName: __ZN7leveldb14EncodeVarint32EPcj, symObjAddr: 0x7C, symBinAddr: 0x7840, symSize: 0x9C }
  - { offset: 0x35A8F, size: 0x8, addend: 0x0, symName: __ZN7leveldb14EncodeVarint64EPcy, symObjAddr: 0x158, symBinAddr: 0x791C, symSize: 0x30 }
  - { offset: 0x35AF8, size: 0x8, addend: 0x0, symName: __ZN7leveldb10PutFixed32EPNSt3__112basic_stringIcNS0_11char_traitsIcEENS0_9allocatorIcEEEEj, symObjAddr: 0x0, symBinAddr: 0x77C4, symSize: 0x28 }
  - { offset: 0x35B9D, size: 0x8, addend: 0x0, symName: __ZN7leveldb10PutFixed64EPNSt3__112basic_stringIcNS0_11char_traitsIcEENS0_9allocatorIcEEEEy, symObjAddr: 0x28, symBinAddr: 0x77EC, symSize: 0x54 }
  - { offset: 0x35C0F, size: 0x8, addend: 0x0, symName: __ZN7leveldb11PutVarint32EPNSt3__112basic_stringIcNS0_11char_traitsIcEENS0_9allocatorIcEEEEj, symObjAddr: 0x118, symBinAddr: 0x78DC, symSize: 0x40 }
  - { offset: 0x35C94, size: 0x8, addend: 0x0, symName: __ZN7leveldb11PutVarint64EPNSt3__112basic_stringIcNS0_11char_traitsIcEENS0_9allocatorIcEEEEy, symObjAddr: 0x188, symBinAddr: 0x794C, symSize: 0x8C }
  - { offset: 0x35D51, size: 0x8, addend: 0x0, symName: __ZN7leveldb22PutLengthPrefixedSliceEPNSt3__112basic_stringIcNS0_11char_traitsIcEENS0_9allocatorIcEEEERKNS_5SliceE, symObjAddr: 0x214, symBinAddr: 0x79D8, symSize: 0x5C }
  - { offset: 0x35E0C, size: 0x8, addend: 0x0, symName: __ZN7leveldb12VarintLengthEy, symObjAddr: 0x270, symBinAddr: 0x7A34, symSize: 0x2C }
  - { offset: 0x35E49, size: 0x8, addend: 0x0, symName: __ZN7leveldb22GetVarint32PtrFallbackEPKcS1_Pj, symObjAddr: 0x29C, symBinAddr: 0x7A60, symSize: 0x6C }
  - { offset: 0x35F34, size: 0x8, addend: 0x0, symName: __ZN7leveldb11GetVarint32EPNS_5SliceEPj, symObjAddr: 0x308, symBinAddr: 0x7ACC, symSize: 0x90 }
  - { offset: 0x35F9F, size: 0x8, addend: 0x0, symName: __ZN7leveldb11GetVarint32EPNS_5SliceEPj, symObjAddr: 0x308, symBinAddr: 0x7ACC, symSize: 0x90 }
  - { offset: 0x3603D, size: 0x8, addend: 0x0, symName: __ZN7leveldb14GetVarint64PtrEPKcS1_Py, symObjAddr: 0x398, symBinAddr: 0x7B5C, symSize: 0x6C }
  - { offset: 0x360E9, size: 0x8, addend: 0x0, symName: __ZN7leveldb11GetVarint64EPNS_5SliceEPy, symObjAddr: 0x404, symBinAddr: 0x7BC8, symSize: 0x84 }
  - { offset: 0x36150, size: 0x8, addend: 0x0, symName: __ZN7leveldb11GetVarint64EPNS_5SliceEPy, symObjAddr: 0x404, symBinAddr: 0x7BC8, symSize: 0x84 }
  - { offset: 0x361B2, size: 0x8, addend: 0x0, symName: __ZN7leveldb22GetLengthPrefixedSliceEPKcS1_PNS_5SliceE, symObjAddr: 0x488, symBinAddr: 0x7C4C, symSize: 0x78 }
  - { offset: 0x3620D, size: 0x8, addend: 0x0, symName: __ZN7leveldb22GetLengthPrefixedSliceEPKcS1_PNS_5SliceE, symObjAddr: 0x488, symBinAddr: 0x7C4C, symSize: 0x78 }
  - { offset: 0x3629B, size: 0x8, addend: 0x0, symName: __ZN7leveldb22GetLengthPrefixedSliceEPNS_5SliceES1_, symObjAddr: 0x500, symBinAddr: 0x7CC4, symSize: 0x70 }
  - { offset: 0x3635B, size: 0x8, addend: 0x0, symName: __ZN7leveldb22GetLengthPrefixedSliceEPNS_5SliceES1_.cold.1, symObjAddr: 0x570, symBinAddr: 0x26B0C, symSize: 0x28 }
  - { offset: 0x38D91, size: 0x8, addend: 0x0, symName: __ZN7leveldb22GetLengthPrefixedSliceEPNS_5SliceES1_.cold.1, symObjAddr: 0x570, symBinAddr: 0x26B0C, symSize: 0x28 }
  - { offset: 0x3AC75, size: 0x8, addend: 0x0, symName: __ZN7leveldb10ComparatorD2Ev, symObjAddr: 0x0, symBinAddr: 0x7D34, symSize: 0x4 }
  - { offset: 0x3AC87, size: 0x8, addend: 0x0, symName: __ZN7leveldb18BytewiseComparatorEv, symObjAddr: 0xC, symBinAddr: 0x7D40, symSize: 0x30 }
  - { offset: 0x3ACB1, size: 0x8, addend: 0x0, symName: __MergedGlobals, symObjAddr: 0x111E8, symBinAddr: 0x31770, symSize: 0x0 }
  - { offset: 0x3D854, size: 0x8, addend: 0x0, symName: __ZN7leveldb10ComparatorD2Ev, symObjAddr: 0x0, symBinAddr: 0x7D34, symSize: 0x4 }
  - { offset: 0x3D87D, size: 0x8, addend: 0x0, symName: __ZN7leveldb10ComparatorD1Ev, symObjAddr: 0x4, symBinAddr: 0x7D38, symSize: 0x4 }
  - { offset: 0x3D8A4, size: 0x8, addend: 0x0, symName: __ZN7leveldb10ComparatorD0Ev, symObjAddr: 0x8, symBinAddr: 0x7D3C, symSize: 0x4 }
  - { offset: 0x3D8CC, size: 0x8, addend: 0x0, symName: __ZN7leveldb18BytewiseComparatorEv.cold.1, symObjAddr: 0x208, symBinAddr: 0x26B34, symSize: 0x3C }
  - { offset: 0x3D95C, size: 0x8, addend: 0x0, symName: __ZN7leveldb12_GLOBAL__N_122BytewiseComparatorImplD1Ev, symObjAddr: 0x3C, symBinAddr: 0x7D70, symSize: 0x4 }
  - { offset: 0x3D985, size: 0x8, addend: 0x0, symName: __ZN7leveldb12_GLOBAL__N_122BytewiseComparatorImplD0Ev, symObjAddr: 0x40, symBinAddr: 0x7D74, symSize: 0x4 }
  - { offset: 0x3D9F0, size: 0x8, addend: 0x0, symName: __ZNK7leveldb12_GLOBAL__N_122BytewiseComparatorImpl7CompareERKNS_5SliceES4_, symObjAddr: 0x44, symBinAddr: 0x7D78, symSize: 0x3C }
  - { offset: 0x3DA92, size: 0x8, addend: 0x0, symName: __ZNK7leveldb12_GLOBAL__N_122BytewiseComparatorImpl4NameEv, symObjAddr: 0x80, symBinAddr: 0x7DB4, symSize: 0xC }
  - { offset: 0x3DBE0, size: 0x8, addend: 0x0, symName: __ZNK7leveldb12_GLOBAL__N_122BytewiseComparatorImpl21FindShortestSeparatorEPNSt3__112basic_stringIcNS2_11char_traitsIcEENS2_9allocatorIcEEEERKNS_5SliceE, symObjAddr: 0x8C, symBinAddr: 0x7DC0, symSize: 0x110 }
  - { offset: 0x3DE49, size: 0x8, addend: 0x0, symName: __ZNK7leveldb12_GLOBAL__N_122BytewiseComparatorImpl18FindShortSuccessorEPNSt3__112basic_stringIcNS2_11char_traitsIcEENS2_9allocatorIcEEEE, symObjAddr: 0x19C, symBinAddr: 0x7ED0, symSize: 0x6C }
  - { offset: 0x3DE54, size: 0x8, addend: 0x0, symName: __ZNK7leveldb12_GLOBAL__N_122BytewiseComparatorImpl21FindShortestSeparatorEPNSt3__112basic_stringIcNS2_11char_traitsIcEENS2_9allocatorIcEEEERKNS_5SliceE.cold.1, symObjAddr: 0x244, symBinAddr: 0x26B70, symSize: 0x28 }
  - { offset: 0x3DE6C, size: 0x8, addend: 0x0, symName: __ZNK7leveldb12_GLOBAL__N_122BytewiseComparatorImpl18FindShortSuccessorEPNSt3__112basic_stringIcNS2_11char_traitsIcEENS2_9allocatorIcEEEE, symObjAddr: 0x19C, symBinAddr: 0x7ED0, symSize: 0x6C }
  - { offset: 0x3FE93, size: 0x8, addend: 0x0, symName: __ZN7leveldb6crc32c6ExtendEjPKcm, symObjAddr: 0x0, symBinAddr: 0x7F3C, symSize: 0x2E0 }
  - { offset: 0x3FEAB, size: 0x8, addend: 0x0, symName: __ZN7leveldb6crc32c6ExtendEjPKcm, symObjAddr: 0x0, symBinAddr: 0x7F3C, symSize: 0x2E0 }
  - { offset: 0x4025A, size: 0x8, addend: 0x0, symName: __ZN7leveldb6crc32c12_GLOBAL__N_119kByteExtensionTableE, symObjAddr: 0x310, symBinAddr: 0x289C4, symSize: 0x0 }
  - { offset: 0x40274, size: 0x8, addend: 0x0, symName: __ZN7leveldb6crc32c12_GLOBAL__N_122kStrideExtensionTable3E, symObjAddr: 0x710, symBinAddr: 0x28DC4, symSize: 0x0 }
  - { offset: 0x4028E, size: 0x8, addend: 0x0, symName: __ZN7leveldb6crc32c12_GLOBAL__N_122kStrideExtensionTable2E, symObjAddr: 0xB10, symBinAddr: 0x291C4, symSize: 0x0 }
  - { offset: 0x402A8, size: 0x8, addend: 0x0, symName: __ZN7leveldb6crc32c12_GLOBAL__N_122kStrideExtensionTable1E, symObjAddr: 0xF10, symBinAddr: 0x295C4, symSize: 0x0 }
  - { offset: 0x402C2, size: 0x8, addend: 0x0, symName: __ZN7leveldb6crc32c12_GLOBAL__N_122kStrideExtensionTable0E, symObjAddr: 0x1310, symBinAddr: 0x299C4, symSize: 0x0 }
  - { offset: 0x4039D, size: 0x8, addend: 0x0, symName: __ZN7leveldb6crc32c6ExtendEjPKcm.cold.1, symObjAddr: 0x2E0, symBinAddr: 0x26B98, symSize: 0x30 }
  - { offset: 0x45627, size: 0x8, addend: 0x0, symName: __ZN7leveldb12_GLOBAL__N_120CleanupIteratorStateEPvS1_, symObjAddr: 0x3AE4, symBinAddr: 0xBCF0, symSize: 0x4C }
  - { offset: 0x45747, size: 0x8, addend: 0x0, symName: __ZN7leveldb15SanitizeOptionsERKNSt3__112basic_stringIcNS0_11char_traitsIcEENS0_9allocatorIcEEEEPKNS_21InternalKeyComparatorEPKNS_20InternalFilterPolicyERKNS_7OptionsE, symObjAddr: 0x0, symBinAddr: 0x821C, symSize: 0x218 }
  - { offset: 0x462A5, size: 0x8, addend: 0x0, symName: __ZN7leveldb9DestroyDBERKNSt3__112basic_stringIcNS0_11char_traitsIcEENS0_9allocatorIcEEEERKNS_7OptionsE, symObjAddr: 0x5168, symBinAddr: 0xD374, symSize: 0x364 }
  - { offset: 0x5B145, size: 0x8, addend: 0x0, symName: __ZNSt3__119__allocate_at_leastB8ne190102INS_9allocatorINS_12basic_stringIcNS_11char_traitsIcEENS1_IcEEEEEEEENS_19__allocation_resultINS_16allocator_traitsIT_E7pointerEEERSA_m, symObjAddr: 0x67B0, symBinAddr: 0xE850, symSize: 0x44 }
  - { offset: 0x5B1E2, size: 0x8, addend: 0x0, symName: __ZNSt3__114__split_bufferINS_12basic_stringIcNS_11char_traitsIcEENS_9allocatorIcEEEERNS4_IS6_EEED2Ev, symObjAddr: 0x67F4, symBinAddr: 0xE894, symSize: 0x34 }
  - { offset: 0x5B469, size: 0x8, addend: 0x0, symName: __ZNSt3__16__treeIyNS_4lessIyEENS_9allocatorIyEEE25__emplace_unique_key_argsIyJRKyEEENS_4pairINS_15__tree_iteratorIyPNS_11__tree_nodeIyPvEElEEbEERKT_DpOT0_, symObjAddr: 0x6DAC, symBinAddr: 0xEE04, symSize: 0xB8 }
  - { offset: 0x5B641, size: 0x8, addend: 0x0, symName: __ZNSt3__15dequeIPN7leveldb6DBImpl6WriterENS_9allocatorIS4_EEE19__add_back_capacityEv, symObjAddr: 0x726C, symBinAddr: 0xF268, symSize: 0x2F4 }
  - { offset: 0x5B773, size: 0x8, addend: 0x0, symName: __ZNSt3__119__allocate_at_leastB8ne190102INS_9allocatorINS_4pairIiN7leveldb12FileMetaDataEEEEEEENS_19__allocation_resultINS_16allocator_traitsIT_E7pointerEEERS9_m, symObjAddr: 0x5B10, symBinAddr: 0xDC58, symSize: 0x44 }
  - { offset: 0x5B810, size: 0x8, addend: 0x0, symName: __ZNSt3__134__uninitialized_allocator_relocateB8ne190102INS_9allocatorINS_4pairIiN7leveldb12FileMetaDataEEEEES5_EEvRT_PT0_SA_SA_, symObjAddr: 0x5B54, symBinAddr: 0xDC9C, symSize: 0xE4 }
  - { offset: 0x5B824, size: 0x8, addend: 0x0, symName: __ZNSt3__134__uninitialized_allocator_relocateB8ne190102INS_9allocatorINS_4pairIiN7leveldb12FileMetaDataEEEEES5_EEvRT_PT0_SA_SA_, symObjAddr: 0x5B54, symBinAddr: 0xDC9C, symSize: 0xE4 }
  - { offset: 0x5BD2B, size: 0x8, addend: 0x0, symName: __ZNSt3__127__tree_balance_after_insertB8ne190102IPNS_16__tree_node_baseIPvEEEEvT_S5_, symObjAddr: 0x5F78, symBinAddr: 0xE0C0, symSize: 0x19C }
  - { offset: 0x5C243, size: 0x8, addend: 0x0, symName: __ZNSt3__113__tree_removeB8ne190102IPNS_16__tree_node_baseIPvEEEEvT_S5_, symObjAddr: 0x69E4, symBinAddr: 0xEA84, symSize: 0x380 }
  - { offset: 0x5C78D, size: 0x8, addend: 0x0, symName: __ZNSt3__119__allocate_at_leastB8ne190102INS_9allocatorIN7leveldb6DBImpl15CompactionState6OutputEEEEENS_19__allocation_resultINS_16allocator_traitsIT_E7pointerEEERS9_m, symObjAddr: 0x7024, symBinAddr: 0xF068, symSize: 0x34 }
  - { offset: 0x5C82A, size: 0x8, addend: 0x0, symName: __ZNSt3__134__uninitialized_allocator_relocateB8ne190102INS_9allocatorIN7leveldb6DBImpl15CompactionState6OutputEEES5_EEvRT_PT0_SA_SA_, symObjAddr: 0x7058, symBinAddr: 0xF09C, symSize: 0xD4 }
  - { offset: 0x5C83E, size: 0x8, addend: 0x0, symName: __ZNSt3__134__uninitialized_allocator_relocateB8ne190102INS_9allocatorIN7leveldb6DBImpl15CompactionState6OutputEEES5_EEvRT_PT0_SA_SA_, symObjAddr: 0x7058, symBinAddr: 0xF09C, symSize: 0xD4 }
  - { offset: 0x5D4A6, size: 0x8, addend: 0x0, symName: __ZNSt3__15dequeIPN7leveldb6DBImpl6WriterENS_9allocatorIS4_EEE26__maybe_remove_front_spareB8ne190102Eb, symObjAddr: 0x79B0, symBinAddr: 0xF978, symSize: 0x5C }
  - { offset: 0x604C0, size: 0x8, addend: 0x0, symName: __ZN7leveldb6DBImplC2ERKNS_7OptionsERKNSt3__112basic_stringIcNS4_11char_traitsIcEENS4_9allocatorIcEEEE, symObjAddr: 0x218, symBinAddr: 0x8434, symSize: 0x298 }
  - { offset: 0x60B3B, size: 0x8, addend: 0x0, symName: __ZNSt3__112basic_stringIcNS_11char_traitsIcEENS_9allocatorIcEEE25__init_copy_ctor_externalEPKcm, symObjAddr: 0x6214, symBinAddr: 0xE35C, symSize: 0x84 }
  - { offset: 0x60D07, size: 0x8, addend: 0x0, symName: __ZNSt3__15dequeIPN7leveldb6DBImpl6WriterENS_9allocatorIS4_EEED2B8ne190102Ev, symObjAddr: 0x6298, symBinAddr: 0xE3E0, symSize: 0x98 }
  - { offset: 0x60D19, size: 0x8, addend: 0x0, symName: __ZN7leveldb4port7CondVarC2EPNS0_5MutexE, symObjAddr: 0x54CC, symBinAddr: 0xD6D8, symSize: 0x78 }
  - { offset: 0x60E60, size: 0x8, addend: 0x0, symName: __ZNSt3__15dequeIPN7leveldb6DBImpl6WriterENS_9allocatorIS4_EEED2B8ne190102Ev, symObjAddr: 0x6298, symBinAddr: 0xE3E0, symSize: 0x98 }
  - { offset: 0x61155, size: 0x8, addend: 0x0, symName: __ZN7leveldb2DBD2Ev, symObjAddr: 0x4B0, symBinAddr: 0x86CC, symSize: 0x4 }
  - { offset: 0x6117F, size: 0x8, addend: 0x0, symName: __ZN7leveldb6DBImplC1ERKNS_7OptionsERKNSt3__112basic_stringIcNS4_11char_traitsIcEENS4_9allocatorIcEEEE, symObjAddr: 0x4B4, symBinAddr: 0x86D0, symSize: 0x4 }
  - { offset: 0x611AF, size: 0x8, addend: 0x0, symName: __ZN7leveldb6DBImplC1ERKNS_7OptionsERKNSt3__112basic_stringIcNS4_11char_traitsIcEENS4_9allocatorIcEEEE, symObjAddr: 0x4B4, symBinAddr: 0x86D0, symSize: 0x4 }
  - { offset: 0x6129B, size: 0x8, addend: 0x0, symName: __ZN7leveldb6DBImplD2Ev, symObjAddr: 0x4B8, symBinAddr: 0x86D4, symSize: 0x1B0 }
  - { offset: 0x616ED, size: 0x8, addend: 0x0, symName: __ZN7leveldb8MemTable5UnrefEv, symObjAddr: 0x678, symBinAddr: 0x8884, symSize: 0x3C }
  - { offset: 0x61715, size: 0x8, addend: 0x0, symName: __ZN7leveldb6DBImplD1Ev, symObjAddr: 0x6B4, symBinAddr: 0x88C0, symSize: 0x4 }
  - { offset: 0x61720, size: 0x8, addend: 0x0, symName: __ZN7leveldb8MemTable5UnrefEv.cold.1, symObjAddr: 0x7A0C, symBinAddr: 0x26BC8, symSize: 0x28 }
  - { offset: 0x61737, size: 0x8, addend: 0x0, symName: __ZN7leveldb6DBImplD1Ev, symObjAddr: 0x6B4, symBinAddr: 0x88C0, symSize: 0x4 }
  - { offset: 0x61759, size: 0x8, addend: 0x0, symName: __ZN7leveldb6DBImplD1Ev, symObjAddr: 0x6B4, symBinAddr: 0x88C0, symSize: 0x4 }
  - { offset: 0x61785, size: 0x8, addend: 0x0, symName: __ZN7leveldb6DBImplD0Ev, symObjAddr: 0x6B8, symBinAddr: 0x88C4, symSize: 0x14 }
  - { offset: 0x61A42, size: 0x8, addend: 0x0, symName: __ZN7leveldb6DBImpl5NewDBEv, symObjAddr: 0x6CC, symBinAddr: 0x88D8, symSize: 0x25C }
  - { offset: 0x6258A, size: 0x8, addend: 0x0, symName: __ZN7leveldb11VersionEditC2Ev, symObjAddr: 0x554C, symBinAddr: 0xD758, symSize: 0xB8 }
  - { offset: 0x62A67, size: 0x8, addend: 0x0, symName: __ZN7leveldb11VersionEdit17SetComparatorNameERKNS_5SliceE, symObjAddr: 0x928, symBinAddr: 0x8B34, symSize: 0x5C }
  - { offset: 0x62C23, size: 0x8, addend: 0x0, symName: __ZN7leveldb11VersionEditD2Ev, symObjAddr: 0x5918, symBinAddr: 0xDA74, symSize: 0x64 }
  - { offset: 0x62F9E, size: 0x8, addend: 0x0, symName: __ZNSt3__112basic_stringIcNS_11char_traitsIcEENS_9allocatorIcEEEC2B8ne190102EPKcm, symObjAddr: 0x57C8, symBinAddr: 0xD9D4, symSize: 0xA0 }
  - { offset: 0x631DE, size: 0x8, addend: 0x0, symName: __ZNK7leveldb6DBImpl16MaybeIgnoreErrorEPNS_6StatusE, symObjAddr: 0x984, symBinAddr: 0x8B90, symSize: 0xB0 }
  - { offset: 0x63B9A, size: 0x8, addend: 0x0, symName: __ZN7leveldb6DBImpl19RemoveObsoleteFilesEv, symObjAddr: 0xA34, symBinAddr: 0x8C40, symSize: 0x4B4 }
  - { offset: 0x65125, size: 0x8, addend: 0x0, symName: __ZNSt3__13setIyNS_4lessIyEENS_9allocatorIyEEEC2B8ne190102ERKS5_, symObjAddr: 0x63BC, symBinAddr: 0xE4C4, symSize: 0x54 }
  - { offset: 0x652D1, size: 0x8, addend: 0x0, symName: __ZNSt3__114__split_bufferINS_12basic_stringIcNS_11char_traitsIcEENS_9allocatorIcEEEERNS4_IS6_EEED2Ev, symObjAddr: 0x67F4, symBinAddr: 0xE894, symSize: 0x34 }
  - { offset: 0x653C5, size: 0x8, addend: 0x0, symName: __ZNSt3__112basic_stringIcNS_11char_traitsIcEENS_9allocatorIcEEEC2B8ne190102ENS_24__uninitialized_size_tagEmRKS4_, symObjAddr: 0x687C, symBinAddr: 0xE91C, symSize: 0x7C }
  - { offset: 0x6555C, size: 0x8, addend: 0x0, symName: __ZNSt3__16__treeIyNS_4lessIyEENS_9allocatorIyEEE14__erase_uniqueIyEEmRKT_, symObjAddr: 0x68F8, symBinAddr: 0xE998, symSize: 0x7C }
  - { offset: 0x6556E, size: 0x8, addend: 0x0, symName: __ZNSt3__16vectorINS_12basic_stringIcNS_11char_traitsIcEENS_9allocatorIcEEEENS4_IS6_EEE16__destroy_vectorclB8ne190102Ev, symObjAddr: 0x6710, symBinAddr: 0xE7C4, symSize: 0x40 }
  - { offset: 0x6564D, size: 0x8, addend: 0x0, symName: __ZNSt3__119__allocate_at_leastB8ne190102INS_9allocatorINS_12basic_stringIcNS_11char_traitsIcEENS1_IcEEEEEEEENS_19__allocation_resultINS_16allocator_traitsIT_E7pointerEEERSA_m, symObjAddr: 0x67B0, symBinAddr: 0xE850, symSize: 0x44 }
  - { offset: 0x65B91, size: 0x8, addend: 0x0, symName: __ZN7leveldb6DBImpl7RecoverEPNS_11VersionEditEPb, symObjAddr: 0xEE8, symBinAddr: 0x90F4, symSize: 0x658 }
  - { offset: 0x679B2, size: 0x8, addend: 0x0, symName: __ZNSt3__16__treeIyNS_4lessIyEENS_9allocatorIyEEE14__erase_uniqueIyEEmRKT_, symObjAddr: 0x68F8, symBinAddr: 0xE998, symSize: 0x7C }
  - { offset: 0x679FC, size: 0x8, addend: 0x0, symName: __ZNSt3__16__treeIyNS_4lessIyEENS_9allocatorIyEEE14__erase_uniqueIyEEmRKT_, symObjAddr: 0x68F8, symBinAddr: 0xE998, symSize: 0x7C }
  - { offset: 0x67A2A, size: 0x8, addend: 0x0, symName: __ZNSt3__16__treeIyNS_4lessIyEENS_9allocatorIyEEE14__erase_uniqueIyEEmRKT_, symObjAddr: 0x68F8, symBinAddr: 0xE998, symSize: 0x7C }
  - { offset: 0x67BE9, size: 0x8, addend: 0x0, symName: __ZN7leveldb6DBImpl14RecoverLogFileEybPbPNS_11VersionEditEPy, symObjAddr: 0x1540, symBinAddr: 0x974C, symSize: 0x588 }
  - { offset: 0x68B68, size: 0x8, addend: 0x0, symName: __ZN7leveldb6DBImpl7RecoverEPNS_11VersionEditEPb.cold.1, symObjAddr: 0x7A34, symBinAddr: 0x26BF0, symSize: 0x28 }
  - { offset: 0x68CA0, size: 0x8, addend: 0x0, symName: __ZZN7leveldb6DBImpl14RecoverLogFileEybPbPNS_11VersionEditEPyEN11LogReporter10CorruptionEmRKNS_6StatusE, symObjAddr: 0x1AC8, symBinAddr: 0x9CD4, symSize: 0xE8 }
  - { offset: 0x69005, size: 0x8, addend: 0x0, symName: __ZN7leveldb6DBImpl16WriteLevel0TableEPNS_8MemTableEPNS_11VersionEditEPNS_7VersionE, symObjAddr: 0x1BB0, symBinAddr: 0x9DBC, symSize: 0x2A4 }
  - { offset: 0x69C0C, size: 0x8, addend: 0x0, symName: __ZNSt3__16__treeIyNS_4lessIyEENS_9allocatorIyEEE25__emplace_unique_key_argsIyJRKyEEENS_4pairINS_15__tree_iteratorIyPNS_11__tree_nodeIyPvEElEEbEERKT_DpOT0_, symObjAddr: 0x6DAC, symBinAddr: 0xEE04, symSize: 0xB8 }
  - { offset: 0x69E82, size: 0x8, addend: 0x0, symName: __ZNK7leveldb11InternalKey8user_keyEv, symObjAddr: 0x1E58, symBinAddr: 0xA064, symSize: 0x3C }
  - { offset: 0x69EF7, size: 0x8, addend: 0x0, symName: __ZNK7leveldb11InternalKey8user_keyEv, symObjAddr: 0x1E58, symBinAddr: 0xA064, symSize: 0x3C }
  - { offset: 0x69F41, size: 0x8, addend: 0x0, symName: __ZN7leveldb11VersionEdit7AddFileEiyyRKNS_11InternalKeyES3_, symObjAddr: 0x1E94, symBinAddr: 0xA0A0, symSize: 0x154 }
  - { offset: 0x69F4C, size: 0x8, addend: 0x0, symName: __ZN7leveldb11VersionEdit7AddFileEiyyRKNS_11InternalKeyES3_, symObjAddr: 0x1E94, symBinAddr: 0xA0A0, symSize: 0x154 }
  - { offset: 0x6A922, size: 0x8, addend: 0x0, symName: __ZN7leveldb12FileMetaDataD1Ev, symObjAddr: 0x1FE8, symBinAddr: 0xA1F4, symSize: 0x40 }
  - { offset: 0x6AC1D, size: 0x8, addend: 0x0, symName: __ZZN7leveldb6DBImpl14RecoverLogFileEybPbPNS_11VersionEditEPyEN11LogReporterD1Ev, symObjAddr: 0x1E54, symBinAddr: 0xA060, symSize: 0x4 }
  - { offset: 0x6AC3F, size: 0x8, addend: 0x0, symName: __ZZN7leveldb6DBImpl14RecoverLogFileEybPbPNS_11VersionEditEPyEN11LogReporterD1Ev, symObjAddr: 0x1E54, symBinAddr: 0xA060, symSize: 0x4 }
  - { offset: 0x6AC5A, size: 0x8, addend: 0x0, symName: __ZNK7leveldb11InternalKey8user_keyEv.cold.1, symObjAddr: 0x7A5C, symBinAddr: 0x26C18, symSize: 0x28 }
  - { offset: 0x6AEF9, size: 0x8, addend: 0x0, symName: __ZNSt3__14pairIiN7leveldb12FileMetaDataEEC2B8ne190102IRiRS2_Li0EEEOT_OT0_, symObjAddr: 0x5D30, symBinAddr: 0xDE78, symSize: 0xA8 }
  - { offset: 0x6B192, size: 0x8, addend: 0x0, symName: __ZNSt3__16vectorINS_4pairIiN7leveldb12FileMetaDataEEENS_9allocatorIS4_EEE21__push_back_slow_pathIS4_EEPS4_OT_, symObjAddr: 0x5990, symBinAddr: 0xDAEC, symSize: 0x16C }
  - { offset: 0x6B697, size: 0x8, addend: 0x0, symName: __ZNSt3__14pairIiN7leveldb12FileMetaDataEED1Ev, symObjAddr: 0x56BC, symBinAddr: 0xD8C8, symSize: 0x40 }
  - { offset: 0x6BA4D, size: 0x8, addend: 0x0, symName: __ZN7leveldb6DBImpl15CompactMemTableEv, symObjAddr: 0x2028, symBinAddr: 0xA234, symSize: 0x17C }
  - { offset: 0x6BF4F, size: 0x8, addend: 0x0, symName: __ZN7leveldb6DBImpl21RecordBackgroundErrorERKNS_6StatusE, symObjAddr: 0x21A4, symBinAddr: 0xA3B0, symSize: 0x3C }
  - { offset: 0x6BF8B, size: 0x8, addend: 0x0, symName: __ZN7leveldb6DBImpl21RecordBackgroundErrorERKNS_6StatusE, symObjAddr: 0x21A4, symBinAddr: 0xA3B0, symSize: 0x3C }
  - { offset: 0x6BFE7, size: 0x8, addend: 0x0, symName: __ZN7leveldb6DBImpl15CompactMemTableEv.cold.1, symObjAddr: 0x7A84, symBinAddr: 0x26C40, symSize: 0x28 }
  - { offset: 0x6C08E, size: 0x8, addend: 0x0, symName: __ZN7leveldb6DBImpl12CompactRangeEPKNS_5SliceES3_, symObjAddr: 0x21E0, symBinAddr: 0xA3EC, symSize: 0xDC }
  - { offset: 0x6C2A4, size: 0x8, addend: 0x0, symName: __ZN7leveldb6DBImpl20TEST_CompactMemTableEv, symObjAddr: 0x22BC, symBinAddr: 0xA4C8, symSize: 0xEC }
  - { offset: 0x6C510, size: 0x8, addend: 0x0, symName: __ZN7leveldb6DBImpl17TEST_CompactRangeEiPKNS_5SliceES3_, symObjAddr: 0x23A8, symBinAddr: 0xA5B4, symSize: 0x1E4 }
  - { offset: 0x6D60D, size: 0x8, addend: 0x0, symName: __ZN7leveldb11InternalKeyC2ERKNS_5SliceEyNS_9ValueTypeE, symObjAddr: 0x5DD8, symBinAddr: 0xDF20, symSize: 0x64 }
  - { offset: 0x6D86A, size: 0x8, addend: 0x0, symName: __ZN7leveldb6DBImpl23MaybeScheduleCompactionEv, symObjAddr: 0x258C, symBinAddr: 0xA798, symSize: 0x74 }
  - { offset: 0x6D92C, size: 0x8, addend: 0x0, symName: __ZN7leveldb6DBImpl17TEST_CompactRangeEiPKNS_5SliceES3_.cold.2, symObjAddr: 0x7AD4, symBinAddr: 0x26C90, symSize: 0x28 }
  - { offset: 0x6D944, size: 0x8, addend: 0x0, symName: __ZN7leveldb6DBImpl17TEST_CompactRangeEiPKNS_5SliceES3_.cold.1, symObjAddr: 0x7AAC, symBinAddr: 0x26C68, symSize: 0x28 }
  - { offset: 0x6D97B, size: 0x8, addend: 0x0, symName: __ZN7leveldb6DBImpl6BGWorkEPv, symObjAddr: 0x2600, symBinAddr: 0xA80C, symSize: 0x4 }
  - { offset: 0x6D9A4, size: 0x8, addend: 0x0, symName: __ZN7leveldb6DBImpl6BGWorkEPv, symObjAddr: 0x2600, symBinAddr: 0xA80C, symSize: 0x4 }
  - { offset: 0x6D9B7, size: 0x8, addend: 0x0, symName: __ZN7leveldb6DBImpl14BackgroundCallEv, symObjAddr: 0x2604, symBinAddr: 0xA810, symSize: 0x98 }
  - { offset: 0x6DB63, size: 0x8, addend: 0x0, symName: __ZN7leveldb6DBImpl20BackgroundCompactionEv, symObjAddr: 0x269C, symBinAddr: 0xA8A8, symSize: 0x55C }
  - { offset: 0x6F50C, size: 0x8, addend: 0x0, symName: __ZNSt3__16__treeINS_4pairIiyEENS_4lessIS2_EENS_9allocatorIS2_EEE25__emplace_unique_key_argsIS2_JS2_EEENS1_INS_15__tree_iteratorIS2_PNS_11__tree_nodeIS2_PvEElEEbEERKT_DpOT0_, symObjAddr: 0x5E3C, symBinAddr: 0xDF84, symSize: 0x80 }
  - { offset: 0x6F728, size: 0x8, addend: 0x0, symName: __ZN7leveldb6DBImpl16DoCompactionWorkEPNS0_15CompactionStateE, symObjAddr: 0x2BF8, symBinAddr: 0xAE04, symSize: 0x6A8 }
  - { offset: 0x7093D, size: 0x8, addend: 0x0, symName: __ZN7leveldb6DBImpl17CleanupCompactionEPNS0_15CompactionStateE, symObjAddr: 0x32A0, symBinAddr: 0xB4AC, symSize: 0xC8 }
  - { offset: 0x70AEC, size: 0x8, addend: 0x0, symName: __ZN7leveldb6DBImpl24OpenCompactionOutputFileEPNS0_15CompactionStateE, symObjAddr: 0x3368, symBinAddr: 0xB574, symSize: 0x1B0 }
  - { offset: 0x70C51, size: 0x8, addend: 0x0, symName: __ZN7leveldb6DBImpl26FinishCompactionOutputFileEPNS0_15CompactionStateEPNS_8IteratorE, symObjAddr: 0x3558, symBinAddr: 0xB764, symSize: 0x244 }
  - { offset: 0x71156, size: 0x8, addend: 0x0, symName: __ZN7leveldb6DBImpl24OpenCompactionOutputFileEPNS0_15CompactionStateE, symObjAddr: 0x3368, symBinAddr: 0xB574, symSize: 0x1B0 }
  - { offset: 0x71B4E, size: 0x8, addend: 0x0, symName: __ZN7leveldb6DBImpl24InstallCompactionResultsEPNS0_15CompactionStateE, symObjAddr: 0x379C, symBinAddr: 0xB9A8, symSize: 0xF4 }
  - { offset: 0x71D05, size: 0x8, addend: 0x0, symName: __ZN7leveldb6DBImpl16DoCompactionWorkEPNS0_15CompactionStateE.cold.3, symObjAddr: 0x7B4C, symBinAddr: 0x26D08, symSize: 0x28 }
  - { offset: 0x71D1D, size: 0x8, addend: 0x0, symName: __ZN7leveldb6DBImpl16DoCompactionWorkEPNS0_15CompactionStateE.cold.1, symObjAddr: 0x7AFC, symBinAddr: 0x26CB8, symSize: 0x28 }
  - { offset: 0x71D35, size: 0x8, addend: 0x0, symName: __ZN7leveldb6DBImpl16DoCompactionWorkEPNS0_15CompactionStateE.cold.2, symObjAddr: 0x7B24, symBinAddr: 0x26CE0, symSize: 0x28 }
  - { offset: 0x71DFE, size: 0x8, addend: 0x0, symName: __ZNSt3__16vectorIN7leveldb6DBImpl15CompactionState6OutputENS_9allocatorIS4_EEE16__destroy_vectorclB8ne190102Ev, symObjAddr: 0x6114, symBinAddr: 0xE25C, symSize: 0x74 }
  - { offset: 0x71F31, size: 0x8, addend: 0x0, symName: __ZN7leveldb6DBImpl17CleanupCompactionEPNS0_15CompactionStateE.cold.1, symObjAddr: 0x7B74, symBinAddr: 0x26D30, symSize: 0x28 }
  - { offset: 0x720C2, size: 0x8, addend: 0x0, symName: __ZNSt3__19allocatorIN7leveldb6DBImpl15CompactionState6OutputEE9constructB8ne190102IS4_JRKS4_EEEvPT_DpOT0_, symObjAddr: 0x6F7C, symBinAddr: 0xEFD4, symSize: 0x94 }
  - { offset: 0x72353, size: 0x8, addend: 0x0, symName: __ZNSt3__16vectorIN7leveldb6DBImpl15CompactionState6OutputENS_9allocatorIS4_EEE21__push_back_slow_pathIRKS4_EEPS4_OT_, symObjAddr: 0x6E64, symBinAddr: 0xEEBC, symSize: 0x118 }
  - { offset: 0x72679, size: 0x8, addend: 0x0, symName: __ZN7leveldb6DBImpl24OpenCompactionOutputFileEPNS0_15CompactionStateE.cold.2, symObjAddr: 0x7BC4, symBinAddr: 0x26D80, symSize: 0x28 }
  - { offset: 0x72691, size: 0x8, addend: 0x0, symName: __ZN7leveldb6DBImpl24OpenCompactionOutputFileEPNS0_15CompactionStateE.cold.1, symObjAddr: 0x7B9C, symBinAddr: 0x26D58, symSize: 0x28 }
  - { offset: 0x726A9, size: 0x8, addend: 0x0, symName: __ZN7leveldb6DBImpl15CompactionState6OutputD1Ev, symObjAddr: 0x3518, symBinAddr: 0xB724, symSize: 0x40 }
  - { offset: 0x729DA, size: 0x8, addend: 0x0, symName: __ZN7leveldb6DBImpl26FinishCompactionOutputFileEPNS0_15CompactionStateEPNS_8IteratorE.cold.4, symObjAddr: 0x7C64, symBinAddr: 0x26E20, symSize: 0x28 }
  - { offset: 0x729F2, size: 0x8, addend: 0x0, symName: __ZN7leveldb6DBImpl26FinishCompactionOutputFileEPNS0_15CompactionStateEPNS_8IteratorE.cold.3, symObjAddr: 0x7C3C, symBinAddr: 0x26DF8, symSize: 0x28 }
  - { offset: 0x72A0A, size: 0x8, addend: 0x0, symName: __ZN7leveldb6DBImpl26FinishCompactionOutputFileEPNS0_15CompactionStateEPNS_8IteratorE.cold.2, symObjAddr: 0x7C14, symBinAddr: 0x26DD0, symSize: 0x28 }
  - { offset: 0x72A22, size: 0x8, addend: 0x0, symName: __ZN7leveldb6DBImpl26FinishCompactionOutputFileEPNS0_15CompactionStateEPNS_8IteratorE.cold.1, symObjAddr: 0x7BEC, symBinAddr: 0x26DA8, symSize: 0x28 }
  - { offset: 0x72EB1, size: 0x8, addend: 0x0, symName: __ZN7leveldb6DBImpl19NewInternalIteratorERKNS_11ReadOptionsEPyPj, symObjAddr: 0x3890, symBinAddr: 0xBA9C, symSize: 0x254 }
  - { offset: 0x73915, size: 0x8, addend: 0x0, symName: __ZN7leveldb6DBImpl24TEST_NewInternalIteratorEv, symObjAddr: 0x3B30, symBinAddr: 0xBD3C, symSize: 0x34 }
  - { offset: 0x739C0, size: 0x8, addend: 0x0, symName: __ZN7leveldb6DBImpl33TEST_MaxNextLevelOverlappingBytesEv, symObjAddr: 0x3B64, symBinAddr: 0xBD70, symSize: 0x50 }
  - { offset: 0x73AEE, size: 0x8, addend: 0x0, symName: __ZN7leveldb6DBImpl3GetERKNS_11ReadOptionsERKNS_5SliceEPNSt3__112basic_stringIcNS7_11char_traitsIcEENS7_9allocatorIcEEEE, symObjAddr: 0x3BB4, symBinAddr: 0xBDC0, symSize: 0x218 }
  - { offset: 0x73F01, size: 0x8, addend: 0x0, symName: __ZN7leveldb6DBImpl11NewIteratorERKNS_11ReadOptionsE, symObjAddr: 0x3DCC, symBinAddr: 0xBFD8, symSize: 0x64 }
  - { offset: 0x73FDE, size: 0x8, addend: 0x0, symName: __ZN7leveldb6DBImpl16RecordReadSampleENS_5SliceE, symObjAddr: 0x3E30, symBinAddr: 0xC03C, symSize: 0x6C }
  - { offset: 0x74110, size: 0x8, addend: 0x0, symName: __ZN7leveldb6DBImpl11GetSnapshotEv, symObjAddr: 0x3E9C, symBinAddr: 0xC0A8, symSize: 0x58 }
  - { offset: 0x74237, size: 0x8, addend: 0x0, symName: __ZN7leveldb12SnapshotList3NewEy, symObjAddr: 0x3EF4, symBinAddr: 0xC100, symSize: 0x6C }
  - { offset: 0x742EB, size: 0x8, addend: 0x0, symName: __ZN7leveldb6DBImpl15ReleaseSnapshotEPKNS_8SnapshotE, symObjAddr: 0x3F60, symBinAddr: 0xC16C, symSize: 0x4C }
  - { offset: 0x7430A, size: 0x8, addend: 0x0, symName: __ZN7leveldb12SnapshotList3NewEy.cold.1, symObjAddr: 0x7C8C, symBinAddr: 0x26E48, symSize: 0x28 }
  - { offset: 0x74322, size: 0x8, addend: 0x0, symName: __ZN7leveldb6DBImpl15ReleaseSnapshotEPKNS_8SnapshotE, symObjAddr: 0x3F60, symBinAddr: 0xC16C, symSize: 0x4C }
  - { offset: 0x74443, size: 0x8, addend: 0x0, symName: __ZN7leveldb12SnapshotList6DeleteEPKNS_12SnapshotImplE, symObjAddr: 0x3FAC, symBinAddr: 0xC1B8, symSize: 0x34 }
  - { offset: 0x74486, size: 0x8, addend: 0x0, symName: __ZN7leveldb6DBImpl3PutERKNS_12WriteOptionsERKNS_5SliceES6_, symObjAddr: 0x3FE0, symBinAddr: 0xC1EC, symSize: 0x4 }
  - { offset: 0x74491, size: 0x8, addend: 0x0, symName: __ZN7leveldb12SnapshotList6DeleteEPKNS_12SnapshotImplE.cold.1, symObjAddr: 0x7CB4, symBinAddr: 0x26E70, symSize: 0x28 }
  - { offset: 0x744A9, size: 0x8, addend: 0x0, symName: __ZN7leveldb6DBImpl3PutERKNS_12WriteOptionsERKNS_5SliceES6_, symObjAddr: 0x3FE0, symBinAddr: 0xC1EC, symSize: 0x4 }
  - { offset: 0x744FF, size: 0x8, addend: 0x0, symName: __ZN7leveldb6DBImpl3PutERKNS_12WriteOptionsERKNS_5SliceES6_, symObjAddr: 0x3FE0, symBinAddr: 0xC1EC, symSize: 0x4 }
  - { offset: 0x7452E, size: 0x8, addend: 0x0, symName: __ZN7leveldb2DB3PutERKNS_12WriteOptionsERKNS_5SliceES6_, symObjAddr: 0x3FE4, symBinAddr: 0xC1F0, symSize: 0x94 }
  - { offset: 0x745BF, size: 0x8, addend: 0x0, symName: __ZN7leveldb6DBImpl6DeleteERKNS_12WriteOptionsERKNS_5SliceE, symObjAddr: 0x4078, symBinAddr: 0xC284, symSize: 0x4 }
  - { offset: 0x74606, size: 0x8, addend: 0x0, symName: __ZN7leveldb6DBImpl6DeleteERKNS_12WriteOptionsERKNS_5SliceE, symObjAddr: 0x4078, symBinAddr: 0xC284, symSize: 0x4 }
  - { offset: 0x7462E, size: 0x8, addend: 0x0, symName: __ZN7leveldb2DB6DeleteERKNS_12WriteOptionsERKNS_5SliceE, symObjAddr: 0x407C, symBinAddr: 0xC288, symSize: 0x84 }
  - { offset: 0x74810, size: 0x8, addend: 0x0, symName: __ZN7leveldb6DBImpl5WriteERKNS_12WriteOptionsEPNS_10WriteBatchE, symObjAddr: 0x4100, symBinAddr: 0xC30C, symSize: 0x3C8 }
  - { offset: 0x74F58, size: 0x8, addend: 0x0, symName: __ZN7leveldb6DBImpl6WriterC2EPNS_4port5MutexE, symObjAddr: 0x61CC, symBinAddr: 0xE314, symSize: 0x48 }
  - { offset: 0x74FFA, size: 0x8, addend: 0x0, symName: __ZNSt3__15dequeIPN7leveldb6DBImpl6WriterENS_9allocatorIS4_EEE9push_backEOS4_, symObjAddr: 0x44C8, symBinAddr: 0xC6D4, symSize: 0x84 }
  - { offset: 0x7513E, size: 0x8, addend: 0x0, symName: __ZN7leveldb6DBImpl16MakeRoomForWriteEb, symObjAddr: 0x454C, symBinAddr: 0xC758, symSize: 0x2DC }
  - { offset: 0x7569A, size: 0x8, addend: 0x0, symName: __ZN7leveldb6DBImpl15BuildBatchGroupEPPNS0_6WriterE, symObjAddr: 0x4828, symBinAddr: 0xCA34, symSize: 0x18C }
  - { offset: 0x75965, size: 0x8, addend: 0x0, symName: __ZN7leveldb6DBImpl6WriterD1Ev, symObjAddr: 0x49B4, symBinAddr: 0xCBC0, symSize: 0x34 }
  - { offset: 0x75970, size: 0x8, addend: 0x0, symName: __ZNSt3__15dequeIPN7leveldb6DBImpl6WriterENS_9allocatorIS4_EEE26__maybe_remove_front_spareB8ne190102Eb, symObjAddr: 0x79B0, symBinAddr: 0xF978, symSize: 0x5C }
  - { offset: 0x75B2F, size: 0x8, addend: 0x0, symName: __ZN7leveldb6DBImpl6WriterD1Ev, symObjAddr: 0x49B4, symBinAddr: 0xCBC0, symSize: 0x34 }
  - { offset: 0x75CC9, size: 0x8, addend: 0x0, symName: __ZNSt3__15dequeIPN7leveldb6DBImpl6WriterENS_9allocatorIS4_EEE19__add_back_capacityEv, symObjAddr: 0x726C, symBinAddr: 0xF268, symSize: 0x2F4 }
  - { offset: 0x769AB, size: 0x8, addend: 0x0, symName: __ZN7leveldb6DBImpl16MakeRoomForWriteEb.cold.1, symObjAddr: 0x7CDC, symBinAddr: 0x26E98, symSize: 0x28 }
  - { offset: 0x76A22, size: 0x8, addend: 0x0, symName: __ZN7leveldb6DBImpl15BuildBatchGroupEPPNS0_6WriterE.cold.1, symObjAddr: 0x7D04, symBinAddr: 0x26EC0, symSize: 0x28 }
  - { offset: 0x76A3A, size: 0x8, addend: 0x0, symName: __ZN7leveldb6DBImpl15BuildBatchGroupEPPNS0_6WriterE.cold.3, symObjAddr: 0x7D54, symBinAddr: 0x26F10, symSize: 0x28 }
  - { offset: 0x76A52, size: 0x8, addend: 0x0, symName: __ZN7leveldb6DBImpl15BuildBatchGroupEPPNS0_6WriterE.cold.2, symObjAddr: 0x7D2C, symBinAddr: 0x26EE8, symSize: 0x28 }
  - { offset: 0x76ADC, size: 0x8, addend: 0x0, symName: __ZN7leveldb6DBImpl11GetPropertyERKNS_5SliceEPNSt3__112basic_stringIcNS4_11char_traitsIcEENS4_9allocatorIcEEEE, symObjAddr: 0x49E8, symBinAddr: 0xCBF4, symSize: 0x394 }
  - { offset: 0x770D8, size: 0x8, addend: 0x0, symName: __ZN7leveldb6DBImpl19GetApproximateSizesEPKNS_5RangeEiPy, symObjAddr: 0x4D7C, symBinAddr: 0xCF88, symSize: 0x148 }
  - { offset: 0x7788F, size: 0x8, addend: 0x0, symName: __ZN7leveldb2DBD1Ev, symObjAddr: 0x4EC4, symBinAddr: 0xD0D0, symSize: 0x4 }
  - { offset: 0x778B8, size: 0x8, addend: 0x0, symName: __ZN7leveldb2DBD0Ev, symObjAddr: 0x4EC8, symBinAddr: 0xD0D4, symSize: 0x4 }
  - { offset: 0x77911, size: 0x8, addend: 0x0, symName: __ZN7leveldb2DB4OpenERKNS_7OptionsERKNSt3__112basic_stringIcNS4_11char_traitsIcEENS4_9allocatorIcEEEEPPS0_, symObjAddr: 0x4ECC, symBinAddr: 0xD0D8, symSize: 0x290 }
  - { offset: 0x77FAD, size: 0x8, addend: 0x0, symName: __ZN7leveldb8SnapshotD2Ev, symObjAddr: 0x515C, symBinAddr: 0xD368, symSize: 0x4 }
  - { offset: 0x77FD8, size: 0x8, addend: 0x0, symName: __ZN7leveldb8SnapshotD1Ev, symObjAddr: 0x5160, symBinAddr: 0xD36C, symSize: 0x4 }
  - { offset: 0x78003, size: 0x8, addend: 0x0, symName: __ZN7leveldb8SnapshotD0Ev, symObjAddr: 0x5164, symBinAddr: 0xD370, symSize: 0x4 }
  - { offset: 0x78084, size: 0x8, addend: 0x0, symName: __ZN7leveldb12SnapshotImplD1Ev, symObjAddr: 0x5544, symBinAddr: 0xD750, symSize: 0x4 }
  - { offset: 0x780AD, size: 0x8, addend: 0x0, symName: __ZN7leveldb12SnapshotImplD0Ev, symObjAddr: 0x5548, symBinAddr: 0xD754, symSize: 0x4 }
  - { offset: 0x783AF, size: 0x8, addend: 0x0, symName: __ZNSt3__16vectorINS_4pairIiN7leveldb12FileMetaDataEEENS_9allocatorIS4_EEE16__destroy_vectorclB8ne190102Ev, symObjAddr: 0x5604, symBinAddr: 0xD810, symSize: 0x74 }
  - { offset: 0x784E2, size: 0x8, addend: 0x0, symName: __ZNSt3__16__treeINS_4pairIiyEENS_4lessIS2_EENS_9allocatorIS2_EEE7destroyEPNS_11__tree_nodeIS2_PvEE, symObjAddr: 0x56FC, symBinAddr: 0xD908, symSize: 0x40 }
  - { offset: 0x78618, size: 0x8, addend: 0x0, symName: __ZNSt3__16vectorINS_4pairIiN7leveldb11InternalKeyEEENS_9allocatorIS4_EEE16__destroy_vectorclB8ne190102Ev, symObjAddr: 0x573C, symBinAddr: 0xD948, symSize: 0x40 }
  - { offset: 0x787A4, size: 0x8, addend: 0x0, symName: __ZNSt3__19allocatorINS_4pairIiN7leveldb12FileMetaDataEEEE7destroyB8ne190102EPS4_, symObjAddr: 0x5678, symBinAddr: 0xD884, symSize: 0x44 }
  - { offset: 0x78B71, size: 0x8, addend: 0x0, symName: __ZNSt3__16vectorINS_4pairIiN7leveldb11InternalKeyEEENS_9allocatorIS4_EEE7__clearB8ne190102Ev, symObjAddr: 0x577C, symBinAddr: 0xD988, symSize: 0x4C }
  - { offset: 0x78F82, size: 0x8, addend: 0x0, symName: __ZZN7leveldb6DBImpl14RecoverLogFileEybPbPNS_11VersionEditEPyEN11LogReporterD0Ev, symObjAddr: 0x597C, symBinAddr: 0xDAD8, symSize: 0x14 }
  - { offset: 0x791D6, size: 0x8, addend: 0x0, symName: __ZNSt3__114__split_bufferINS_4pairIiN7leveldb12FileMetaDataEEERNS_9allocatorIS4_EEED2Ev, symObjAddr: 0x5CBC, symBinAddr: 0xDE04, symSize: 0x30 }
  - { offset: 0x792C3, size: 0x8, addend: 0x0, symName: __ZNSt3__119__allocate_at_leastB8ne190102INS_9allocatorINS_4pairIiN7leveldb12FileMetaDataEEEEEEENS_19__allocation_resultINS_16allocator_traitsIT_E7pointerEEERS9_m, symObjAddr: 0x5B10, symBinAddr: 0xDC58, symSize: 0x44 }
  - { offset: 0x7931E, size: 0x8, addend: 0x0, symName: __ZNSt3__128__exception_guard_exceptionsINS_29_AllocatorDestroyRangeReverseINS_9allocatorINS_4pairIiN7leveldb12FileMetaDataEEEEEPS6_EEED2B8ne190102Ev, symObjAddr: 0x5C38, symBinAddr: 0xDD80, symSize: 0x34 }
  - { offset: 0x7935C, size: 0x8, addend: 0x0, symName: __ZNKSt3__129_AllocatorDestroyRangeReverseINS_9allocatorINS_4pairIiN7leveldb12FileMetaDataEEEEEPS5_EclB8ne190102Ev, symObjAddr: 0x5C6C, symBinAddr: 0xDDB4, symSize: 0x50 }
  - { offset: 0x7949C, size: 0x8, addend: 0x0, symName: __ZNSt3__114__split_bufferINS_4pairIiN7leveldb12FileMetaDataEEERNS_9allocatorIS4_EEE5clearB8ne190102Ev, symObjAddr: 0x5CEC, symBinAddr: 0xDE34, symSize: 0x44 }
  - { offset: 0x79816, size: 0x8, addend: 0x0, symName: __ZNSt3__16__treeINS_4pairIiyEENS_4lessIS2_EENS_9allocatorIS2_EEE12__find_equalIS2_EERPNS_16__tree_node_baseIPvEERPNS_15__tree_end_nodeISC_EERKT_, symObjAddr: 0x5EBC, symBinAddr: 0xE004, symSize: 0x68 }
  - { offset: 0x7987E, size: 0x8, addend: 0x0, symName: __ZNSt3__16__treeINS_4pairIiyEENS_4lessIS2_EENS_9allocatorIS2_EEE12__find_equalIS2_EERPNS_16__tree_node_baseIPvEERPNS_15__tree_end_nodeISC_EERKT_, symObjAddr: 0x5EBC, symBinAddr: 0xE004, symSize: 0x68 }
  - { offset: 0x798D9, size: 0x8, addend: 0x0, symName: __ZNSt3__16__treeINS_4pairIiyEENS_4lessIS2_EENS_9allocatorIS2_EEE16__insert_node_atEPNS_15__tree_end_nodeIPNS_16__tree_node_baseIPvEEEERSC_SC_, symObjAddr: 0x5F24, symBinAddr: 0xE06C, symSize: 0x54 }
  - { offset: 0x79A73, size: 0x8, addend: 0x0, symName: __ZNSt3__19allocatorIN7leveldb6DBImpl15CompactionState6OutputEE7destroyB8ne190102EPS4_, symObjAddr: 0x6188, symBinAddr: 0xE2D0, symSize: 0x44 }
  - { offset: 0x79E67, size: 0x8, addend: 0x0, symName: __ZNSt3__114__split_bufferIPPN7leveldb6DBImpl6WriterENS_9allocatorIS5_EEED2Ev, symObjAddr: 0x6330, symBinAddr: 0xE478, symSize: 0x4C }
  - { offset: 0x7A1FB, size: 0x8, addend: 0x0, symName: __ZNSt3__13setIyNS_4lessIyEENS_9allocatorIyEEE6insertB8ne190102INS_21__tree_const_iteratorIyPNS_11__tree_nodeIyPvEElEEEEvT_SD_, symObjAddr: 0x6410, symBinAddr: 0xE518, symSize: 0x80 }
  - { offset: 0x7A241, size: 0x8, addend: 0x0, symName: __ZNSt3__13setIyNS_4lessIyEENS_9allocatorIyEEE6insertB8ne190102INS_21__tree_const_iteratorIyPNS_11__tree_nodeIyPvEElEEEEvT_SD_, symObjAddr: 0x6410, symBinAddr: 0xE518, symSize: 0x80 }
  - { offset: 0x7A430, size: 0x8, addend: 0x0, symName: __ZNSt3__16__treeIyNS_4lessIyEENS_9allocatorIyEEE30__emplace_hint_unique_key_argsIyJRKyEEENS_4pairINS_15__tree_iteratorIyPNS_11__tree_nodeIyPvEElEEbEENS_21__tree_const_iteratorIySE_lEERKT_DpOT0_, symObjAddr: 0x6490, symBinAddr: 0xE598, symSize: 0x84 }
  - { offset: 0x7A77F, size: 0x8, addend: 0x0, symName: __ZNSt3__16__treeIyNS_4lessIyEENS_9allocatorIyEEE12__find_equalIyEERPNS_16__tree_node_baseIPvEENS_21__tree_const_iteratorIyPNS_11__tree_nodeIyS8_EElEERPNS_15__tree_end_nodeISA_EESB_RKT_, symObjAddr: 0x6514, symBinAddr: 0xE61C, symSize: 0x1A8 }
  - { offset: 0x7A7E5, size: 0x8, addend: 0x0, symName: __ZNSt3__16__treeIyNS_4lessIyEENS_9allocatorIyEEE12__find_equalIyEERPNS_16__tree_node_baseIPvEENS_21__tree_const_iteratorIyPNS_11__tree_nodeIyS8_EElEERPNS_15__tree_end_nodeISA_EESB_RKT_, symObjAddr: 0x6514, symBinAddr: 0xE61C, symSize: 0x1A8 }
  - { offset: 0x7A801, size: 0x8, addend: 0x0, symName: __ZNSt3__16__treeIyNS_4lessIyEENS_9allocatorIyEEE12__find_equalIyEERPNS_16__tree_node_baseIPvEENS_21__tree_const_iteratorIyPNS_11__tree_nodeIyS8_EElEERPNS_15__tree_end_nodeISA_EESB_RKT_, symObjAddr: 0x6514, symBinAddr: 0xE61C, symSize: 0x1A8 }
  - { offset: 0x7ABB9, size: 0x8, addend: 0x0, symName: __ZNSt3__16vectorINS_12basic_stringIcNS_11char_traitsIcEENS_9allocatorIcEEEENS4_IS6_EEE7__clearB8ne190102Ev, symObjAddr: 0x6750, symBinAddr: 0xE804, symSize: 0x4C }
  - { offset: 0x7AE03, size: 0x8, addend: 0x0, symName: __ZNSt3__114__split_bufferINS_12basic_stringIcNS_11char_traitsIcEENS_9allocatorIcEEEERNS4_IS6_EEE17__destruct_at_endB8ne190102EPS6_, symObjAddr: 0x6828, symBinAddr: 0xE8C8, symSize: 0x54 }
  - { offset: 0x7AE3A, size: 0x8, addend: 0x0, symName: __ZNSt3__114__split_bufferINS_12basic_stringIcNS_11char_traitsIcEENS_9allocatorIcEEEERNS4_IS6_EEE17__destruct_at_endB8ne190102EPS6_, symObjAddr: 0x6828, symBinAddr: 0xE8C8, symSize: 0x54 }
  - { offset: 0x7B00C, size: 0x8, addend: 0x0, symName: __ZNSt3__16__treeIyNS_4lessIyEENS_9allocatorIyEEE21__remove_node_pointerEPNS_11__tree_nodeIyPvEE, symObjAddr: 0x6974, symBinAddr: 0xEA14, symSize: 0x70 }
  - { offset: 0x7B2DE, size: 0x8, addend: 0x0, symName: __ZNSt3__114__split_bufferIN7leveldb6DBImpl15CompactionState6OutputERNS_9allocatorIS4_EEED2Ev, symObjAddr: 0x71B0, symBinAddr: 0xF1F4, symSize: 0x30 }
  - { offset: 0x7B3CB, size: 0x8, addend: 0x0, symName: __ZNSt3__119__allocate_at_leastB8ne190102INS_9allocatorIN7leveldb6DBImpl15CompactionState6OutputEEEEENS_19__allocation_resultINS_16allocator_traitsIT_E7pointerEEERS9_m, symObjAddr: 0x7024, symBinAddr: 0xF068, symSize: 0x34 }
  - { offset: 0x7B52A, size: 0x8, addend: 0x0, symName: __ZNSt3__128__exception_guard_exceptionsINS_29_AllocatorDestroyRangeReverseINS_9allocatorIN7leveldb6DBImpl15CompactionState6OutputEEEPS6_EEED2B8ne190102Ev, symObjAddr: 0x712C, symBinAddr: 0xF170, symSize: 0x34 }
  - { offset: 0x7B568, size: 0x8, addend: 0x0, symName: __ZNKSt3__129_AllocatorDestroyRangeReverseINS_9allocatorIN7leveldb6DBImpl15CompactionState6OutputEEEPS5_EclB8ne190102Ev, symObjAddr: 0x7160, symBinAddr: 0xF1A4, symSize: 0x50 }
  - { offset: 0x7B6A8, size: 0x8, addend: 0x0, symName: __ZNSt3__114__split_bufferIN7leveldb6DBImpl15CompactionState6OutputERNS_9allocatorIS4_EEE5clearB8ne190102Ev, symObjAddr: 0x71E0, symBinAddr: 0xF224, symSize: 0x44 }
  - { offset: 0x7BDE1, size: 0x8, addend: 0x0, symName: __ZNSt3__114__split_bufferIPPN7leveldb6DBImpl6WriterENS_9allocatorIS5_EEE9push_backEOS5_, symObjAddr: 0x7560, symBinAddr: 0xF55C, symSize: 0x104 }
  - { offset: 0x7C1DA, size: 0x8, addend: 0x0, symName: __ZNSt3__114__split_bufferIPPN7leveldb6DBImpl6WriterERNS_9allocatorIS5_EEE9push_backEOS5_, symObjAddr: 0x7770, symBinAddr: 0xF76C, symSize: 0x104 }
  - { offset: 0x7C618, size: 0x8, addend: 0x0, symName: __ZNSt3__114__split_bufferIPPN7leveldb6DBImpl6WriterERNS_9allocatorIS5_EEE10push_frontERKS5_, symObjAddr: 0x7874, symBinAddr: 0xF870, symSize: 0x108 }
  - { offset: 0x7CA77, size: 0x8, addend: 0x0, symName: __ZNSt3__114__split_bufferIPPN7leveldb6DBImpl6WriterENS_9allocatorIS5_EEE10push_frontEOS5_, symObjAddr: 0x7664, symBinAddr: 0xF660, symSize: 0x10C }
  - { offset: 0x7EDCE, size: 0x8, addend: 0x0, symName: __ZN7leveldb13NewDBIteratorEPNS_6DBImplEPKNS_10ComparatorEPNS_8IteratorEyj, symObjAddr: 0x0, symBinAddr: 0xF9D4, symSize: 0xD4 }
  - { offset: 0x7F8FD, size: 0x8, addend: 0x0, symName: __ZN7leveldb13NewDBIteratorEPNS_6DBImplEPKNS_10ComparatorEPNS_8IteratorEyj, symObjAddr: 0x0, symBinAddr: 0xF9D4, symSize: 0xD4 }
  - { offset: 0x83D60, size: 0x8, addend: 0x0, symName: __ZN7leveldb12_GLOBAL__N_16DBIterD1Ev, symObjAddr: 0xD4, symBinAddr: 0xFAA8, symSize: 0x6C }
  - { offset: 0x84044, size: 0x8, addend: 0x0, symName: __ZN7leveldb12_GLOBAL__N_16DBIterD0Ev, symObjAddr: 0x140, symBinAddr: 0xFB14, symSize: 0x14 }
  - { offset: 0x84081, size: 0x8, addend: 0x0, symName: __ZNK7leveldb12_GLOBAL__N_16DBIter5ValidEv, symObjAddr: 0x154, symBinAddr: 0xFB28, symSize: 0x8 }
  - { offset: 0x84196, size: 0x8, addend: 0x0, symName: __ZN7leveldb12_GLOBAL__N_16DBIter11SeekToFirstEv, symObjAddr: 0x15C, symBinAddr: 0xFB30, symSize: 0xAC }
  - { offset: 0x843D9, size: 0x8, addend: 0x0, symName: __ZN7leveldb12_GLOBAL__N_16DBIter17FindNextUserEntryEbPNSt3__112basic_stringIcNS2_11char_traitsIcEENS2_9allocatorIcEEEE, symObjAddr: 0x74C, symBinAddr: 0x10120, symSize: 0x15C }
  - { offset: 0x8481D, size: 0x8, addend: 0x0, symName: __ZN7leveldb12_GLOBAL__N_16DBIter8ParseKeyEPNS_17ParsedInternalKeyE, symObjAddr: 0x8A8, symBinAddr: 0x1027C, symSize: 0x154 }
  - { offset: 0x84828, size: 0x8, addend: 0x0, symName: __ZN7leveldb12_GLOBAL__N_16DBIter10SeekToLastEv, symObjAddr: 0x208, symBinAddr: 0xFBDC, symSize: 0x84 }
  - { offset: 0x84A59, size: 0x8, addend: 0x0, symName: __ZN7leveldb12_GLOBAL__N_16DBIter17FindPrevUserEntryEv, symObjAddr: 0x9FC, symBinAddr: 0x103D0, symSize: 0x290 }
  - { offset: 0x853DC, size: 0x8, addend: 0x0, symName: __ZN7leveldb12_GLOBAL__N_16DBIter4NextEv.cold.1, symObjAddr: 0xC8C, symBinAddr: 0x26F38, symSize: 0x28 }
  - { offset: 0x854DB, size: 0x8, addend: 0x0, symName: __ZN7leveldb12_GLOBAL__N_16DBIter4SeekERKNS_5SliceE, symObjAddr: 0x28C, symBinAddr: 0xFC60, symSize: 0x124 }
  - { offset: 0x85999, size: 0x8, addend: 0x0, symName: __ZN7leveldb12_GLOBAL__N_16DBIter4NextEv, symObjAddr: 0x3B0, symBinAddr: 0xFD84, symSize: 0x100 }
  - { offset: 0x85AF0, size: 0x8, addend: 0x0, symName: __ZN7leveldb12_GLOBAL__N_16DBIter4PrevEv, symObjAddr: 0x4B0, symBinAddr: 0xFE84, symSize: 0x190 }
  - { offset: 0x85AFB, size: 0x8, addend: 0x0, symName: __ZN7leveldb12_GLOBAL__N_16DBIter4NextEv.cold.1, symObjAddr: 0xC8C, symBinAddr: 0x26F38, symSize: 0x28 }
  - { offset: 0x85B13, size: 0x8, addend: 0x0, symName: __ZN7leveldb12_GLOBAL__N_16DBIter4NextEv.cold.2, symObjAddr: 0xCB4, symBinAddr: 0x26F60, symSize: 0x24 }
  - { offset: 0x85B41, size: 0x8, addend: 0x0, symName: __ZN7leveldb12_GLOBAL__N_16DBIter4PrevEv, symObjAddr: 0x4B0, symBinAddr: 0xFE84, symSize: 0x190 }
  - { offset: 0x85FC1, size: 0x8, addend: 0x0, symName: __ZNK7leveldb12_GLOBAL__N_16DBIter3keyEv, symObjAddr: 0x640, symBinAddr: 0x10014, symSize: 0x68 }
  - { offset: 0x85FE0, size: 0x8, addend: 0x0, symName: __ZN7leveldb12_GLOBAL__N_16DBIter4PrevEv.cold.1, symObjAddr: 0xCD8, symBinAddr: 0x26F84, symSize: 0x28 }
  - { offset: 0x85FF8, size: 0x8, addend: 0x0, symName: __ZN7leveldb12_GLOBAL__N_16DBIter4PrevEv.cold.2, symObjAddr: 0xD00, symBinAddr: 0x26FAC, symSize: 0x28 }
  - { offset: 0x86024, size: 0x8, addend: 0x0, symName: __ZNK7leveldb12_GLOBAL__N_16DBIter3keyEv, symObjAddr: 0x640, symBinAddr: 0x10014, symSize: 0x68 }
  - { offset: 0x86122, size: 0x8, addend: 0x0, symName: __ZNK7leveldb12_GLOBAL__N_16DBIter5valueEv, symObjAddr: 0x6A8, symBinAddr: 0x1007C, symSize: 0x58 }
  - { offset: 0x8612D, size: 0x8, addend: 0x0, symName: __ZNK7leveldb12_GLOBAL__N_16DBIter3keyEv.cold.1, symObjAddr: 0xD70, symBinAddr: 0x26FD4, symSize: 0x28 }
  - { offset: 0x86159, size: 0x8, addend: 0x0, symName: __ZNK7leveldb12_GLOBAL__N_16DBIter5valueEv, symObjAddr: 0x6A8, symBinAddr: 0x1007C, symSize: 0x58 }
  - { offset: 0x8623D, size: 0x8, addend: 0x0, symName: __ZNK7leveldb12_GLOBAL__N_16DBIter6statusEv, symObjAddr: 0x700, symBinAddr: 0x100D4, symSize: 0x4C }
  - { offset: 0x86248, size: 0x8, addend: 0x0, symName: __ZNK7leveldb12_GLOBAL__N_16DBIter5valueEv.cold.1, symObjAddr: 0xDBC, symBinAddr: 0x26FFC, symSize: 0x28 }
  - { offset: 0x862C3, size: 0x8, addend: 0x0, symName: __ZNK7leveldb12_GLOBAL__N_16DBIter6statusEv, symObjAddr: 0x700, symBinAddr: 0x100D4, symSize: 0x4C }
  - { offset: 0x863C0, size: 0x8, addend: 0x0, symName: __ZN7leveldb12_GLOBAL__N_16DBIter8ParseKeyEPNS_17ParsedInternalKeyE, symObjAddr: 0x8A8, symBinAddr: 0x1027C, symSize: 0x154 }
  - { offset: 0x8663B, size: 0x8, addend: 0x0, symName: __ZN7leveldb12_GLOBAL__N_16DBIter17FindNextUserEntryEbPNSt3__112basic_stringIcNS2_11char_traitsIcEENS2_9allocatorIcEEEE.cold.1, symObjAddr: 0xDE4, symBinAddr: 0x27024, symSize: 0x28 }
  - { offset: 0x86653, size: 0x8, addend: 0x0, symName: __ZN7leveldb12_GLOBAL__N_16DBIter17FindNextUserEntryEbPNSt3__112basic_stringIcNS2_11char_traitsIcEENS2_9allocatorIcEEEE.cold.2, symObjAddr: 0xE0C, symBinAddr: 0x2704C, symSize: 0x28 }
  - { offset: 0x86713, size: 0x8, addend: 0x0, symName: __ZN7leveldb12_GLOBAL__N_16DBIter17FindPrevUserEntryEv.cold.1, symObjAddr: 0xE34, symBinAddr: 0x27074, symSize: 0x28 }
  - { offset: 0x8672B, size: 0x8, addend: 0x0, symName: _OUTLINED_FUNCTION_0, symObjAddr: 0xE80, symBinAddr: 0x10660, symSize: 0x8 }
  - { offset: 0x88639, size: 0x8, addend: 0x0, symName: __ZN7leveldb17AppendInternalKeyEPNSt3__112basic_stringIcNS0_11char_traitsIcEENS0_9allocatorIcEEEERKNS_17ParsedInternalKeyE, symObjAddr: 0x0, symBinAddr: 0x10668, symSize: 0x40 }
  - { offset: 0x886C4, size: 0x8, addend: 0x0, symName: __ZN7leveldbL19PackSequenceAndTypeEyNS_9ValueTypeE, symObjAddr: 0x40, symBinAddr: 0x106A8, symSize: 0x30 }
  - { offset: 0x886FA, size: 0x8, addend: 0x0, symName: __ZNK7leveldb17ParsedInternalKey11DebugStringEv, symObjAddr: 0x70, symBinAddr: 0x106D8, symSize: 0x1B8 }
  - { offset: 0x8C047, size: 0x8, addend: 0x0, symName: __ZNSt3__124__put_character_sequenceB8ne190102IcNS_11char_traitsIcEEEERNS_13basic_ostreamIT_T0_EES7_PKS4_m, symObjAddr: 0x11EC, symBinAddr: 0x1171C, symSize: 0x168 }
  - { offset: 0x8D4E2, size: 0x8, addend: 0x0, symName: __ZNSt3__116__pad_and_outputB8ne190102IcNS_11char_traitsIcEEEENS_19ostreambuf_iteratorIT_T0_EES6_PKS4_S8_S8_RNS_8ios_baseES4_, symObjAddr: 0x1354, symBinAddr: 0x11884, symSize: 0x13C }
  - { offset: 0x8EA2C, size: 0x8, addend: 0x0, symName: __ZN7leveldbL19PackSequenceAndTypeEyNS_9ValueTypeE.cold.2, symObjAddr: 0x1644, symBinAddr: 0x270C4, symSize: 0x28 }
  - { offset: 0x8EA44, size: 0x8, addend: 0x0, symName: __ZN7leveldbL19PackSequenceAndTypeEyNS_9ValueTypeE.cold.1, symObjAddr: 0x161C, symBinAddr: 0x2709C, symSize: 0x28 }
  - { offset: 0x8ECAD, size: 0x8, addend: 0x0, symName: __ZNK7leveldb17ParsedInternalKey11DebugStringEv, symObjAddr: 0x70, symBinAddr: 0x106D8, symSize: 0x1B8 }
  - { offset: 0x8F59E, size: 0x8, addend: 0x0, symName: __ZNSt3__119basic_ostringstreamIcNS_11char_traitsIcEENS_9allocatorIcEEEC1B8ne190102Ev, symObjAddr: 0x228, symBinAddr: 0x10890, symSize: 0xD4 }
  - { offset: 0x8F7ED, size: 0x8, addend: 0x0, symName: __ZNKSt3__115basic_stringbufIcNS_11char_traitsIcEENS_9allocatorIcEEE3strEv, symObjAddr: 0x1530, symBinAddr: 0x11A60, symSize: 0x4C }
  - { offset: 0x8F991, size: 0x8, addend: 0x0, symName: __ZNSt3__119basic_ostringstreamIcNS_11char_traitsIcEENS_9allocatorIcEEED1Ev, symObjAddr: 0x2FC, symBinAddr: 0x10964, symSize: 0x8C }
  - { offset: 0x8FC2D, size: 0x8, addend: 0x0, symName: __ZNK7leveldb11InternalKey11DebugStringEv, symObjAddr: 0x388, symBinAddr: 0x109F0, symSize: 0x1A0 }
  - { offset: 0x90325, size: 0x8, addend: 0x0, symName: __ZNK7leveldb21InternalKeyComparator4NameEv, symObjAddr: 0x528, symBinAddr: 0x10B90, symSize: 0xC }
  - { offset: 0x90348, size: 0x8, addend: 0x0, symName: __ZNK7leveldb21InternalKeyComparator7CompareERKNS_5SliceES3_, symObjAddr: 0x534, symBinAddr: 0x10B9C, symSize: 0xA4 }
  - { offset: 0x90513, size: 0x8, addend: 0x0, symName: __ZNK7leveldb21InternalKeyComparator21FindShortestSeparatorEPNSt3__112basic_stringIcNS1_11char_traitsIcEENS1_9allocatorIcEEEERKNS_5SliceE, symObjAddr: 0x5D8, symBinAddr: 0x10C40, symSize: 0x234 }
  - { offset: 0x90567, size: 0x8, addend: 0x0, symName: __ZNK7leveldb21InternalKeyComparator21FindShortestSeparatorEPNSt3__112basic_stringIcNS1_11char_traitsIcEENS1_9allocatorIcEEEERKNS_5SliceE, symObjAddr: 0x5D8, symBinAddr: 0x10C40, symSize: 0x234 }
  - { offset: 0x90DAB, size: 0x8, addend: 0x0, symName: __ZNK7leveldb21InternalKeyComparator18FindShortSuccessorEPNSt3__112basic_stringIcNS1_11char_traitsIcEENS1_9allocatorIcEEEE, symObjAddr: 0x80C, symBinAddr: 0x10E74, symSize: 0x1AC }
  - { offset: 0x9146A, size: 0x8, addend: 0x0, symName: __ZNK7leveldb20InternalFilterPolicy4NameEv, symObjAddr: 0x9B8, symBinAddr: 0x11020, symSize: 0x10 }
  - { offset: 0x9149D, size: 0x8, addend: 0x0, symName: __ZNK7leveldb20InternalFilterPolicy12CreateFilterEPKNS_5SliceEiPNSt3__112basic_stringIcNS4_11char_traitsIcEENS4_9allocatorIcEEEE, symObjAddr: 0x9C8, symBinAddr: 0x11030, symSize: 0x4C }
  - { offset: 0x91558, size: 0x8, addend: 0x0, symName: __ZNK7leveldb20InternalFilterPolicy11KeyMayMatchERKNS_5SliceES3_, symObjAddr: 0xA14, symBinAddr: 0x1107C, symSize: 0x48 }
  - { offset: 0x91576, size: 0x8, addend: 0x0, symName: __ZNK7leveldb20InternalFilterPolicy11KeyMayMatchERKNS_5SliceES3_, symObjAddr: 0xA14, symBinAddr: 0x1107C, symSize: 0x48 }
  - { offset: 0x9161F, size: 0x8, addend: 0x0, symName: __ZN7leveldb9LookupKeyC2ERKNS_5SliceEy, symObjAddr: 0xA5C, symBinAddr: 0x110C4, symSize: 0xC8 }
  - { offset: 0x91642, size: 0x8, addend: 0x0, symName: __ZN7leveldb9LookupKeyC2ERKNS_5SliceEy, symObjAddr: 0xA5C, symBinAddr: 0x110C4, symSize: 0xC8 }
  - { offset: 0x9175D, size: 0x8, addend: 0x0, symName: __ZN7leveldb9LookupKeyC1ERKNS_5SliceEy, symObjAddr: 0xB24, symBinAddr: 0x1118C, symSize: 0x4 }
  - { offset: 0x9177B, size: 0x8, addend: 0x0, symName: __ZN7leveldb9LookupKeyC1ERKNS_5SliceEy, symObjAddr: 0xB24, symBinAddr: 0x1118C, symSize: 0x4 }
  - { offset: 0x917C3, size: 0x8, addend: 0x0, symName: __ZN7leveldb9LookupKeyC1ERKNS_5SliceEy, symObjAddr: 0xB24, symBinAddr: 0x1118C, symSize: 0x4 }
  - { offset: 0x91802, size: 0x8, addend: 0x0, symName: __ZN7leveldb21InternalKeyComparatorD1Ev, symObjAddr: 0xB28, symBinAddr: 0x11190, symSize: 0x4 }
  - { offset: 0x91824, size: 0x8, addend: 0x0, symName: __ZN7leveldb21InternalKeyComparatorD1Ev, symObjAddr: 0xB28, symBinAddr: 0x11190, symSize: 0x4 }
  - { offset: 0x91857, size: 0x8, addend: 0x0, symName: __ZN7leveldb21InternalKeyComparatorD0Ev, symObjAddr: 0xB2C, symBinAddr: 0x11194, symSize: 0x14 }
  - { offset: 0x918D7, size: 0x8, addend: 0x0, symName: __ZN7leveldb20InternalFilterPolicyD1Ev, symObjAddr: 0xB40, symBinAddr: 0x111A8, symSize: 0x4 }
  - { offset: 0x918F9, size: 0x8, addend: 0x0, symName: __ZN7leveldb20InternalFilterPolicyD1Ev, symObjAddr: 0xB40, symBinAddr: 0x111A8, symSize: 0x4 }
  - { offset: 0x9192C, size: 0x8, addend: 0x0, symName: __ZN7leveldb20InternalFilterPolicyD0Ev, symObjAddr: 0xB44, symBinAddr: 0x111AC, symSize: 0x14 }
  - { offset: 0x9198E, size: 0x8, addend: 0x0, symName: __ZTv0_n24_NSt3__119basic_ostringstreamIcNS_11char_traitsIcEENS_9allocatorIcEEED1Ev, symObjAddr: 0xB58, symBinAddr: 0x111C0, symSize: 0x8C }
  - { offset: 0x91B32, size: 0x8, addend: 0x0, symName: __ZNSt3__119basic_ostringstreamIcNS_11char_traitsIcEENS_9allocatorIcEEED0Ev, symObjAddr: 0xBE4, symBinAddr: 0x1124C, symSize: 0x8C }
  - { offset: 0x91CF9, size: 0x8, addend: 0x0, symName: __ZTv0_n24_NSt3__119basic_ostringstreamIcNS_11char_traitsIcEENS_9allocatorIcEEED0Ev, symObjAddr: 0xC70, symBinAddr: 0x112D8, symSize: 0x94 }
  - { offset: 0x91EB9, size: 0x8, addend: 0x0, symName: __ZNSt3__115basic_stringbufIcNS_11char_traitsIcEENS_9allocatorIcEEED1Ev, symObjAddr: 0xD04, symBinAddr: 0x1136C, symSize: 0x40 }
  - { offset: 0x92021, size: 0x8, addend: 0x0, symName: __ZNSt3__115basic_stringbufIcNS_11char_traitsIcEENS_9allocatorIcEEED0Ev, symObjAddr: 0xD44, symBinAddr: 0x113AC, symSize: 0x44 }
  - { offset: 0x922B6, size: 0x8, addend: 0x0, symName: __ZNSt3__115basic_stringbufIcNS_11char_traitsIcEENS_9allocatorIcEEE7seekoffExNS_8ios_base7seekdirEj, symObjAddr: 0xD88, symBinAddr: 0x113F0, symSize: 0x100 }
  - { offset: 0x924DF, size: 0x8, addend: 0x0, symName: __ZNSt3__115basic_stringbufIcNS_11char_traitsIcEENS_9allocatorIcEEE7seekposENS_4fposI11__mbstate_tEEj, symObjAddr: 0xE88, symBinAddr: 0x114F0, symSize: 0x18 }
  - { offset: 0x9257D, size: 0x8, addend: 0x0, symName: __ZNSt3__115basic_stringbufIcNS_11char_traitsIcEENS_9allocatorIcEEE9underflowEv, symObjAddr: 0xEA0, symBinAddr: 0x11508, symSize: 0x50 }
  - { offset: 0x92620, size: 0x8, addend: 0x0, symName: __ZNSt3__115basic_stringbufIcNS_11char_traitsIcEENS_9allocatorIcEEE9pbackfailEi, symObjAddr: 0xEF0, symBinAddr: 0x11558, symSize: 0x6C }
  - { offset: 0x927E3, size: 0x8, addend: 0x0, symName: __ZNSt3__115basic_stringbufIcNS_11char_traitsIcEENS_9allocatorIcEEE8overflowEi, symObjAddr: 0xF5C, symBinAddr: 0x115C4, symSize: 0x158 }
  - { offset: 0x92F87, size: 0x8, addend: 0x0, symName: __ZNSt3__112basic_stringIcNS_11char_traitsIcEENS_9allocatorIcEEEC2B8ne190102Emc, symObjAddr: 0x1490, symBinAddr: 0x119C0, symSize: 0xA0 }
  - { offset: 0x931AF, size: 0x8, addend: 0x0, symName: __ZNKSt3__115basic_stringbufIcNS_11char_traitsIcEENS_9allocatorIcEEE3strEv, symObjAddr: 0x1530, symBinAddr: 0x11A60, symSize: 0x4C }
  - { offset: 0x93400, size: 0x8, addend: 0x0, symName: __ZNSt3__112basic_stringIcNS_11char_traitsIcEENS_9allocatorIcEEE16__init_with_sizeB8ne190102IPcS7_EEvT_T0_m, symObjAddr: 0x157C, symBinAddr: 0x11AAC, symSize: 0xA0 }
  - { offset: 0x9365D, size: 0x8, addend: 0x0, symName: __ZN7leveldbL19PackSequenceAndTypeEyNS_9ValueTypeE.cold.1, symObjAddr: 0x161C, symBinAddr: 0x2709C, symSize: 0x28 }
  - { offset: 0x95569, size: 0x8, addend: 0x0, symName: __ZN7leveldb8DumpFileEPNS_3EnvERKNSt3__112basic_stringIcNS2_11char_traitsIcEENS2_9allocatorIcEEEEPNS_12WritableFileE, symObjAddr: 0x0, symBinAddr: 0x11B4C, symSize: 0x848 }
  - { offset: 0x9B5D6, size: 0x8, addend: 0x0, symName: __ZN7leveldb12_GLOBAL__N_116PrintLogContentsEPNS_3EnvERKNSt3__112basic_stringIcNS3_11char_traitsIcEENS3_9allocatorIcEEEEPFvyNS_5SliceEPNS_12WritableFileEESE_, symObjAddr: 0x970, symBinAddr: 0x12394, symSize: 0x140 }
  - { offset: 0x9BC9C, size: 0x8, addend: 0x0, symName: __ZN7leveldb12_GLOBAL__N_117WriteBatchPrinterEyNS_5SliceEPNS_12WritableFileE, symObjAddr: 0xAB0, symBinAddr: 0x124D4, symSize: 0x328 }
  - { offset: 0x9CD73, size: 0x8, addend: 0x0, symName: __ZN7leveldb12_GLOBAL__N_118VersionEditPrinterEyNS_5SliceEPNS_12WritableFileE, symObjAddr: 0x11A4, symBinAddr: 0x12B20, symSize: 0x1E0 }
  - { offset: 0x9D9DF, size: 0x8, addend: 0x0, symName: __ZN7leveldb8DumpFileEPNS_3EnvERKNSt3__112basic_stringIcNS2_11char_traitsIcEENS2_9allocatorIcEEEEPNS_12WritableFileE, symObjAddr: 0x0, symBinAddr: 0x11B4C, symSize: 0x848 }
  - { offset: 0xA127B, size: 0x8, addend: 0x0, symName: __ZN7leveldb12_GLOBAL__N_121WriteBatchItemPrinterD1Ev, symObjAddr: 0xFD4, symBinAddr: 0x12950, symSize: 0x4 }
  - { offset: 0xA1291, size: 0x8, addend: 0x0, symName: __ZN7leveldb12_GLOBAL__N_118CorruptionReporterD1Ev, symObjAddr: 0xDD8, symBinAddr: 0x127FC, symSize: 0x4 }
  - { offset: 0xA12B3, size: 0x8, addend: 0x0, symName: __ZN7leveldb12_GLOBAL__N_118CorruptionReporterD1Ev, symObjAddr: 0xDD8, symBinAddr: 0x127FC, symSize: 0x4 }
  - { offset: 0xA12CC, size: 0x8, addend: 0x0, symName: __ZN7leveldb12_GLOBAL__N_118CorruptionReporterD0Ev, symObjAddr: 0xDDC, symBinAddr: 0x12800, symSize: 0x14 }
  - { offset: 0xA136E, size: 0x8, addend: 0x0, symName: __ZN7leveldb12_GLOBAL__N_118CorruptionReporter10CorruptionEmRKNS_6StatusE, symObjAddr: 0xDF0, symBinAddr: 0x12814, symSize: 0x13C }
  - { offset: 0xA1AB6, size: 0x8, addend: 0x0, symName: __ZN7leveldb12_GLOBAL__N_121WriteBatchItemPrinterD1Ev, symObjAddr: 0xFD4, symBinAddr: 0x12950, symSize: 0x4 }
  - { offset: 0xA1AD8, size: 0x8, addend: 0x0, symName: __ZN7leveldb12_GLOBAL__N_121WriteBatchItemPrinterD1Ev, symObjAddr: 0xFD4, symBinAddr: 0x12950, symSize: 0x4 }
  - { offset: 0xA1AF1, size: 0x8, addend: 0x0, symName: __ZN7leveldb12_GLOBAL__N_121WriteBatchItemPrinterD0Ev, symObjAddr: 0xFD8, symBinAddr: 0x12954, symSize: 0x14 }
  - { offset: 0xA1B53, size: 0x8, addend: 0x0, symName: __ZN7leveldb12_GLOBAL__N_121WriteBatchItemPrinter3PutERKNS_5SliceES4_, symObjAddr: 0xFEC, symBinAddr: 0x12968, symSize: 0xF0 }
  - { offset: 0xA1FB9, size: 0x8, addend: 0x0, symName: __ZN7leveldb12_GLOBAL__N_121WriteBatchItemPrinter6DeleteERKNS_5SliceE, symObjAddr: 0x10DC, symBinAddr: 0x12A58, symSize: 0xC8 }
  - { offset: 0xA52F4, size: 0x8, addend: 0x0, symName: __ZN7leveldb3EnvC2Ev, symObjAddr: 0x0, symBinAddr: 0x12D00, symSize: 0x10 }
  - { offset: 0xA5319, size: 0x8, addend: 0x0, symName: __ZN7leveldb16ReadFileToStringEPNS_3EnvERKNSt3__112basic_stringIcNS2_11char_traitsIcEENS2_9allocatorIcEEEEPS8_, symObjAddr: 0x28C, symBinAddr: 0x12F8C, symSize: 0x110 }
  - { offset: 0xA564B, size: 0x8, addend: 0x0, symName: __ZN7leveldb3LogEPNS_6LoggerEPKcz, symObjAddr: 0xE0, symBinAddr: 0x12DE0, symSize: 0x34 }
  - { offset: 0xA56B6, size: 0x8, addend: 0x0, symName: __ZN7leveldb17WriteStringToFileEPNS_3EnvERKNS_5SliceERKNSt3__112basic_stringIcNS5_11char_traitsIcEENS5_9allocatorIcEEEE, symObjAddr: 0x114, symBinAddr: 0x12E14, symSize: 0x8 }
  - { offset: 0xA572E, size: 0x8, addend: 0x0, symName: __ZN7leveldbL19DoWriteStringToFileEPNS_3EnvERKNS_5SliceERKNSt3__112basic_stringIcNS5_11char_traitsIcEENS5_9allocatorIcEEEEb, symObjAddr: 0x11C, symBinAddr: 0x12E1C, symSize: 0x168 }
  - { offset: 0xA5ABA, size: 0x8, addend: 0x0, symName: __ZN7leveldb21WriteStringToFileSyncEPNS_3EnvERKNS_5SliceERKNSt3__112basic_stringIcNS5_11char_traitsIcEENS5_9allocatorIcEEEE, symObjAddr: 0x284, symBinAddr: 0x12F84, symSize: 0x8 }
  - { offset: 0xA8902, size: 0x8, addend: 0x0, symName: __ZN7leveldb3EnvC2Ev, symObjAddr: 0x0, symBinAddr: 0x12D00, symSize: 0x10 }
  - { offset: 0xA892B, size: 0x8, addend: 0x0, symName: __ZN7leveldb3EnvD2Ev, symObjAddr: 0x10, symBinAddr: 0x12D10, symSize: 0x4 }
  - { offset: 0xA8954, size: 0x8, addend: 0x0, symName: __ZN7leveldb3EnvD1Ev, symObjAddr: 0x14, symBinAddr: 0x12D14, symSize: 0x4 }
  - { offset: 0xA897B, size: 0x8, addend: 0x0, symName: __ZN7leveldb3EnvD0Ev, symObjAddr: 0x18, symBinAddr: 0x12D18, symSize: 0x4 }
  - { offset: 0xA8AA0, size: 0x8, addend: 0x0, symName: __ZN7leveldb3Env17NewAppendableFileERKNSt3__112basic_stringIcNS1_11char_traitsIcEENS1_9allocatorIcEEEEPPNS_12WritableFileE, symObjAddr: 0x1C, symBinAddr: 0x12D1C, symSize: 0x58 }
  - { offset: 0xA8C02, size: 0x8, addend: 0x0, symName: __ZN7leveldb3Env9RemoveDirERKNSt3__112basic_stringIcNS1_11char_traitsIcEENS1_9allocatorIcEEEE, symObjAddr: 0x74, symBinAddr: 0x12D74, symSize: 0xC }
  - { offset: 0xA8C58, size: 0x8, addend: 0x0, symName: __ZN7leveldb3Env9DeleteDirERKNSt3__112basic_stringIcNS1_11char_traitsIcEENS1_9allocatorIcEEEE, symObjAddr: 0x80, symBinAddr: 0x12D80, symSize: 0xC }
  - { offset: 0xA8CAE, size: 0x8, addend: 0x0, symName: __ZN7leveldb3Env10RemoveFileERKNSt3__112basic_stringIcNS1_11char_traitsIcEENS1_9allocatorIcEEEE, symObjAddr: 0x8C, symBinAddr: 0x12D8C, symSize: 0xC }
  - { offset: 0xA8D04, size: 0x8, addend: 0x0, symName: __ZN7leveldb3Env10DeleteFileERKNSt3__112basic_stringIcNS1_11char_traitsIcEENS1_9allocatorIcEEEE, symObjAddr: 0x98, symBinAddr: 0x12D98, symSize: 0xC }
  - { offset: 0xA8D59, size: 0x8, addend: 0x0, symName: __ZN7leveldb14SequentialFileD2Ev, symObjAddr: 0xA4, symBinAddr: 0x12DA4, symSize: 0x4 }
  - { offset: 0xA8D82, size: 0x8, addend: 0x0, symName: __ZN7leveldb14SequentialFileD1Ev, symObjAddr: 0xA8, symBinAddr: 0x12DA8, symSize: 0x4 }
  - { offset: 0xA8DA9, size: 0x8, addend: 0x0, symName: __ZN7leveldb14SequentialFileD0Ev, symObjAddr: 0xAC, symBinAddr: 0x12DAC, symSize: 0x4 }
  - { offset: 0xA8DD0, size: 0x8, addend: 0x0, symName: __ZN7leveldb16RandomAccessFileD2Ev, symObjAddr: 0xB0, symBinAddr: 0x12DB0, symSize: 0x4 }
  - { offset: 0xA8DF9, size: 0x8, addend: 0x0, symName: __ZN7leveldb16RandomAccessFileD1Ev, symObjAddr: 0xB4, symBinAddr: 0x12DB4, symSize: 0x4 }
  - { offset: 0xA8E20, size: 0x8, addend: 0x0, symName: __ZN7leveldb16RandomAccessFileD0Ev, symObjAddr: 0xB8, symBinAddr: 0x12DB8, symSize: 0x4 }
  - { offset: 0xA8E47, size: 0x8, addend: 0x0, symName: __ZN7leveldb12WritableFileD2Ev, symObjAddr: 0xBC, symBinAddr: 0x12DBC, symSize: 0x4 }
  - { offset: 0xA8E70, size: 0x8, addend: 0x0, symName: __ZN7leveldb12WritableFileD1Ev, symObjAddr: 0xC0, symBinAddr: 0x12DC0, symSize: 0x4 }
  - { offset: 0xA8E97, size: 0x8, addend: 0x0, symName: __ZN7leveldb12WritableFileD0Ev, symObjAddr: 0xC4, symBinAddr: 0x12DC4, symSize: 0x4 }
  - { offset: 0xA8EBE, size: 0x8, addend: 0x0, symName: __ZN7leveldb6LoggerD2Ev, symObjAddr: 0xC8, symBinAddr: 0x12DC8, symSize: 0x4 }
  - { offset: 0xA8EE7, size: 0x8, addend: 0x0, symName: __ZN7leveldb6LoggerD1Ev, symObjAddr: 0xCC, symBinAddr: 0x12DCC, symSize: 0x4 }
  - { offset: 0xA8F0E, size: 0x8, addend: 0x0, symName: __ZN7leveldb6LoggerD0Ev, symObjAddr: 0xD0, symBinAddr: 0x12DD0, symSize: 0x4 }
  - { offset: 0xA8F35, size: 0x8, addend: 0x0, symName: __ZN7leveldb8FileLockD2Ev, symObjAddr: 0xD4, symBinAddr: 0x12DD4, symSize: 0x4 }
  - { offset: 0xA8F5E, size: 0x8, addend: 0x0, symName: __ZN7leveldb8FileLockD1Ev, symObjAddr: 0xD8, symBinAddr: 0x12DD8, symSize: 0x4 }
  - { offset: 0xA8F87, size: 0x8, addend: 0x0, symName: __ZN7leveldb8FileLockD0Ev, symObjAddr: 0xDC, symBinAddr: 0x12DDC, symSize: 0x4 }
  - { offset: 0xA9128, size: 0x8, addend: 0x0, symName: __ZN7leveldb10EnvWrapperD2Ev, symObjAddr: 0x39C, symBinAddr: 0x1309C, symSize: 0x4 }
  - { offset: 0xA9151, size: 0x8, addend: 0x0, symName: __ZN7leveldb10EnvWrapperD1Ev, symObjAddr: 0x3A0, symBinAddr: 0x130A0, symSize: 0x4 }
  - { offset: 0xA917A, size: 0x8, addend: 0x0, symName: __ZN7leveldb10EnvWrapperD0Ev, symObjAddr: 0x3A4, symBinAddr: 0x130A4, symSize: 0x4 }
  - { offset: 0xA91A4, size: 0x8, addend: 0x0, symName: __ZN7leveldb10EnvWrapper17NewSequentialFileERKNSt3__112basic_stringIcNS1_11char_traitsIcEENS1_9allocatorIcEEEEPPNS_14SequentialFileE, symObjAddr: 0x3A8, symBinAddr: 0x130A8, symSize: 0x10 }
  - { offset: 0xA920A, size: 0x8, addend: 0x0, symName: __ZN7leveldb10EnvWrapper19NewRandomAccessFileERKNSt3__112basic_stringIcNS1_11char_traitsIcEENS1_9allocatorIcEEEEPPNS_16RandomAccessFileE, symObjAddr: 0x3B8, symBinAddr: 0x130B8, symSize: 0x10 }
  - { offset: 0xA9270, size: 0x8, addend: 0x0, symName: __ZN7leveldb10EnvWrapper15NewWritableFileERKNSt3__112basic_stringIcNS1_11char_traitsIcEENS1_9allocatorIcEEEEPPNS_12WritableFileE, symObjAddr: 0x3C8, symBinAddr: 0x130C8, symSize: 0x10 }
  - { offset: 0xA92D6, size: 0x8, addend: 0x0, symName: __ZN7leveldb10EnvWrapper17NewAppendableFileERKNSt3__112basic_stringIcNS1_11char_traitsIcEENS1_9allocatorIcEEEEPPNS_12WritableFileE, symObjAddr: 0x3D8, symBinAddr: 0x130D8, symSize: 0x10 }
  - { offset: 0xA933C, size: 0x8, addend: 0x0, symName: __ZN7leveldb10EnvWrapper10FileExistsERKNSt3__112basic_stringIcNS1_11char_traitsIcEENS1_9allocatorIcEEEE, symObjAddr: 0x3E8, symBinAddr: 0x130E8, symSize: 0x10 }
  - { offset: 0xA9385, size: 0x8, addend: 0x0, symName: __ZN7leveldb10EnvWrapper11GetChildrenERKNSt3__112basic_stringIcNS1_11char_traitsIcEENS1_9allocatorIcEEEEPNS1_6vectorIS7_NS5_IS7_EEEE, symObjAddr: 0x3F8, symBinAddr: 0x130F8, symSize: 0x10 }
  - { offset: 0xA93EB, size: 0x8, addend: 0x0, symName: __ZN7leveldb10EnvWrapper10RemoveFileERKNSt3__112basic_stringIcNS1_11char_traitsIcEENS1_9allocatorIcEEEE, symObjAddr: 0x408, symBinAddr: 0x13108, symSize: 0x10 }
  - { offset: 0xA943B, size: 0x8, addend: 0x0, symName: __ZN7leveldb10EnvWrapper9CreateDirERKNSt3__112basic_stringIcNS1_11char_traitsIcEENS1_9allocatorIcEEEE, symObjAddr: 0x418, symBinAddr: 0x13118, symSize: 0x10 }
  - { offset: 0xA948B, size: 0x8, addend: 0x0, symName: __ZN7leveldb10EnvWrapper9RemoveDirERKNSt3__112basic_stringIcNS1_11char_traitsIcEENS1_9allocatorIcEEEE, symObjAddr: 0x428, symBinAddr: 0x13128, symSize: 0x10 }
  - { offset: 0xA94DB, size: 0x8, addend: 0x0, symName: __ZN7leveldb10EnvWrapper11GetFileSizeERKNSt3__112basic_stringIcNS1_11char_traitsIcEENS1_9allocatorIcEEEEPy, symObjAddr: 0x438, symBinAddr: 0x13138, symSize: 0x10 }
  - { offset: 0xA9541, size: 0x8, addend: 0x0, symName: __ZN7leveldb10EnvWrapper10RenameFileERKNSt3__112basic_stringIcNS1_11char_traitsIcEENS1_9allocatorIcEEEES9_, symObjAddr: 0x448, symBinAddr: 0x13148, symSize: 0x10 }
  - { offset: 0xA95A7, size: 0x8, addend: 0x0, symName: __ZN7leveldb10EnvWrapper8LockFileERKNSt3__112basic_stringIcNS1_11char_traitsIcEENS1_9allocatorIcEEEEPPNS_8FileLockE, symObjAddr: 0x458, symBinAddr: 0x13158, symSize: 0x10 }
  - { offset: 0xA960D, size: 0x8, addend: 0x0, symName: __ZN7leveldb10EnvWrapper10UnlockFileEPNS_8FileLockE, symObjAddr: 0x468, symBinAddr: 0x13168, symSize: 0x10 }
  - { offset: 0xA965D, size: 0x8, addend: 0x0, symName: __ZN7leveldb10EnvWrapper8ScheduleEPFvPvES1_, symObjAddr: 0x478, symBinAddr: 0x13178, symSize: 0x10 }
  - { offset: 0xA96BC, size: 0x8, addend: 0x0, symName: __ZN7leveldb10EnvWrapper11StartThreadEPFvPvES1_, symObjAddr: 0x488, symBinAddr: 0x13188, symSize: 0x10 }
  - { offset: 0xA971B, size: 0x8, addend: 0x0, symName: __ZN7leveldb10EnvWrapper16GetTestDirectoryEPNSt3__112basic_stringIcNS1_11char_traitsIcEENS1_9allocatorIcEEEE, symObjAddr: 0x498, symBinAddr: 0x13198, symSize: 0x10 }
  - { offset: 0xA976B, size: 0x8, addend: 0x0, symName: __ZN7leveldb10EnvWrapper9NewLoggerERKNSt3__112basic_stringIcNS1_11char_traitsIcEENS1_9allocatorIcEEEEPPNS_6LoggerE, symObjAddr: 0x4A8, symBinAddr: 0x131A8, symSize: 0x10 }
  - { offset: 0xA97D1, size: 0x8, addend: 0x0, symName: __ZN7leveldb10EnvWrapper9NowMicrosEv, symObjAddr: 0x4B8, symBinAddr: 0x131B8, symSize: 0x10 }
  - { offset: 0xA9803, size: 0x8, addend: 0x0, symName: __ZN7leveldb10EnvWrapper20SleepForMicrosecondsEi, symObjAddr: 0x4C8, symBinAddr: 0x131C8, symSize: 0x10 }
  - { offset: 0xABCC4, size: 0x8, addend: 0x0, symName: __ZN7leveldb12_GLOBAL__N_127g_open_read_only_file_limitE, symObjAddr: 0x4960, symBinAddr: 0x31768, symSize: 0x0 }
  - { offset: 0xABCDE, size: 0x8, addend: 0x0, symName: __ZN7leveldb12_GLOBAL__N_112g_mmap_limitE, symObjAddr: 0x4964, symBinAddr: 0x3176C, symSize: 0x0 }
  - { offset: 0xABCF2, size: 0x8, addend: 0x0, symName: __ZN7leveldb12_GLOBAL__N_112SingletonEnvINS0_8PosixEnvEE16env_initialized_E.0, symObjAddr: 0x87630, symBinAddr: 0x318A8, symSize: 0x0 }
  - { offset: 0xABE8A, size: 0x8, addend: 0x0, symName: __ZN7leveldb12_GLOBAL__N_110PosixErrorERKNSt3__112basic_stringIcNS1_11char_traitsIcEENS1_9allocatorIcEEEEi, symObjAddr: 0x189C, symBinAddr: 0x14A64, symSize: 0xB4 }
  - { offset: 0xB817D, size: 0x8, addend: 0x0, symName: __ZNSt3__114__thread_proxyB8ne190102INS_5tupleIJNS_10unique_ptrINS_15__thread_structENS_14default_deleteIS3_EEEEPFvPN7leveldb12_GLOBAL__N_18PosixEnvEESA_EEEEEPvSE_, symObjAddr: 0x3228, symBinAddr: 0x15B08, symSize: 0x68 }
  - { offset: 0xB8836, size: 0x8, addend: 0x0, symName: __ZNSt3__114__thread_proxyB8ne190102INS_5tupleIJNS_10unique_ptrINS_15__thread_structENS_14default_deleteIS3_EEEEPFvPvES7_EEEEES7_S7_, symObjAddr: 0x33C0, symBinAddr: 0x15CA0, symSize: 0x74 }
  - { offset: 0xB8D4B, size: 0x8, addend: 0x0, symName: __ZNSt3__1lsB8ne190102IcNS_11char_traitsIcEEEERNS_13basic_ostreamIT_T0_EES7_NS_11__thread_idE, symObjAddr: 0x394C, symBinAddr: 0x16158, symSize: 0x1B4 }
  - { offset: 0xBA595, size: 0x8, addend: 0x0, symName: __ZN7leveldb3Env7DefaultEv, symObjAddr: 0x48, symBinAddr: 0x13220, symSize: 0x6C }
  - { offset: 0xBA5B9, size: 0x8, addend: 0x0, symName: __ZZN7leveldb3Env7DefaultEvE13env_container, symObjAddr: 0x87510, symBinAddr: 0x31788, symSize: 0x0 }
  - { offset: 0xBAB31, size: 0x8, addend: 0x0, symName: __ZN7leveldb12_GLOBAL__N_18PosixEnv9NowMicrosEv, symObjAddr: 0x17D0, symBinAddr: 0x149A8, symSize: 0x38 }
  - { offset: 0xBB035, size: 0x8, addend: 0x0, symName: __ZN7leveldb18EnvPosixTestHelper18SetReadOnlyFDLimitEi, symObjAddr: 0x0, symBinAddr: 0x131D8, symSize: 0x24 }
  - { offset: 0xBB06D, size: 0x8, addend: 0x0, symName: __ZN7leveldb18EnvPosixTestHelper18SetReadOnlyFDLimitEi, symObjAddr: 0x0, symBinAddr: 0x131D8, symSize: 0x24 }
  - { offset: 0xBB088, size: 0x8, addend: 0x0, symName: __ZN7leveldb18EnvPosixTestHelper18SetReadOnlyFDLimitEi, symObjAddr: 0x0, symBinAddr: 0x131D8, symSize: 0x24 }
  - { offset: 0xBB0A5, size: 0x8, addend: 0x0, symName: __ZN7leveldb18EnvPosixTestHelper20SetReadOnlyMMapLimitEi, symObjAddr: 0x24, symBinAddr: 0x131FC, symSize: 0x24 }
  - { offset: 0xBB0B0, size: 0x8, addend: 0x0, symName: __ZN7leveldb18EnvPosixTestHelper18SetReadOnlyFDLimitEi.cold.1, symObjAddr: 0x4518, symBinAddr: 0x270EC, symSize: 0x28 }
  - { offset: 0xBB0DE, size: 0x8, addend: 0x0, symName: __ZN7leveldb18EnvPosixTestHelper20SetReadOnlyMMapLimitEi, symObjAddr: 0x24, symBinAddr: 0x131FC, symSize: 0x24 }
  - { offset: 0xBB116, size: 0x8, addend: 0x0, symName: __ZN7leveldb18EnvPosixTestHelper20SetReadOnlyMMapLimitEi, symObjAddr: 0x24, symBinAddr: 0x131FC, symSize: 0x24 }
  - { offset: 0xBB131, size: 0x8, addend: 0x0, symName: __ZN7leveldb18EnvPosixTestHelper20SetReadOnlyMMapLimitEi, symObjAddr: 0x24, symBinAddr: 0x131FC, symSize: 0x24 }
  - { offset: 0xBB14E, size: 0x8, addend: 0x0, symName: __ZN7leveldb3Env7DefaultEv, symObjAddr: 0x48, symBinAddr: 0x13220, symSize: 0x6C }
  - { offset: 0xBB16E, size: 0x8, addend: 0x0, symName: __ZN7leveldb12_GLOBAL__N_112SingletonEnvINS0_8PosixEnvEEC1Ev, symObjAddr: 0xB4, symBinAddr: 0x1328C, symSize: 0x134 }
  - { offset: 0xBBD5D, size: 0x8, addend: 0x0, symName: __ZN7leveldb12_GLOBAL__N_114PosixLockTableD1Ev, symObjAddr: 0x1E8, symBinAddr: 0x133C0, symSize: 0x30 }
  - { offset: 0xBBE49, size: 0x8, addend: 0x0, symName: __ZNSt3__15queueIN7leveldb12_GLOBAL__N_18PosixEnv18BackgroundWorkItemENS_5dequeIS4_NS_9allocatorIS4_EEEEED1Ev, symObjAddr: 0x218, symBinAddr: 0x133F0, symSize: 0xE0 }
  - { offset: 0xBC29F, size: 0x8, addend: 0x0, symName: __ZNSt3__16__treeINS_12basic_stringIcNS_11char_traitsIcEENS_9allocatorIcEEEENS_4lessIS6_EENS4_IS6_EEE7destroyEPNS_11__tree_nodeIS6_PvEE, symObjAddr: 0x184C, symBinAddr: 0x14A14, symSize: 0x50 }
  - { offset: 0xBC7E2, size: 0x8, addend: 0x0, symName: __ZN7leveldb12_GLOBAL__N_18PosixEnvD1Ev, symObjAddr: 0x2F8, symBinAddr: 0x134D0, symSize: 0x3C }
  - { offset: 0xBCA11, size: 0x8, addend: 0x0, symName: __ZN7leveldb12_GLOBAL__N_18PosixEnvD0Ev, symObjAddr: 0x334, symBinAddr: 0x1350C, symSize: 0xC }
  - { offset: 0xBCA3B, size: 0x8, addend: 0x0, symName: __ZN7leveldb12_GLOBAL__N_18PosixEnv17NewSequentialFileERKNSt3__112basic_stringIcNS2_11char_traitsIcEENS2_9allocatorIcEEEEPPNS_14SequentialFileE, symObjAddr: 0x340, symBinAddr: 0x13518, symSize: 0x144 }
  - { offset: 0xBCC3A, size: 0x8, addend: 0x0, symName: __ZN7leveldb12_GLOBAL__N_18PosixEnv17NewSequentialFileERKNSt3__112basic_stringIcNS2_11char_traitsIcEENS2_9allocatorIcEEEEPPNS_14SequentialFileE, symObjAddr: 0x340, symBinAddr: 0x13518, symSize: 0x144 }
  - { offset: 0xBD4B9, size: 0x8, addend: 0x0, symName: __ZN7leveldb12_GLOBAL__N_18PosixEnv19NewRandomAccessFileERKNSt3__112basic_stringIcNS2_11char_traitsIcEENS2_9allocatorIcEEEEPPNS_16RandomAccessFileE, symObjAddr: 0x484, symBinAddr: 0x1365C, symSize: 0x330 }
  - { offset: 0xBDF4B, size: 0x8, addend: 0x0, symName: __ZN7leveldb12_GLOBAL__N_18PosixEnv15NewWritableFileERKNSt3__112basic_stringIcNS2_11char_traitsIcEENS2_9allocatorIcEEEEPPNS_12WritableFileE, symObjAddr: 0x7B4, symBinAddr: 0x1398C, symSize: 0x11C }
  - { offset: 0xBE39C, size: 0x8, addend: 0x0, symName: __ZN7leveldb12_GLOBAL__N_117PosixWritableFileC1ENSt3__112basic_stringIcNS2_11char_traitsIcEENS2_9allocatorIcEEEEi, symObjAddr: 0x1E4C, symBinAddr: 0x14EE0, symSize: 0x1E8 }
  - { offset: 0xBE733, size: 0x8, addend: 0x0, symName: __ZN7leveldb12_GLOBAL__N_18PosixEnv17NewAppendableFileERKNSt3__112basic_stringIcNS2_11char_traitsIcEENS2_9allocatorIcEEEEPPNS_12WritableFileE, symObjAddr: 0x8D0, symBinAddr: 0x13AA8, symSize: 0x11C }
  - { offset: 0xBEB6F, size: 0x8, addend: 0x0, symName: __ZN7leveldb12_GLOBAL__N_18PosixEnv10FileExistsERKNSt3__112basic_stringIcNS2_11char_traitsIcEENS2_9allocatorIcEEEE, symObjAddr: 0x9EC, symBinAddr: 0x13BC4, symSize: 0x30 }
  - { offset: 0xBEDE7, size: 0x8, addend: 0x0, symName: __ZN7leveldb12_GLOBAL__N_18PosixEnv11GetChildrenERKNSt3__112basic_stringIcNS2_11char_traitsIcEENS2_9allocatorIcEEEEPNS2_6vectorIS8_NS6_IS8_EEEE, symObjAddr: 0xA1C, symBinAddr: 0x13BF4, symSize: 0xC8 }
  - { offset: 0xBF459, size: 0x8, addend: 0x0, symName: __ZN7leveldb12_GLOBAL__N_117PosixWritableFile15WriteUnbufferedEPKcm, symObjAddr: 0x2450, symBinAddr: 0x1543C, symSize: 0xA4 }
  - { offset: 0xBF470, size: 0x8, addend: 0x0, symName: __ZNSt3__16vectorINS_12basic_stringIcNS_11char_traitsIcEENS_9allocatorIcEEEENS4_IS6_EEE24__emplace_back_slow_pathIJRA1024_cEEEPS6_DpOT_, symObjAddr: 0x25A8, symBinAddr: 0x15548, symSize: 0x120 }
  - { offset: 0xBF7F6, size: 0x8, addend: 0x0, symName: __ZN7leveldb12_GLOBAL__N_18PosixEnv10RemoveFileERKNSt3__112basic_stringIcNS2_11char_traitsIcEENS2_9allocatorIcEEEE, symObjAddr: 0xAE4, symBinAddr: 0x13CBC, symSize: 0x58 }
  - { offset: 0xBF925, size: 0x8, addend: 0x0, symName: __ZN7leveldb12_GLOBAL__N_18PosixEnv9CreateDirERKNSt3__112basic_stringIcNS2_11char_traitsIcEENS2_9allocatorIcEEEE, symObjAddr: 0xB3C, symBinAddr: 0x13D14, symSize: 0x5C }
  - { offset: 0xBFA77, size: 0x8, addend: 0x0, symName: __ZN7leveldb12_GLOBAL__N_18PosixEnv9RemoveDirERKNSt3__112basic_stringIcNS2_11char_traitsIcEENS2_9allocatorIcEEEE, symObjAddr: 0xB98, symBinAddr: 0x13D70, symSize: 0x58 }
  - { offset: 0xBFBA6, size: 0x8, addend: 0x0, symName: __ZN7leveldb12_GLOBAL__N_18PosixEnv11GetFileSizeERKNSt3__112basic_stringIcNS2_11char_traitsIcEENS2_9allocatorIcEEEEPy, symObjAddr: 0xBF0, symBinAddr: 0x13DC8, symSize: 0x78 }
  - { offset: 0xBFEB6, size: 0x8, addend: 0x0, symName: __ZN7leveldb12_GLOBAL__N_18PosixEnv10RenameFileERKNSt3__112basic_stringIcNS2_11char_traitsIcEENS2_9allocatorIcEEEESA_, symObjAddr: 0xC68, symBinAddr: 0x13E40, symSize: 0x68 }
  - { offset: 0xC02C2, size: 0x8, addend: 0x0, symName: __ZN7leveldb12_GLOBAL__N_18PosixEnv8LockFileERKNSt3__112basic_stringIcNS2_11char_traitsIcEENS2_9allocatorIcEEEEPPNS_8FileLockE, symObjAddr: 0xCD0, symBinAddr: 0x13EA8, symSize: 0x23C }
  - { offset: 0xC092C, size: 0x8, addend: 0x0, symName: __ZNSt3__16__treeINS_12basic_stringIcNS_11char_traitsIcEENS_9allocatorIcEEEENS_4lessIS6_EENS4_IS6_EEE25__emplace_unique_key_argsIS6_JRKS6_EEENS_4pairINS_15__tree_iteratorIS6_PNS_11__tree_nodeIS6_PvEElEEbEERKT_DpOT0_, symObjAddr: 0x27A8, symBinAddr: 0x15668, symSize: 0x7C }
  - { offset: 0xC0AA6, size: 0x8, addend: 0x0, symName: __ZNSt3__16__treeINS_12basic_stringIcNS_11char_traitsIcEENS_9allocatorIcEEEENS_4lessIS6_EENS4_IS6_EEE14__erase_uniqueIS6_EEmRKT_, symObjAddr: 0x2C00, symBinAddr: 0x158D0, symSize: 0x44 }
  - { offset: 0xC0B8E, size: 0x8, addend: 0x0, symName: __ZN7leveldb12_GLOBAL__N_18PosixEnv10UnlockFileEPNS_8FileLockE, symObjAddr: 0xF0C, symBinAddr: 0x140E4, symSize: 0xF4 }
  - { offset: 0xC2004, size: 0x8, addend: 0x0, symName: __ZN7leveldb12_GLOBAL__N_18PosixEnv8ScheduleEPFvPvES2_, symObjAddr: 0x1000, symBinAddr: 0x141D8, symSize: 0x5D0 }
  - { offset: 0xC3DBE, size: 0x8, addend: 0x0, symName: __ZNSt3__110unique_ptrINS_5tupleIJNS0_INS_15__thread_structENS_14default_deleteIS2_EEEEPFvPN7leveldb12_GLOBAL__N_18PosixEnvEES9_EEENS3_ISC_EEED1B8ne190102Ev, symObjAddr: 0x3290, symBinAddr: 0x15B70, symSize: 0x40 }
  - { offset: 0xC3F80, size: 0x8, addend: 0x0, symName: __ZN7leveldb12_GLOBAL__N_18PosixEnv11StartThreadEPFvPvES2_, symObjAddr: 0x15D0, symBinAddr: 0x147A8, symSize: 0x58 }
  - { offset: 0xC4025, size: 0x8, addend: 0x0, symName: __ZNSt3__16threadC2IRPFvPvEJRS2_ELi0EEEOT_DpOT0_, symObjAddr: 0x32F8, symBinAddr: 0x15BD8, symSize: 0xC8 }
  - { offset: 0xC4422, size: 0x8, addend: 0x0, symName: __ZN7leveldb12_GLOBAL__N_18PosixEnv16GetTestDirectoryEPNSt3__112basic_stringIcNS2_11char_traitsIcEENS2_9allocatorIcEEEE, symObjAddr: 0x1628, symBinAddr: 0x14800, symSize: 0xCC }
  - { offset: 0xC4610, size: 0x8, addend: 0x0, symName: __ZN7leveldb12_GLOBAL__N_18PosixEnv9NewLoggerERKNSt3__112basic_stringIcNS2_11char_traitsIcEENS2_9allocatorIcEEEEPPNS_6LoggerE, symObjAddr: 0x16F4, symBinAddr: 0x148CC, symSize: 0xDC }
  - { offset: 0xC47DB, size: 0x8, addend: 0x0, symName: __ZN7leveldb11PosixLoggerC2EP7__sFILE, symObjAddr: 0x3474, symBinAddr: 0x15D54, symSize: 0x6C }
  - { offset: 0xC4870, size: 0x8, addend: 0x0, symName: __ZN7leveldb12_GLOBAL__N_18PosixEnv20SleepForMicrosecondsEi, symObjAddr: 0x1808, symBinAddr: 0x149E0, symSize: 0x34 }
  - { offset: 0xC48A5, size: 0x8, addend: 0x0, symName: __ZN7leveldb12_GLOBAL__N_18PosixEnv20SleepForMicrosecondsEi, symObjAddr: 0x1808, symBinAddr: 0x149E0, symSize: 0x34 }
  - { offset: 0xC4B33, size: 0x8, addend: 0x0, symName: __ZN7leveldb12_GLOBAL__N_119PosixSequentialFileD1Ev, symObjAddr: 0x1A84, symBinAddr: 0x14B18, symSize: 0x3C }
  - { offset: 0xC4CAB, size: 0x8, addend: 0x0, symName: __ZN7leveldb12_GLOBAL__N_119PosixSequentialFileD0Ev, symObjAddr: 0x1AC0, symBinAddr: 0x14B54, symSize: 0x14 }
  - { offset: 0xC4CE8, size: 0x8, addend: 0x0, symName: __ZN7leveldb12_GLOBAL__N_119PosixSequentialFile4ReadEmPNS_5SliceEPc, symObjAddr: 0x1AD4, symBinAddr: 0x14B68, symSize: 0x90 }
  - { offset: 0xC4E74, size: 0x8, addend: 0x0, symName: __ZN7leveldb12_GLOBAL__N_119PosixSequentialFile4SkipEy, symObjAddr: 0x1B64, symBinAddr: 0x14BF8, symSize: 0x54 }
  - { offset: 0xC4F5F, size: 0x8, addend: 0x0, symName: __ZN7leveldb12_GLOBAL__N_121PosixRandomAccessFileD1Ev, symObjAddr: 0x1BB8, symBinAddr: 0x14C4C, symSize: 0x88 }
  - { offset: 0xC515A, size: 0x8, addend: 0x0, symName: __ZN7leveldb12_GLOBAL__N_121PosixRandomAccessFileD0Ev, symObjAddr: 0x1C40, symBinAddr: 0x14CD4, symSize: 0x14 }
  - { offset: 0xC5197, size: 0x8, addend: 0x0, symName: __ZNK7leveldb12_GLOBAL__N_121PosixRandomAccessFile4ReadEymPNS_5SliceEPc, symObjAddr: 0x1C54, symBinAddr: 0x14CE8, symSize: 0x154 }
  - { offset: 0xC5415, size: 0x8, addend: 0x0, symName: __ZNK7leveldb12_GLOBAL__N_121PosixRandomAccessFile4ReadEymPNS_5SliceEPc.cold.1, symObjAddr: 0x4568, symBinAddr: 0x27114, symSize: 0x28 }
  - { offset: 0xC546A, size: 0x8, addend: 0x0, symName: __ZN7leveldb12_GLOBAL__N_121PosixMmapReadableFileD1Ev, symObjAddr: 0x1DA8, symBinAddr: 0x14E3C, symSize: 0x54 }
  - { offset: 0xC566B, size: 0x8, addend: 0x0, symName: __ZN7leveldb12_GLOBAL__N_121PosixMmapReadableFileD0Ev, symObjAddr: 0x1DFC, symBinAddr: 0x14E90, symSize: 0x14 }
  - { offset: 0xC56A8, size: 0x8, addend: 0x0, symName: __ZNK7leveldb12_GLOBAL__N_121PosixMmapReadableFile4ReadEymPNS_5SliceEPc, symObjAddr: 0x1E10, symBinAddr: 0x14EA4, symSize: 0x3C }
  - { offset: 0xC5898, size: 0x8, addend: 0x0, symName: __ZN7leveldb12_GLOBAL__N_117PosixWritableFileD1Ev, symObjAddr: 0x2034, symBinAddr: 0x150C8, symSize: 0x74 }
  - { offset: 0xC5B6A, size: 0x8, addend: 0x0, symName: __ZN7leveldb12_GLOBAL__N_117PosixWritableFile5CloseEv, symObjAddr: 0x21C8, symBinAddr: 0x1525C, symSize: 0xAC }
  - { offset: 0xC5CF3, size: 0x8, addend: 0x0, symName: __ZN7leveldb12_GLOBAL__N_117PosixWritableFileD0Ev, symObjAddr: 0x20A8, symBinAddr: 0x1513C, symSize: 0x14 }
  - { offset: 0xC5DAA, size: 0x8, addend: 0x0, symName: __ZN7leveldb12_GLOBAL__N_117PosixWritableFile6AppendERKNS_5SliceE, symObjAddr: 0x20BC, symBinAddr: 0x15150, symSize: 0x10C }
  - { offset: 0xC5FB9, size: 0x8, addend: 0x0, symName: __ZN7leveldb12_GLOBAL__N_117PosixWritableFile15WriteUnbufferedEPKcm, symObjAddr: 0x2450, symBinAddr: 0x1543C, symSize: 0xA4 }
  - { offset: 0xC60A8, size: 0x8, addend: 0x0, symName: __ZN7leveldb12_GLOBAL__N_117PosixWritableFile5FlushEv, symObjAddr: 0x2274, symBinAddr: 0x15308, symSize: 0x34 }
  - { offset: 0xC613C, size: 0x8, addend: 0x0, symName: __ZN7leveldb12_GLOBAL__N_117PosixWritableFile4SyncEv, symObjAddr: 0x22A8, symBinAddr: 0x1533C, symSize: 0x100 }
  - { offset: 0xC6456, size: 0x8, addend: 0x0, symName: __ZN7leveldb12_GLOBAL__N_117PosixWritableFile6SyncFdEiRKNSt3__112basic_stringIcNS2_11char_traitsIcEENS2_9allocatorIcEEEE, symObjAddr: 0x24F4, symBinAddr: 0x154E0, symSize: 0x68 }
  - { offset: 0xC6ABE, size: 0x8, addend: 0x0, symName: __ZNSt3__16__treeINS_12basic_stringIcNS_11char_traitsIcEENS_9allocatorIcEEEENS_4lessIS6_EENS4_IS6_EEE12__find_equalIS6_EERPNS_16__tree_node_baseIPvEERPNS_15__tree_end_nodeISF_EERKT_, symObjAddr: 0x2824, symBinAddr: 0x156E4, symSize: 0x98 }
  - { offset: 0xC6B88, size: 0x8, addend: 0x0, symName: __ZNSt3__16__treeINS_12basic_stringIcNS_11char_traitsIcEENS_9allocatorIcEEEENS_4lessIS6_EENS4_IS6_EEE16__construct_nodeIJRKS6_EEENS_10unique_ptrINS_11__tree_nodeIS6_PvEENS_22__tree_node_destructorINS4_ISH_EEEEEEDpOT_, symObjAddr: 0x28BC, symBinAddr: 0x1577C, symSize: 0x9C }
  - { offset: 0xC6EAB, size: 0x8, addend: 0x0, symName: __ZNKSt3__14lessINS_12basic_stringIcNS_11char_traitsIcEENS_9allocatorIcEEEEEclB8ne190102ERKS6_S9_, symObjAddr: 0x29AC, symBinAddr: 0x15818, symSize: 0x68 }
  - { offset: 0xC72C8, size: 0x8, addend: 0x0, symName: __ZNSt3__122__tree_node_destructorINS_9allocatorINS_11__tree_nodeINS_12basic_stringIcNS_11char_traitsIcEENS1_IcEEEEPvEEEEEclB8ne190102EPS9_, symObjAddr: 0x2BB0, symBinAddr: 0x15880, symSize: 0x50 }
  - { offset: 0xC7666, size: 0x8, addend: 0x0, symName: __ZNSt3__16__treeINS_12basic_stringIcNS_11char_traitsIcEENS_9allocatorIcEEEENS_4lessIS6_EENS4_IS6_EEE4findIS6_EENS_15__tree_iteratorIS6_PNS_11__tree_nodeIS6_PvEElEERKT_, symObjAddr: 0x2C44, symBinAddr: 0x15914, symSize: 0x8C }
  - { offset: 0xC7758, size: 0x8, addend: 0x0, symName: __ZNSt3__16__treeINS_12basic_stringIcNS_11char_traitsIcEENS_9allocatorIcEEEENS_4lessIS6_EENS4_IS6_EEE5eraseENS_21__tree_const_iteratorIS6_PNS_11__tree_nodeIS6_PvEElEE, symObjAddr: 0x2CD0, symBinAddr: 0x159A0, symSize: 0x40 }
  - { offset: 0xC7AFA, size: 0x8, addend: 0x0, symName: __ZN7leveldb12_GLOBAL__N_113PosixFileLockD1Ev, symObjAddr: 0x3100, symBinAddr: 0x159E0, symSize: 0x3C }
  - { offset: 0xC7C7B, size: 0x8, addend: 0x0, symName: __ZN7leveldb12_GLOBAL__N_113PosixFileLockD0Ev, symObjAddr: 0x313C, symBinAddr: 0x15A1C, symSize: 0x40 }
  - { offset: 0xC7F48, size: 0x8, addend: 0x0, symName: __ZN7leveldb12_GLOBAL__N_18PosixEnv26BackgroundThreadEntryPointEPS1_, symObjAddr: 0x317C, symBinAddr: 0x15A5C, symSize: 0xAC }
  - { offset: 0xC8455, size: 0x8, addend: 0x0, symName: __ZNSt3__110unique_ptrINS_15__thread_structENS_14default_deleteIS1_EEE5resetB8ne190102EPS1_, symObjAddr: 0x32D0, symBinAddr: 0x15BB0, symSize: 0x28 }
  - { offset: 0xC88F7, size: 0x8, addend: 0x0, symName: __ZNSt3__110unique_ptrINS_5tupleIJNS0_INS_15__thread_structENS_14default_deleteIS2_EEEEPFvPvES6_EEENS3_IS9_EEE5resetB8ne190102EPS9_, symObjAddr: 0x3434, symBinAddr: 0x15D14, symSize: 0x40 }
  - { offset: 0xC8B0F, size: 0x8, addend: 0x0, symName: __ZN7leveldb11PosixLoggerD1Ev, symObjAddr: 0x34E0, symBinAddr: 0x15DC0, symSize: 0x28 }
  - { offset: 0xC8B86, size: 0x8, addend: 0x0, symName: __ZN7leveldb11PosixLoggerD0Ev, symObjAddr: 0x3508, symBinAddr: 0x15DE8, symSize: 0x2C }
  - { offset: 0xC8CE0, size: 0x8, addend: 0x0, symName: __ZN7leveldb11PosixLogger4LogvEPKcPc, symObjAddr: 0x3534, symBinAddr: 0x15E14, symSize: 0x344 }
  - { offset: 0xC9F86, size: 0x8, addend: 0x0, symName: __ZN7leveldb18EnvPosixTestHelper18SetReadOnlyFDLimitEi.cold.1, symObjAddr: 0x4518, symBinAddr: 0x270EC, symSize: 0x28 }
  - { offset: 0xCBBFB, size: 0x8, addend: 0x0, symName: __ZN7leveldb11LogFileNameERKNSt3__112basic_stringIcNS0_11char_traitsIcEENS0_9allocatorIcEEEEy, symObjAddr: 0x0, symBinAddr: 0x1630C, symSize: 0x1C }
  - { offset: 0xCE885, size: 0x8, addend: 0x0, symName: __ZN7leveldb11LogFileNameERKNSt3__112basic_stringIcNS0_11char_traitsIcEENS0_9allocatorIcEEEEy, symObjAddr: 0x0, symBinAddr: 0x1630C, symSize: 0x1C }
  - { offset: 0xCE8D1, size: 0x8, addend: 0x0, symName: __ZN7leveldbL12MakeFileNameERKNSt3__112basic_stringIcNS0_11char_traitsIcEENS0_9allocatorIcEEEEyPKc, symObjAddr: 0x1C, symBinAddr: 0x16328, symSize: 0xF4 }
  - { offset: 0xCE8DC, size: 0x8, addend: 0x0, symName: __ZN7leveldbL12MakeFileNameERKNSt3__112basic_stringIcNS0_11char_traitsIcEENS0_9allocatorIcEEEEyPKc, symObjAddr: 0x1C, symBinAddr: 0x16328, symSize: 0xF4 }
  - { offset: 0xCEC24, size: 0x8, addend: 0x0, symName: __ZN7leveldb13TableFileNameERKNSt3__112basic_stringIcNS0_11char_traitsIcEENS0_9allocatorIcEEEEy, symObjAddr: 0x110, symBinAddr: 0x1641C, symSize: 0x1C }
  - { offset: 0xCEC70, size: 0x8, addend: 0x0, symName: __ZN7leveldb16SSTTableFileNameERKNSt3__112basic_stringIcNS0_11char_traitsIcEENS0_9allocatorIcEEEEy, symObjAddr: 0x12C, symBinAddr: 0x16438, symSize: 0x1C }
  - { offset: 0xCEC7A, size: 0x8, addend: 0x0, symName: __ZN7leveldb16SSTTableFileNameERKNSt3__112basic_stringIcNS0_11char_traitsIcEENS0_9allocatorIcEEEEy, symObjAddr: 0x12C, symBinAddr: 0x16438, symSize: 0x1C }
  - { offset: 0xCECC6, size: 0x8, addend: 0x0, symName: __ZN7leveldb18DescriptorFileNameERKNSt3__112basic_stringIcNS0_11char_traitsIcEENS0_9allocatorIcEEEEy, symObjAddr: 0x148, symBinAddr: 0x16454, symSize: 0x100 }
  - { offset: 0xCECD0, size: 0x8, addend: 0x0, symName: __ZN7leveldb18DescriptorFileNameERKNSt3__112basic_stringIcNS0_11char_traitsIcEENS0_9allocatorIcEEEEy, symObjAddr: 0x148, symBinAddr: 0x16454, symSize: 0x100 }
  - { offset: 0xCF016, size: 0x8, addend: 0x0, symName: __ZN7leveldb15CurrentFileNameERKNSt3__112basic_stringIcNS0_11char_traitsIcEENS0_9allocatorIcEEEE, symObjAddr: 0x248, symBinAddr: 0x16554, symSize: 0x9C }
  - { offset: 0xCF2A8, size: 0x8, addend: 0x0, symName: __ZN7leveldb12LockFileNameERKNSt3__112basic_stringIcNS0_11char_traitsIcEENS0_9allocatorIcEEEE, symObjAddr: 0x2E4, symBinAddr: 0x165F0, symSize: 0x98 }
  - { offset: 0xCF4C3, size: 0x8, addend: 0x0, symName: __ZN7leveldb12TempFileNameERKNSt3__112basic_stringIcNS0_11char_traitsIcEENS0_9allocatorIcEEEEy, symObjAddr: 0x37C, symBinAddr: 0x16688, symSize: 0x1C }
  - { offset: 0xCF50F, size: 0x8, addend: 0x0, symName: __ZN7leveldb15InfoLogFileNameERKNSt3__112basic_stringIcNS0_11char_traitsIcEENS0_9allocatorIcEEEE, symObjAddr: 0x398, symBinAddr: 0x166A4, symSize: 0x94 }
  - { offset: 0xCF519, size: 0x8, addend: 0x0, symName: __ZN7leveldb15InfoLogFileNameERKNSt3__112basic_stringIcNS0_11char_traitsIcEENS0_9allocatorIcEEEE, symObjAddr: 0x398, symBinAddr: 0x166A4, symSize: 0x94 }
  - { offset: 0xCF7AB, size: 0x8, addend: 0x0, symName: __ZN7leveldb18OldInfoLogFileNameERKNSt3__112basic_stringIcNS0_11char_traitsIcEENS0_9allocatorIcEEEE, symObjAddr: 0x42C, symBinAddr: 0x16738, symSize: 0x9C }
  - { offset: 0xCFA64, size: 0x8, addend: 0x0, symName: __ZN7leveldb13ParseFileNameERKNSt3__112basic_stringIcNS0_11char_traitsIcEENS0_9allocatorIcEEEEPyPNS_8FileTypeE, symObjAddr: 0x4C8, symBinAddr: 0x167D4, symSize: 0x1CC }
  - { offset: 0xCFD35, size: 0x8, addend: 0x0, symName: __ZN7leveldb14SetCurrentFileEPNS_3EnvERKNSt3__112basic_stringIcNS2_11char_traitsIcEENS2_9allocatorIcEEEEy, symObjAddr: 0x694, symBinAddr: 0x169A0, symSize: 0x360 }
  - { offset: 0xD125D, size: 0x8, addend: 0x0, symName: __ZN7leveldb11LogFileNameERKNSt3__112basic_stringIcNS0_11char_traitsIcEENS0_9allocatorIcEEEEy.cold.1, symObjAddr: 0xB98, symBinAddr: 0x2713C, symSize: 0x28 }
  - { offset: 0xD14AF, size: 0x8, addend: 0x0, symName: __ZN7leveldb11LogFileNameERKNSt3__112basic_stringIcNS0_11char_traitsIcEENS0_9allocatorIcEEEEy.cold.1, symObjAddr: 0xB98, symBinAddr: 0x2713C, symSize: 0x28 }
  - { offset: 0xD14C0, size: 0x8, addend: 0x0, symName: __ZN7leveldb13TableFileNameERKNSt3__112basic_stringIcNS0_11char_traitsIcEENS0_9allocatorIcEEEEy.cold.1, symObjAddr: 0xBC0, symBinAddr: 0x27164, symSize: 0x28 }
  - { offset: 0xD14D8, size: 0x8, addend: 0x0, symName: __ZN7leveldb16SSTTableFileNameERKNSt3__112basic_stringIcNS0_11char_traitsIcEENS0_9allocatorIcEEEEy.cold.1, symObjAddr: 0xBE8, symBinAddr: 0x2718C, symSize: 0x28 }
  - { offset: 0xD14F0, size: 0x8, addend: 0x0, symName: __ZN7leveldb18DescriptorFileNameERKNSt3__112basic_stringIcNS0_11char_traitsIcEENS0_9allocatorIcEEEEy.cold.1, symObjAddr: 0xC10, symBinAddr: 0x271B4, symSize: 0x28 }
  - { offset: 0xD1508, size: 0x8, addend: 0x0, symName: __ZN7leveldb12TempFileNameERKNSt3__112basic_stringIcNS0_11char_traitsIcEENS0_9allocatorIcEEEEy.cold.1, symObjAddr: 0xC38, symBinAddr: 0x271DC, symSize: 0x28 }
  - { offset: 0xD3923, size: 0x8, addend: 0x0, symName: __ZN7leveldb18FilterBlockBuilderC2EPKNS_12FilterPolicyE, symObjAddr: 0x0, symBinAddr: 0x16D00, symSize: 0x2C }
  - { offset: 0xD8D79, size: 0x8, addend: 0x0, symName: __ZNSt3__16vectorIN7leveldb5SliceENS_9allocatorIS2_EEE8__appendEm, symObjAddr: 0x800, symBinAddr: 0x173D4, symSize: 0x10C }
  - { offset: 0xD8ECB, size: 0x8, addend: 0x0, symName: __ZNSt3__119__allocate_at_leastB8ne190102INS_9allocatorIN7leveldb5SliceEEEEENS_19__allocation_resultINS_16allocator_traitsIT_E7pointerEEERS7_m, symObjAddr: 0x920, symBinAddr: 0x174E0, symSize: 0x34 }
  - { offset: 0xD8F68, size: 0x8, addend: 0x0, symName: __ZN7leveldb18FilterBlockBuilder10StartBlockEy.cold.1, symObjAddr: 0x954, symBinAddr: 0x27204, symSize: 0x28 }
  - { offset: 0xD9F3E, size: 0x8, addend: 0x0, symName: __ZN7leveldb18FilterBlockBuilderC2EPKNS_12FilterPolicyE, symObjAddr: 0x0, symBinAddr: 0x16D00, symSize: 0x2C }
  - { offset: 0xD9FCB, size: 0x8, addend: 0x0, symName: __ZN7leveldb18FilterBlockBuilderC1EPKNS_12FilterPolicyE, symObjAddr: 0x2C, symBinAddr: 0x16D2C, symSize: 0x2C }
  - { offset: 0xDA005, size: 0x8, addend: 0x0, symName: __ZN7leveldb18FilterBlockBuilderC1EPKNS_12FilterPolicyE, symObjAddr: 0x2C, symBinAddr: 0x16D2C, symSize: 0x2C }
  - { offset: 0xDA07B, size: 0x8, addend: 0x0, symName: __ZN7leveldb18FilterBlockBuilder10StartBlockEy, symObjAddr: 0x58, symBinAddr: 0x16D58, symSize: 0x58 }
  - { offset: 0xDA129, size: 0x8, addend: 0x0, symName: __ZN7leveldb18FilterBlockBuilder14GenerateFilterEv, symObjAddr: 0xB0, symBinAddr: 0x16DB0, symSize: 0x324 }
  - { offset: 0xDA133, size: 0x8, addend: 0x0, symName: __ZN7leveldb18FilterBlockBuilder14GenerateFilterEv, symObjAddr: 0xB0, symBinAddr: 0x16DB0, symSize: 0x324 }
  - { offset: 0xDAE78, size: 0x8, addend: 0x0, symName: __ZN7leveldb18FilterBlockBuilder6AddKeyERKNS_5SliceE, symObjAddr: 0x3D4, symBinAddr: 0x170D4, symSize: 0x104 }
  - { offset: 0xDAE8A, size: 0x8, addend: 0x0, symName: __ZN7leveldb18FilterBlockBuilder10StartBlockEy.cold.1, symObjAddr: 0x954, symBinAddr: 0x27204, symSize: 0x28 }
  - { offset: 0xDB6B5, size: 0x8, addend: 0x0, symName: __ZNSt3__16vectorIN7leveldb5SliceENS_9allocatorIS2_EEE6resizeEm, symObjAddr: 0x580, symBinAddr: 0x17280, symSize: 0x30 }
  - { offset: 0xDB6FF, size: 0x8, addend: 0x0, symName: __ZNSt3__16vectorIN7leveldb5SliceENS_9allocatorIS2_EEE6resizeEm, symObjAddr: 0x580, symBinAddr: 0x17280, symSize: 0x30 }
  - { offset: 0xDB7B0, size: 0x8, addend: 0x0, symName: __ZN7leveldb18FilterBlockBuilder6AddKeyERKNS_5SliceE, symObjAddr: 0x3D4, symBinAddr: 0x170D4, symSize: 0x104 }
  - { offset: 0xDBB1E, size: 0x8, addend: 0x0, symName: __ZN7leveldb18FilterBlockBuilder6FinishEv, symObjAddr: 0x4D8, symBinAddr: 0x171D8, symSize: 0xA8 }
  - { offset: 0xDBB89, size: 0x8, addend: 0x0, symName: __ZN7leveldb18FilterBlockBuilder6FinishEv, symObjAddr: 0x4D8, symBinAddr: 0x171D8, symSize: 0xA8 }
  - { offset: 0xDBD78, size: 0x8, addend: 0x0, symName: __ZNSt3__16vectorIN7leveldb5SliceENS_9allocatorIS2_EEE8__appendEm, symObjAddr: 0x800, symBinAddr: 0x173D4, symSize: 0x10C }
  - { offset: 0xDC225, size: 0x8, addend: 0x0, symName: __ZN7leveldb17FilterBlockReaderC2EPKNS_12FilterPolicyERKNS_5SliceE, symObjAddr: 0x5B0, symBinAddr: 0x172B0, symSize: 0x4C }
  - { offset: 0xDC324, size: 0x8, addend: 0x0, symName: __ZN7leveldb17FilterBlockReaderC1EPKNS_12FilterPolicyERKNS_5SliceE, symObjAddr: 0x5FC, symBinAddr: 0x172FC, symSize: 0x4C }
  - { offset: 0xDC36C, size: 0x8, addend: 0x0, symName: __ZN7leveldb17FilterBlockReaderC1EPKNS_12FilterPolicyERKNS_5SliceE, symObjAddr: 0x5FC, symBinAddr: 0x172FC, symSize: 0x4C }
  - { offset: 0xDC46E, size: 0x8, addend: 0x0, symName: __ZN7leveldb17FilterBlockReader11KeyMayMatchEyRKNS_5SliceE, symObjAddr: 0x648, symBinAddr: 0x17348, symSize: 0x8C }
  - { offset: 0xDC99A, size: 0x8, addend: 0x0, symName: __ZNSt3__119__allocate_at_leastB8ne190102INS_9allocatorIN7leveldb5SliceEEEEENS_19__allocation_resultINS_16allocator_traitsIT_E7pointerEEERS7_m, symObjAddr: 0x920, symBinAddr: 0x174E0, symSize: 0x34 }
  - { offset: 0xDE87B, size: 0x8, addend: 0x0, symName: __ZN7leveldb12FilterPolicyD2Ev, symObjAddr: 0x0, symBinAddr: 0x17514, symSize: 0x4 }
  - { offset: 0xDF406, size: 0x8, addend: 0x0, symName: __ZN7leveldb12FilterPolicyD2Ev, symObjAddr: 0x0, symBinAddr: 0x17514, symSize: 0x4 }
  - { offset: 0xDF42F, size: 0x8, addend: 0x0, symName: __ZN7leveldb12FilterPolicyD1Ev, symObjAddr: 0x4, symBinAddr: 0x17518, symSize: 0x4 }
  - { offset: 0xDF456, size: 0x8, addend: 0x0, symName: __ZN7leveldb12FilterPolicyD0Ev, symObjAddr: 0x8, symBinAddr: 0x1751C, symSize: 0x4 }
  - { offset: 0xE1323, size: 0x8, addend: 0x0, symName: __ZNK7leveldb11BlockHandle8EncodeToEPNSt3__112basic_stringIcNS1_11char_traitsIcEENS1_9allocatorIcEEEE, symObjAddr: 0x0, symBinAddr: 0x17520, symSize: 0x50 }
  - { offset: 0xE15F1, size: 0x8, addend: 0x0, symName: __ZN7leveldb9ReadBlockEPNS_16RandomAccessFileERKNS_11ReadOptionsERKNS_11BlockHandleEPNS_13BlockContentsE, symObjAddr: 0x268, symBinAddr: 0x17788, symSize: 0x260 }
  - { offset: 0xE46E3, size: 0x8, addend: 0x0, symName: __ZNK7leveldb11BlockHandle8EncodeToEPNSt3__112basic_stringIcNS1_11char_traitsIcEENS1_9allocatorIcEEEE, symObjAddr: 0x0, symBinAddr: 0x17520, symSize: 0x50 }
  - { offset: 0xE474A, size: 0x8, addend: 0x0, symName: __ZN7leveldb11BlockHandle10DecodeFromEPNS_5SliceE, symObjAddr: 0x50, symBinAddr: 0x17570, symSize: 0x8C }
  - { offset: 0xE4755, size: 0x8, addend: 0x0, symName: __ZNK7leveldb11BlockHandle8EncodeToEPNSt3__112basic_stringIcNS1_11char_traitsIcEENS1_9allocatorIcEEEE.cold.2, symObjAddr: 0x4F0, symBinAddr: 0x27254, symSize: 0x28 }
  - { offset: 0xE476D, size: 0x8, addend: 0x0, symName: __ZNK7leveldb11BlockHandle8EncodeToEPNSt3__112basic_stringIcNS1_11char_traitsIcEENS1_9allocatorIcEEEE.cold.1, symObjAddr: 0x4C8, symBinAddr: 0x2722C, symSize: 0x28 }
  - { offset: 0xE4853, size: 0x8, addend: 0x0, symName: __ZN7leveldb11BlockHandle10DecodeFromEPNS_5SliceE, symObjAddr: 0x50, symBinAddr: 0x17570, symSize: 0x8C }
  - { offset: 0xE4A21, size: 0x8, addend: 0x0, symName: __ZNK7leveldb6Footer8EncodeToEPNSt3__112basic_stringIcNS1_11char_traitsIcEENS1_9allocatorIcEEEE, symObjAddr: 0xDC, symBinAddr: 0x175FC, symSize: 0x98 }
  - { offset: 0xE4B93, size: 0x8, addend: 0x0, symName: __ZN7leveldb6Footer10DecodeFromEPNS_5SliceE, symObjAddr: 0x174, symBinAddr: 0x17694, symSize: 0xF4 }
  - { offset: 0xE4B9E, size: 0x8, addend: 0x0, symName: __ZNK7leveldb6Footer8EncodeToEPNSt3__112basic_stringIcNS1_11char_traitsIcEENS1_9allocatorIcEEEE.cold.1, symObjAddr: 0x518, symBinAddr: 0x2727C, symSize: 0x28 }
  - { offset: 0xE4C42, size: 0x8, addend: 0x0, symName: __ZN7leveldb6Footer10DecodeFromEPNS_5SliceE, symObjAddr: 0x174, symBinAddr: 0x17694, symSize: 0xF4 }
  - { offset: 0xE6E6F, size: 0x8, addend: 0x0, symName: __ZN7leveldb4HashEPKcmj, symObjAddr: 0x0, symBinAddr: 0x179E8, symSize: 0x88 }
  - { offset: 0xE6EC1, size: 0x8, addend: 0x0, symName: __ZN7leveldb4HashEPKcmj, symObjAddr: 0x0, symBinAddr: 0x179E8, symSize: 0x88 }
  - { offset: 0xE99A7, size: 0x8, addend: 0x0, symName: __ZN7leveldb9Histogram5ClearEv, symObjAddr: 0x0, symBinAddr: 0x17A70, symSize: 0x1C }
  - { offset: 0xE99C0, size: 0x8, addend: 0x0, symName: __ZN7leveldb9Histogram12kBucketLimitE, symObjAddr: 0x440, symBinAddr: 0x2A1D8, symSize: 0x0 }
  - { offset: 0xEC573, size: 0x8, addend: 0x0, symName: __ZN7leveldb9Histogram5ClearEv, symObjAddr: 0x0, symBinAddr: 0x17A70, symSize: 0x1C }
  - { offset: 0xEC59B, size: 0x8, addend: 0x0, symName: __ZN7leveldb9Histogram3AddEd, symObjAddr: 0x1C, symBinAddr: 0x17A8C, symSize: 0x7C }
  - { offset: 0xEC5DF, size: 0x8, addend: 0x0, symName: __ZN7leveldb9Histogram5MergeERKS0_, symObjAddr: 0x98, symBinAddr: 0x17B08, symSize: 0x6C }
  - { offset: 0xEC62F, size: 0x8, addend: 0x0, symName: __ZNK7leveldb9Histogram6MedianEv, symObjAddr: 0x104, symBinAddr: 0x17B74, symSize: 0xC }
  - { offset: 0xEC664, size: 0x8, addend: 0x0, symName: __ZNK7leveldb9Histogram10PercentileEd, symObjAddr: 0x110, symBinAddr: 0x17B80, symSize: 0x98 }
  - { offset: 0xEC734, size: 0x8, addend: 0x0, symName: __ZNK7leveldb9Histogram7AverageEv, symObjAddr: 0x1A8, symBinAddr: 0x17C18, symSize: 0x20 }
  - { offset: 0xEC753, size: 0x8, addend: 0x0, symName: __ZNK7leveldb9Histogram17StandardDeviationEv, symObjAddr: 0x1C8, symBinAddr: 0x17C38, symSize: 0x30 }
  - { offset: 0xEC966, size: 0x8, addend: 0x0, symName: __ZNK7leveldb9Histogram8ToStringEv, symObjAddr: 0x1F8, symBinAddr: 0x17C68, symSize: 0x228 }
  - { offset: 0xEEB2D, size: 0x8, addend: 0x0, symName: __ZN7leveldb16NewEmptyIteratorEv, symObjAddr: 0x11C, symBinAddr: 0x17F9C, symSize: 0x50 }
  - { offset: 0xEED07, size: 0x8, addend: 0x0, symName: __ZN7leveldb16NewErrorIteratorERKNS_6StatusE, symObjAddr: 0x1C0, symBinAddr: 0x18040, symSize: 0x48 }
  - { offset: 0xEF8DA, size: 0x8, addend: 0x0, symName: __ZN7leveldb8IteratorC2Ev, symObjAddr: 0x0, symBinAddr: 0x17E90, symSize: 0x14 }
  - { offset: 0xEF912, size: 0x8, addend: 0x0, symName: __ZN7leveldb8IteratorD2Ev, symObjAddr: 0x14, symBinAddr: 0x17EA4, symSize: 0x6C }
  - { offset: 0xEF9AE, size: 0x8, addend: 0x0, symName: __ZN7leveldb8Iterator11CleanupNode3RunEv, symObjAddr: 0x90, symBinAddr: 0x17F10, symSize: 0x20 }
  - { offset: 0xEF9E2, size: 0x8, addend: 0x0, symName: __ZN7leveldb8IteratorD1Ev, symObjAddr: 0xB0, symBinAddr: 0x17F30, symSize: 0x4 }
  - { offset: 0xEF9ED, size: 0x8, addend: 0x0, symName: __ZN7leveldb8Iterator11CleanupNode3RunEv.cold.1, symObjAddr: 0x334, symBinAddr: 0x272A4, symSize: 0x28 }
  - { offset: 0xEFA04, size: 0x8, addend: 0x0, symName: __ZN7leveldb8IteratorD1Ev, symObjAddr: 0xB0, symBinAddr: 0x17F30, symSize: 0x4 }
  - { offset: 0xEFA2B, size: 0x8, addend: 0x0, symName: __ZN7leveldb8IteratorD0Ev, symObjAddr: 0xB4, symBinAddr: 0x17F34, symSize: 0x4 }
  - { offset: 0xEFA52, size: 0x8, addend: 0x0, symName: __ZN7leveldb8Iterator15RegisterCleanupEPFvPvS1_ES1_S1_, symObjAddr: 0xB8, symBinAddr: 0x17F38, symSize: 0x64 }
  - { offset: 0xEFACD, size: 0x8, addend: 0x0, symName: __ZN7leveldb16NewEmptyIteratorEv, symObjAddr: 0x11C, symBinAddr: 0x17F9C, symSize: 0x50 }
  - { offset: 0xEFAD8, size: 0x8, addend: 0x0, symName: __ZN7leveldb8Iterator15RegisterCleanupEPFvPvS1_ES1_S1_.cold.1, symObjAddr: 0x35C, symBinAddr: 0x272CC, symSize: 0x28 }
  - { offset: 0xEFB3B, size: 0x8, addend: 0x0, symName: __ZN7leveldb12_GLOBAL__N_113EmptyIteratorC1ERKNS_6StatusE, symObjAddr: 0x16C, symBinAddr: 0x17FEC, symSize: 0x54 }
  - { offset: 0xEFCE2, size: 0x8, addend: 0x0, symName: __ZN7leveldb12_GLOBAL__N_113EmptyIteratorD1Ev, symObjAddr: 0x208, symBinAddr: 0x18088, symSize: 0x38 }
  - { offset: 0xEFD73, size: 0x8, addend: 0x0, symName: __ZN7leveldb12_GLOBAL__N_113EmptyIteratorD0Ev, symObjAddr: 0x240, symBinAddr: 0x180C0, symSize: 0x14 }
  - { offset: 0xEFDB0, size: 0x8, addend: 0x0, symName: __ZNK7leveldb12_GLOBAL__N_113EmptyIterator5ValidEv, symObjAddr: 0x254, symBinAddr: 0x180D4, symSize: 0x8 }
  - { offset: 0xEFDD2, size: 0x8, addend: 0x0, symName: __ZN7leveldb12_GLOBAL__N_113EmptyIterator11SeekToFirstEv, symObjAddr: 0x25C, symBinAddr: 0x180DC, symSize: 0x4 }
  - { offset: 0xEFDF4, size: 0x8, addend: 0x0, symName: __ZN7leveldb12_GLOBAL__N_113EmptyIterator10SeekToLastEv, symObjAddr: 0x260, symBinAddr: 0x180E0, symSize: 0x4 }
  - { offset: 0xEFE16, size: 0x8, addend: 0x0, symName: __ZN7leveldb12_GLOBAL__N_113EmptyIterator4SeekERKNS_5SliceE, symObjAddr: 0x264, symBinAddr: 0x180E4, symSize: 0x4 }
  - { offset: 0xEFE43, size: 0x8, addend: 0x0, symName: __ZN7leveldb12_GLOBAL__N_113EmptyIterator4NextEv, symObjAddr: 0x268, symBinAddr: 0x180E8, symSize: 0x28 }
  - { offset: 0xEFE67, size: 0x8, addend: 0x0, symName: __ZN7leveldb12_GLOBAL__N_113EmptyIterator4PrevEv, symObjAddr: 0x290, symBinAddr: 0x18110, symSize: 0x28 }
  - { offset: 0xEFE96, size: 0x8, addend: 0x0, symName: __ZN7leveldb12_GLOBAL__N_113EmptyIterator4PrevEv, symObjAddr: 0x290, symBinAddr: 0x18110, symSize: 0x28 }
  - { offset: 0xEFEBA, size: 0x8, addend: 0x0, symName: __ZNK7leveldb12_GLOBAL__N_113EmptyIterator3keyEv, symObjAddr: 0x2B8, symBinAddr: 0x18138, symSize: 0x28 }
  - { offset: 0xEFECC, size: 0x8, addend: 0x0, symName: __ZNK7leveldb12_GLOBAL__N_113EmptyIterator3keyEv, symObjAddr: 0x2B8, symBinAddr: 0x18138, symSize: 0x28 }
  - { offset: 0xEFEF0, size: 0x8, addend: 0x0, symName: __ZNK7leveldb12_GLOBAL__N_113EmptyIterator5valueEv, symObjAddr: 0x2E0, symBinAddr: 0x18160, symSize: 0x28 }
  - { offset: 0xEFF02, size: 0x8, addend: 0x0, symName: __ZNK7leveldb12_GLOBAL__N_113EmptyIterator5valueEv, symObjAddr: 0x2E0, symBinAddr: 0x18160, symSize: 0x28 }
  - { offset: 0xEFF26, size: 0x8, addend: 0x0, symName: __ZNK7leveldb12_GLOBAL__N_113EmptyIterator6statusEv, symObjAddr: 0x308, symBinAddr: 0x18188, symSize: 0x2C }
  - { offset: 0xEFF38, size: 0x8, addend: 0x0, symName: __ZNK7leveldb12_GLOBAL__N_113EmptyIterator6statusEv, symObjAddr: 0x308, symBinAddr: 0x18188, symSize: 0x2C }
  - { offset: 0xF1E37, size: 0x8, addend: 0x0, symName: __ZN7leveldb3log6Reader8ReporterD2Ev, symObjAddr: 0x0, symBinAddr: 0x181B4, symSize: 0x4 }
  - { offset: 0xF492A, size: 0x8, addend: 0x0, symName: __ZN7leveldb3log6Reader8ReporterD2Ev, symObjAddr: 0x0, symBinAddr: 0x181B4, symSize: 0x4 }
  - { offset: 0xF4953, size: 0x8, addend: 0x0, symName: __ZN7leveldb3log6Reader8ReporterD1Ev, symObjAddr: 0x4, symBinAddr: 0x181B8, symSize: 0x4 }
  - { offset: 0xF497A, size: 0x8, addend: 0x0, symName: __ZN7leveldb3log6Reader8ReporterD0Ev, symObjAddr: 0x8, symBinAddr: 0x181BC, symSize: 0x4 }
  - { offset: 0xF49D2, size: 0x8, addend: 0x0, symName: __ZN7leveldb3log6ReaderC2EPNS_14SequentialFileEPNS1_8ReporterEby, symObjAddr: 0xC, symBinAddr: 0x181C0, symSize: 0x5C }
  - { offset: 0xF4A8B, size: 0x8, addend: 0x0, symName: __ZN7leveldb3log6ReaderC1EPNS_14SequentialFileEPNS1_8ReporterEby, symObjAddr: 0x68, symBinAddr: 0x1821C, symSize: 0x5C }
  - { offset: 0xF4B54, size: 0x8, addend: 0x0, symName: __ZN7leveldb3log6ReaderD2Ev, symObjAddr: 0xC4, symBinAddr: 0x18278, symSize: 0x2C }
  - { offset: 0xF4B8F, size: 0x8, addend: 0x0, symName: __ZN7leveldb3log6ReaderD1Ev, symObjAddr: 0xF0, symBinAddr: 0x182A4, symSize: 0x2C }
  - { offset: 0xF4C6A, size: 0x8, addend: 0x0, symName: __ZN7leveldb3log6Reader18SkipToInitialBlockEv, symObjAddr: 0x11C, symBinAddr: 0x182D0, symSize: 0xD0 }
  - { offset: 0xF4DD5, size: 0x8, addend: 0x0, symName: __ZN7leveldb3log6Reader10ReportDropEyRKNS_6StatusE, symObjAddr: 0x1EC, symBinAddr: 0x183A0, symSize: 0x34 }
  - { offset: 0xF4FA9, size: 0x8, addend: 0x0, symName: __ZN7leveldb3log6Reader10ReadRecordEPNS_5SliceEPNSt3__112basic_stringIcNS4_11char_traitsIcEENS4_9allocatorIcEEEE, symObjAddr: 0x220, symBinAddr: 0x183D4, symSize: 0x3A4 }
  - { offset: 0xF5894, size: 0x8, addend: 0x0, symName: __ZN7leveldb3log6Reader18ReadPhysicalRecordEPNS_5SliceE, symObjAddr: 0x5C4, symBinAddr: 0x18778, symSize: 0x22C }
  - { offset: 0xF5BFA, size: 0x8, addend: 0x0, symName: __ZN7leveldb3log6Reader16ReportCorruptionEyPKc, symObjAddr: 0x7F0, symBinAddr: 0x189A4, symSize: 0xB0 }
  - { offset: 0xF5E9E, size: 0x8, addend: 0x0, symName: __ZN7leveldb3log6Reader16LastRecordOffsetEv, symObjAddr: 0x8A0, symBinAddr: 0x18A54, symSize: 0x8 }
  - { offset: 0xF7D65, size: 0x8, addend: 0x0, symName: __ZN7leveldb3log6WriterC2EPNS_12WritableFileE, symObjAddr: 0x0, symBinAddr: 0x18A5C, symSize: 0x5C }
  - { offset: 0xF8A94, size: 0x8, addend: 0x0, symName: __ZN7leveldb3log6WriterC2EPNS_12WritableFileE, symObjAddr: 0x0, symBinAddr: 0x18A5C, symSize: 0x5C }
  - { offset: 0xF8B76, size: 0x8, addend: 0x0, symName: __ZN7leveldb3log6WriterC1EPNS_12WritableFileE, symObjAddr: 0x5C, symBinAddr: 0x18AB8, symSize: 0x5C }
  - { offset: 0xF8C64, size: 0x8, addend: 0x0, symName: __ZN7leveldb3log6WriterC2EPNS_12WritableFileEy, symObjAddr: 0xB8, symBinAddr: 0x18B14, symSize: 0x60 }
  - { offset: 0xF8D55, size: 0x8, addend: 0x0, symName: __ZN7leveldb3log6WriterC1EPNS_12WritableFileEy, symObjAddr: 0x118, symBinAddr: 0x18B74, symSize: 0x60 }
  - { offset: 0xF8E5A, size: 0x8, addend: 0x0, symName: __ZN7leveldb3log6WriterD2Ev, symObjAddr: 0x178, symBinAddr: 0x18BD4, symSize: 0x4 }
  - { offset: 0xF8E83, size: 0x8, addend: 0x0, symName: __ZN7leveldb3log6WriterD1Ev, symObjAddr: 0x17C, symBinAddr: 0x18BD8, symSize: 0x4 }
  - { offset: 0xF8F81, size: 0x8, addend: 0x0, symName: __ZN7leveldb3log6Writer9AddRecordERKNS_5SliceE, symObjAddr: 0x180, symBinAddr: 0x18BDC, symSize: 0x144 }
  - { offset: 0xF9189, size: 0x8, addend: 0x0, symName: __ZN7leveldb3log6Writer18EmitPhysicalRecordENS0_10RecordTypeEPKcm, symObjAddr: 0x2C4, symBinAddr: 0x18D20, symSize: 0x154 }
  - { offset: 0xF94F5, size: 0x8, addend: 0x0, symName: __ZN7leveldb3log6Writer9AddRecordERKNS_5SliceE.cold.1, symObjAddr: 0x418, symBinAddr: 0x272F4, symSize: 0x28 }
  - { offset: 0xF9556, size: 0x8, addend: 0x0, symName: __ZN7leveldb3log6Writer18EmitPhysicalRecordENS0_10RecordTypeEPKcm.cold.2, symObjAddr: 0x468, symBinAddr: 0x27344, symSize: 0x28 }
  - { offset: 0xF956E, size: 0x8, addend: 0x0, symName: __ZN7leveldb3log6Writer18EmitPhysicalRecordENS0_10RecordTypeEPKcm.cold.1, symObjAddr: 0x440, symBinAddr: 0x2731C, symSize: 0x28 }
  - { offset: 0xFB451, size: 0x8, addend: 0x0, symName: __ZN7leveldb14AppendNumberToEPNSt3__112basic_stringIcNS0_11char_traitsIcEENS0_9allocatorIcEEEEy, symObjAddr: 0x0, symBinAddr: 0x18E74, symSize: 0x74 }
  - { offset: 0xFDEC1, size: 0x8, addend: 0x0, symName: __ZN7leveldb14AppendNumberToEPNSt3__112basic_stringIcNS0_11char_traitsIcEENS0_9allocatorIcEEEEy, symObjAddr: 0x0, symBinAddr: 0x18E74, symSize: 0x74 }
  - { offset: 0xFDF09, size: 0x8, addend: 0x0, symName: __ZN7leveldb21AppendEscapedStringToEPNSt3__112basic_stringIcNS0_11char_traitsIcEENS0_9allocatorIcEEEERKNS_5SliceE, symObjAddr: 0x74, symBinAddr: 0x18EE8, symSize: 0xC4 }
  - { offset: 0xFE01F, size: 0x8, addend: 0x0, symName: __ZN7leveldb14NumberToStringEy, symObjAddr: 0x138, symBinAddr: 0x18FAC, symSize: 0x98 }
  - { offset: 0xFE238, size: 0x8, addend: 0x0, symName: __ZN7leveldb12EscapeStringERKNS_5SliceE, symObjAddr: 0x1D0, symBinAddr: 0x19044, symSize: 0x4C }
  - { offset: 0xFE427, size: 0x8, addend: 0x0, symName: __ZN7leveldb20ConsumeDecimalNumberEPNS_5SliceEPy, symObjAddr: 0x21C, symBinAddr: 0x19090, symSize: 0xA8 }
  - { offset: 0x104F6A, size: 0x8, addend: 0x0, symName: __ZN7leveldb8MemTableC2ERKNS_21InternalKeyComparatorE, symObjAddr: 0x0, symBinAddr: 0x19138, symSize: 0x94 }
  - { offset: 0x105243, size: 0x8, addend: 0x0, symName: __ZN7leveldb8SkipListIPKcNS_8MemTable13KeyComparatorEEC2ES4_PNS_5ArenaE, symObjAddr: 0x9BC, symBinAddr: 0x19AE4, symSize: 0x88 }
  - { offset: 0x10558A, size: 0x8, addend: 0x0, symName: __ZN7leveldb8MemTableC1ERKNS_21InternalKeyComparatorE, symObjAddr: 0x94, symBinAddr: 0x191CC, symSize: 0x4 }
  - { offset: 0x1055C4, size: 0x8, addend: 0x0, symName: __ZN7leveldb8MemTableC1ERKNS_21InternalKeyComparatorE, symObjAddr: 0x94, symBinAddr: 0x191CC, symSize: 0x4 }
  - { offset: 0x105611, size: 0x8, addend: 0x0, symName: __ZN7leveldb8MemTableD2Ev, symObjAddr: 0x98, symBinAddr: 0x191D0, symSize: 0x60 }
  - { offset: 0x105762, size: 0x8, addend: 0x0, symName: __ZN7leveldb8MemTableD1Ev, symObjAddr: 0x108, symBinAddr: 0x19230, symSize: 0x4 }
  - { offset: 0x10578E, size: 0x8, addend: 0x0, symName: __ZN7leveldb8MemTableD1Ev, symObjAddr: 0x108, symBinAddr: 0x19230, symSize: 0x4 }
  - { offset: 0x1057E8, size: 0x8, addend: 0x0, symName: __ZN7leveldb8MemTable22ApproximateMemoryUsageEv, symObjAddr: 0x10C, symBinAddr: 0x19234, symSize: 0x8 }
  - { offset: 0x105812, size: 0x8, addend: 0x0, symName: __ZN7leveldb8MemTable22ApproximateMemoryUsageEv, symObjAddr: 0x10C, symBinAddr: 0x19234, symSize: 0x8 }
  - { offset: 0x10582F, size: 0x8, addend: 0x0, symName: __ZN7leveldb8MemTable22ApproximateMemoryUsageEv, symObjAddr: 0x10C, symBinAddr: 0x19234, symSize: 0x8 }
  - { offset: 0x105853, size: 0x8, addend: 0x0, symName: __ZN7leveldb8MemTable22ApproximateMemoryUsageEv, symObjAddr: 0x10C, symBinAddr: 0x19234, symSize: 0x8 }
  - { offset: 0x10587C, size: 0x8, addend: 0x0, symName: __ZNK7leveldb8MemTable13KeyComparatorclEPKcS3_, symObjAddr: 0x114, symBinAddr: 0x1923C, symSize: 0x94 }
  - { offset: 0x105B94, size: 0x8, addend: 0x0, symName: __ZN7leveldb8MemTable11NewIteratorEv, symObjAddr: 0x1A8, symBinAddr: 0x192D0, symSize: 0x64 }
  - { offset: 0x105D37, size: 0x8, addend: 0x0, symName: __ZN7leveldb8MemTable3AddEyNS_9ValueTypeERKNS_5SliceES4_, symObjAddr: 0x20C, symBinAddr: 0x19334, symSize: 0x158 }
  - { offset: 0x105F31, size: 0x8, addend: 0x0, symName: __ZN7leveldb8SkipListIPKcNS_8MemTable13KeyComparatorEE6InsertERKS2_, symObjAddr: 0x364, symBinAddr: 0x1948C, symSize: 0x19C }
  - { offset: 0x105F3C, size: 0x8, addend: 0x0, symName: __ZN7leveldb8SkipListIPKcNS_8MemTable13KeyComparatorEE6InsertERKS2_, symObjAddr: 0x364, symBinAddr: 0x1948C, symSize: 0x19C }
  - { offset: 0x10639F, size: 0x8, addend: 0x0, symName: __ZN7leveldb8MemTable3AddEyNS_9ValueTypeERKNS_5SliceES4_.cold.2, symObjAddr: 0xAFC, symBinAddr: 0x27394, symSize: 0x28 }
  - { offset: 0x1063CD, size: 0x8, addend: 0x0, symName: __ZN7leveldb8MemTable3AddEyNS_9ValueTypeERKNS_5SliceES4_.cold.1, symObjAddr: 0xAD4, symBinAddr: 0x2736C, symSize: 0x28 }
  - { offset: 0x10661C, size: 0x8, addend: 0x0, symName: __ZNK7leveldb8SkipListIPKcNS_8MemTable13KeyComparatorEE18FindGreaterOrEqualERKS2_PPNS5_4NodeE, symObjAddr: 0xA44, symBinAddr: 0x19B6C, symSize: 0x90 }
  - { offset: 0x1067B8, size: 0x8, addend: 0x0, symName: __ZN7leveldb8SkipListIPKcNS_8MemTable13KeyComparatorEE6InsertERKS2_.cold.1, symObjAddr: 0xB24, symBinAddr: 0x273BC, symSize: 0x28 }
  - { offset: 0x10693F, size: 0x8, addend: 0x0, symName: __ZN7leveldb8MemTable3GetERKNS_9LookupKeyEPNSt3__112basic_stringIcNS4_11char_traitsIcEENS4_9allocatorIcEEEEPNS_6StatusE, symObjAddr: 0x500, symBinAddr: 0x19628, symSize: 0x150 }
  - { offset: 0x106D32, size: 0x8, addend: 0x0, symName: __ZN7leveldb16MemTableIteratorD1Ev, symObjAddr: 0x650, symBinAddr: 0x19778, symSize: 0x4 }
  - { offset: 0x106D54, size: 0x8, addend: 0x0, symName: __ZN7leveldb16MemTableIteratorD1Ev, symObjAddr: 0x650, symBinAddr: 0x19778, symSize: 0x4 }
  - { offset: 0x106D67, size: 0x8, addend: 0x0, symName: __ZN7leveldb16MemTableIteratorD2Ev, symObjAddr: 0x884, symBinAddr: 0x199AC, symSize: 0x40 }
  - { offset: 0x106ECC, size: 0x8, addend: 0x0, symName: __ZN7leveldb16MemTableIteratorD0Ev, symObjAddr: 0x654, symBinAddr: 0x1977C, symSize: 0x14 }
  - { offset: 0x106F40, size: 0x8, addend: 0x0, symName: __ZNK7leveldb16MemTableIterator5ValidEv, symObjAddr: 0x668, symBinAddr: 0x19790, symSize: 0x10 }
  - { offset: 0x106F68, size: 0x8, addend: 0x0, symName: __ZNK7leveldb16MemTableIterator5ValidEv, symObjAddr: 0x668, symBinAddr: 0x19790, symSize: 0x10 }
  - { offset: 0x106FB9, size: 0x8, addend: 0x0, symName: __ZN7leveldb16MemTableIterator11SeekToFirstEv, symObjAddr: 0x678, symBinAddr: 0x197A0, symSize: 0x18 }
  - { offset: 0x106FDF, size: 0x8, addend: 0x0, symName: __ZN7leveldb16MemTableIterator11SeekToFirstEv, symObjAddr: 0x678, symBinAddr: 0x197A0, symSize: 0x18 }
  - { offset: 0x10707A, size: 0x8, addend: 0x0, symName: __ZN7leveldb16MemTableIterator10SeekToLastEv, symObjAddr: 0x690, symBinAddr: 0x197B8, symSize: 0x38 }
  - { offset: 0x1070CB, size: 0x8, addend: 0x0, symName: __ZNK7leveldb8SkipListIPKcNS_8MemTable13KeyComparatorEE8FindLastEv, symObjAddr: 0x8C4, symBinAddr: 0x199EC, symSize: 0x50 }
  - { offset: 0x107306, size: 0x8, addend: 0x0, symName: __ZN7leveldb16MemTableIterator4SeekERKNS_5SliceE, symObjAddr: 0x6C8, symBinAddr: 0x197F0, symSize: 0x90 }
  - { offset: 0x107563, size: 0x8, addend: 0x0, symName: __ZN7leveldb16MemTableIterator4NextEv, symObjAddr: 0x758, symBinAddr: 0x19880, symSize: 0x24 }
  - { offset: 0x1075A0, size: 0x8, addend: 0x0, symName: __ZN7leveldb16MemTableIterator4NextEv, symObjAddr: 0x758, symBinAddr: 0x19880, symSize: 0x24 }
  - { offset: 0x107628, size: 0x8, addend: 0x0, symName: __ZN7leveldb16MemTableIterator4PrevEv, symObjAddr: 0x77C, symBinAddr: 0x198A4, symSize: 0x44 }
  - { offset: 0x107633, size: 0x8, addend: 0x0, symName: __ZN7leveldb16MemTableIterator4NextEv.cold.1, symObjAddr: 0xB4C, symBinAddr: 0x273E4, symSize: 0x28 }
  - { offset: 0x107677, size: 0x8, addend: 0x0, symName: __ZN7leveldb16MemTableIterator4PrevEv, symObjAddr: 0x77C, symBinAddr: 0x198A4, symSize: 0x44 }
  - { offset: 0x1076E0, size: 0x8, addend: 0x0, symName: __ZNK7leveldb16MemTableIterator3keyEv, symObjAddr: 0x7C0, symBinAddr: 0x198E8, symSize: 0x4C }
  - { offset: 0x1076EB, size: 0x8, addend: 0x0, symName: __ZNK7leveldb8SkipListIPKcNS_8MemTable13KeyComparatorEE12FindLessThanERKS2_, symObjAddr: 0x914, symBinAddr: 0x19A3C, symSize: 0xA8 }
  - { offset: 0x10785C, size: 0x8, addend: 0x0, symName: __ZN7leveldb8SkipListIPKcNS_8MemTable13KeyComparatorEEC2ES4_PNS_5ArenaE, symObjAddr: 0x9BC, symBinAddr: 0x19AE4, symSize: 0x88 }
  - { offset: 0x107867, size: 0x8, addend: 0x0, symName: __ZN7leveldb16MemTableIterator4PrevEv.cold.1, symObjAddr: 0xB74, symBinAddr: 0x2740C, symSize: 0x28 }
  - { offset: 0x1078AB, size: 0x8, addend: 0x0, symName: __ZNK7leveldb16MemTableIterator3keyEv, symObjAddr: 0x7C0, symBinAddr: 0x198E8, symSize: 0x4C }
  - { offset: 0x10798A, size: 0x8, addend: 0x0, symName: __ZNK7leveldb16MemTableIterator5valueEv, symObjAddr: 0x80C, symBinAddr: 0x19934, symSize: 0x70 }
  - { offset: 0x107995, size: 0x8, addend: 0x0, symName: __ZNK7leveldb16MemTableIterator3keyEv.cold.1, symObjAddr: 0xB9C, symBinAddr: 0x27434, symSize: 0x28 }
  - { offset: 0x1079C3, size: 0x8, addend: 0x0, symName: __ZNK7leveldb16MemTableIterator5valueEv, symObjAddr: 0x80C, symBinAddr: 0x19934, symSize: 0x70 }
  - { offset: 0x107B33, size: 0x8, addend: 0x0, symName: __ZNK7leveldb16MemTableIterator6statusEv, symObjAddr: 0x87C, symBinAddr: 0x199A4, symSize: 0x8 }
  - { offset: 0x107B89, size: 0x8, addend: 0x0, symName: __ZNK7leveldb16MemTableIterator6statusEv, symObjAddr: 0x87C, symBinAddr: 0x199A4, symSize: 0x8 }
  - { offset: 0x107BAF, size: 0x8, addend: 0x0, symName: __ZNK7leveldb16MemTableIterator6statusEv, symObjAddr: 0x87C, symBinAddr: 0x199A4, symSize: 0x8 }
  - { offset: 0x107BC3, size: 0x8, addend: 0x0, symName: __ZNK7leveldb16MemTableIterator6statusEv, symObjAddr: 0x87C, symBinAddr: 0x199A4, symSize: 0x8 }
  - { offset: 0x107BDE, size: 0x8, addend: 0x0, symName: __ZNK7leveldb16MemTableIterator6statusEv, symObjAddr: 0x87C, symBinAddr: 0x199A4, symSize: 0x8 }
  - { offset: 0x107C84, size: 0x8, addend: 0x0, symName: __ZNK7leveldb8SkipListIPKcNS_8MemTable13KeyComparatorEE8FindLastEv.cold.1, symObjAddr: 0xBEC, symBinAddr: 0x2745C, symSize: 0x24 }
  - { offset: 0x107CC7, size: 0x8, addend: 0x0, symName: __ZNK7leveldb8SkipListIPKcNS_8MemTable13KeyComparatorEE12FindLessThanERKS2_.cold.1, symObjAddr: 0xC10, symBinAddr: 0x27480, symSize: 0x28 }
  - { offset: 0x107E27, size: 0x8, addend: 0x0, symName: _OUTLINED_FUNCTION_0, symObjAddr: 0xC80, symBinAddr: 0x19BFC, symSize: 0x8 }
  - { offset: 0x109D0C, size: 0x8, addend: 0x0, symName: __ZN7leveldb18NewMergingIteratorEPKNS_10ComparatorEPPNS_8IteratorEi, symObjAddr: 0x0, symBinAddr: 0x19C04, symSize: 0x128 }
  - { offset: 0x10A051, size: 0x8, addend: 0x0, symName: __ZN7leveldb18NewMergingIteratorEPKNS_10ComparatorEPPNS_8IteratorEi, symObjAddr: 0x0, symBinAddr: 0x19C04, symSize: 0x128 }
  - { offset: 0x10AE67, size: 0x8, addend: 0x0, symName: __ZN7leveldb15IteratorWrapper3SetEPNS_8IteratorE, symObjAddr: 0x128, symBinAddr: 0x19D2C, symSize: 0x70 }
  - { offset: 0x10AEE3, size: 0x8, addend: 0x0, symName: __ZN7leveldb18NewMergingIteratorEPKNS_10ComparatorEPPNS_8IteratorEi.cold.1, symObjAddr: 0xA24, symBinAddr: 0x274A8, symSize: 0x28 }
  - { offset: 0x10AF57, size: 0x8, addend: 0x0, symName: __ZN7leveldb12_GLOBAL__N_115MergingIteratorD1Ev, symObjAddr: 0x198, symBinAddr: 0x19D9C, symSize: 0x74 }
  - { offset: 0x10AFD5, size: 0x8, addend: 0x0, symName: __ZN7leveldb12_GLOBAL__N_115MergingIteratorD0Ev, symObjAddr: 0x20C, symBinAddr: 0x19E10, symSize: 0x14 }
  - { offset: 0x10B012, size: 0x8, addend: 0x0, symName: __ZNK7leveldb12_GLOBAL__N_115MergingIterator5ValidEv, symObjAddr: 0x220, symBinAddr: 0x19E24, symSize: 0x10 }
  - { offset: 0x10B038, size: 0x8, addend: 0x0, symName: __ZN7leveldb12_GLOBAL__N_115MergingIterator11SeekToFirstEv, symObjAddr: 0x230, symBinAddr: 0x19E34, symSize: 0x64 }
  - { offset: 0x10B09C, size: 0x8, addend: 0x0, symName: __ZN7leveldb15IteratorWrapper11SeekToFirstEv, symObjAddr: 0x668, symBinAddr: 0x1A26C, symSize: 0x60 }
  - { offset: 0x10B104, size: 0x8, addend: 0x0, symName: __ZN7leveldb12_GLOBAL__N_115MergingIterator12FindSmallestEv, symObjAddr: 0x6C8, symBinAddr: 0x1A2CC, symSize: 0xCC }
  - { offset: 0x10B10F, size: 0x8, addend: 0x0, symName: __ZN7leveldb12_GLOBAL__N_115MergingIterator12FindSmallestEv, symObjAddr: 0x6C8, symBinAddr: 0x1A2CC, symSize: 0xCC }
  - { offset: 0x10B206, size: 0x8, addend: 0x0, symName: __ZN7leveldb15IteratorWrapper10SeekToLastEv, symObjAddr: 0x794, symBinAddr: 0x1A398, symSize: 0x60 }
  - { offset: 0x10B211, size: 0x8, addend: 0x0, symName: __ZN7leveldb12_GLOBAL__N_115MergingIterator10SeekToLastEv, symObjAddr: 0x294, symBinAddr: 0x19E98, symSize: 0x68 }
  - { offset: 0x10B275, size: 0x8, addend: 0x0, symName: __ZN7leveldb15IteratorWrapper10SeekToLastEv, symObjAddr: 0x794, symBinAddr: 0x1A398, symSize: 0x60 }
  - { offset: 0x10B2DD, size: 0x8, addend: 0x0, symName: __ZN7leveldb12_GLOBAL__N_115MergingIterator11FindLargestEv, symObjAddr: 0x7F4, symBinAddr: 0x1A3F8, symSize: 0xCC }
  - { offset: 0x10B2E8, size: 0x8, addend: 0x0, symName: __ZN7leveldb12_GLOBAL__N_115MergingIterator11FindLargestEv, symObjAddr: 0x7F4, symBinAddr: 0x1A3F8, symSize: 0xCC }
  - { offset: 0x10B3BD, size: 0x8, addend: 0x0, symName: __ZN7leveldb15IteratorWrapper4SeekERKNS_5SliceE, symObjAddr: 0x8C0, symBinAddr: 0x1A4C4, symSize: 0x60 }
  - { offset: 0x10B3C8, size: 0x8, addend: 0x0, symName: __ZN7leveldb12_GLOBAL__N_115MergingIterator4SeekERKNS_5SliceE, symObjAddr: 0x2FC, symBinAddr: 0x19F00, symSize: 0x6C }
  - { offset: 0x10B442, size: 0x8, addend: 0x0, symName: __ZN7leveldb15IteratorWrapper4SeekERKNS_5SliceE, symObjAddr: 0x8C0, symBinAddr: 0x1A4C4, symSize: 0x60 }
  - { offset: 0x10B4B9, size: 0x8, addend: 0x0, symName: __ZN7leveldb15IteratorWrapper4NextEv, symObjAddr: 0x920, symBinAddr: 0x1A524, symSize: 0x60 }
  - { offset: 0x10B4F1, size: 0x8, addend: 0x0, symName: __ZN7leveldb12_GLOBAL__N_115MergingIterator4NextEv, symObjAddr: 0x368, symBinAddr: 0x19F6C, symSize: 0x120 }
  - { offset: 0x10B658, size: 0x8, addend: 0x0, symName: __ZN7leveldb12_GLOBAL__N_115MergingIterator4PrevEv, symObjAddr: 0x488, symBinAddr: 0x1A08C, symSize: 0xE8 }
  - { offset: 0x10B663, size: 0x8, addend: 0x0, symName: __ZN7leveldb15IteratorWrapper4NextEv, symObjAddr: 0x920, symBinAddr: 0x1A524, symSize: 0x60 }
  - { offset: 0x10B6CB, size: 0x8, addend: 0x0, symName: __ZN7leveldb15IteratorWrapper4PrevEv, symObjAddr: 0x980, symBinAddr: 0x1A584, symSize: 0x60 }
  - { offset: 0x10B6D6, size: 0x8, addend: 0x0, symName: __ZN7leveldb12_GLOBAL__N_115MergingIterator4NextEv.cold.2, symObjAddr: 0xA74, symBinAddr: 0x274F8, symSize: 0x24 }
  - { offset: 0x10B704, size: 0x8, addend: 0x0, symName: __ZN7leveldb12_GLOBAL__N_115MergingIterator4NextEv.cold.1, symObjAddr: 0xA4C, symBinAddr: 0x274D0, symSize: 0x28 }
  - { offset: 0x10B71C, size: 0x8, addend: 0x0, symName: __ZN7leveldb12_GLOBAL__N_115MergingIterator4PrevEv, symObjAddr: 0x488, symBinAddr: 0x1A08C, symSize: 0xE8 }
  - { offset: 0x10B81E, size: 0x8, addend: 0x0, symName: __ZNK7leveldb12_GLOBAL__N_115MergingIterator3keyEv, symObjAddr: 0x570, symBinAddr: 0x1A174, symSize: 0x44 }
  - { offset: 0x10B829, size: 0x8, addend: 0x0, symName: __ZN7leveldb15IteratorWrapper4PrevEv, symObjAddr: 0x980, symBinAddr: 0x1A584, symSize: 0x60 }
  - { offset: 0x10B891, size: 0x8, addend: 0x0, symName: __ZNK7leveldb15IteratorWrapper5valueEv, symObjAddr: 0x9E0, symBinAddr: 0x1A5E4, symSize: 0x24 }
  - { offset: 0x10B89C, size: 0x8, addend: 0x0, symName: __ZN7leveldb12_GLOBAL__N_115MergingIterator4PrevEv.cold.1, symObjAddr: 0xA98, symBinAddr: 0x2751C, symSize: 0x28 }
  - { offset: 0x10B8B4, size: 0x8, addend: 0x0, symName: __ZNK7leveldb12_GLOBAL__N_115MergingIterator3keyEv, symObjAddr: 0x570, symBinAddr: 0x1A174, symSize: 0x44 }
  - { offset: 0x10B92F, size: 0x8, addend: 0x0, symName: __ZNK7leveldb12_GLOBAL__N_115MergingIterator5valueEv, symObjAddr: 0x5B4, symBinAddr: 0x1A1B8, symSize: 0x34 }
  - { offset: 0x10B93A, size: 0x8, addend: 0x0, symName: __ZNK7leveldb12_GLOBAL__N_115MergingIterator3keyEv.cold.1, symObjAddr: 0xAC0, symBinAddr: 0x27544, symSize: 0x28 }
  - { offset: 0x10B966, size: 0x8, addend: 0x0, symName: __ZNK7leveldb12_GLOBAL__N_115MergingIterator5valueEv, symObjAddr: 0x5B4, symBinAddr: 0x1A1B8, symSize: 0x34 }
  - { offset: 0x10B9AF, size: 0x8, addend: 0x0, symName: __ZNK7leveldb12_GLOBAL__N_115MergingIterator6statusEv, symObjAddr: 0x5E8, symBinAddr: 0x1A1EC, symSize: 0x80 }
  - { offset: 0x10B9BA, size: 0x8, addend: 0x0, symName: __ZNK7leveldb15IteratorWrapper5valueEv, symObjAddr: 0x9E0, symBinAddr: 0x1A5E4, symSize: 0x24 }
  - { offset: 0x10B9E2, size: 0x8, addend: 0x0, symName: __ZNK7leveldb15IteratorWrapper5valueEv, symObjAddr: 0x9E0, symBinAddr: 0x1A5E4, symSize: 0x24 }
  - { offset: 0x10BA0A, size: 0x8, addend: 0x0, symName: __ZNK7leveldb15IteratorWrapper6statusEv, symObjAddr: 0xA04, symBinAddr: 0x1A608, symSize: 0x20 }
  - { offset: 0x10BA15, size: 0x8, addend: 0x0, symName: __ZNK7leveldb12_GLOBAL__N_115MergingIterator5valueEv.cold.1, symObjAddr: 0xB0C, symBinAddr: 0x2756C, symSize: 0x28 }
  - { offset: 0x10BA58, size: 0x8, addend: 0x0, symName: __ZNK7leveldb12_GLOBAL__N_115MergingIterator6statusEv, symObjAddr: 0x5E8, symBinAddr: 0x1A1EC, symSize: 0x80 }
  - { offset: 0x10BAFA, size: 0x8, addend: 0x0, symName: __ZNK7leveldb15IteratorWrapper6statusEv, symObjAddr: 0xA04, symBinAddr: 0x1A608, symSize: 0x20 }
  - { offset: 0x10BB2E, size: 0x8, addend: 0x0, symName: __ZN7leveldb18NewMergingIteratorEPKNS_10ComparatorEPPNS_8IteratorEi.cold.1, symObjAddr: 0xA24, symBinAddr: 0x274A8, symSize: 0x28 }
  - { offset: 0x10BB39, size: 0x8, addend: 0x0, symName: __ZN7leveldb15IteratorWrapper11SeekToFirstEv.cold.1, symObjAddr: 0xB34, symBinAddr: 0x27594, symSize: 0x28 }
  - { offset: 0x10BB65, size: 0x8, addend: 0x0, symName: __ZN7leveldb15IteratorWrapper10SeekToLastEv.cold.1, symObjAddr: 0xB80, symBinAddr: 0x275BC, symSize: 0x28 }
  - { offset: 0x10BB91, size: 0x8, addend: 0x0, symName: __ZN7leveldb15IteratorWrapper4SeekERKNS_5SliceE.cold.1, symObjAddr: 0xBCC, symBinAddr: 0x275E4, symSize: 0x28 }
  - { offset: 0x10BBA9, size: 0x8, addend: 0x0, symName: __ZN7leveldb15IteratorWrapper4NextEv.cold.1, symObjAddr: 0xBF4, symBinAddr: 0x2760C, symSize: 0x28 }
  - { offset: 0x10BBC1, size: 0x8, addend: 0x0, symName: __ZN7leveldb15IteratorWrapper4PrevEv.cold.1, symObjAddr: 0xC1C, symBinAddr: 0x27634, symSize: 0x28 }
  - { offset: 0x10BBD9, size: 0x8, addend: 0x0, symName: __ZNK7leveldb15IteratorWrapper5valueEv.cold.1, symObjAddr: 0xC44, symBinAddr: 0x2765C, symSize: 0x28 }
  - { offset: 0x10BBF1, size: 0x8, addend: 0x0, symName: __ZNK7leveldb15IteratorWrapper6statusEv.cold.1, symObjAddr: 0xC6C, symBinAddr: 0x27684, symSize: 0x28 }
  - { offset: 0x10BC09, size: 0x8, addend: 0x0, symName: _OUTLINED_FUNCTION_0, symObjAddr: 0xC94, symBinAddr: 0x1A628, symSize: 0x8 }
  - { offset: 0x10DABE, size: 0x8, addend: 0x0, symName: __ZN7leveldb7OptionsC2Ev, symObjAddr: 0x0, symBinAddr: 0x1A630, symSize: 0x70 }
  - { offset: 0x10E786, size: 0x8, addend: 0x0, symName: __ZN7leveldb7OptionsC2Ev, symObjAddr: 0x0, symBinAddr: 0x1A630, symSize: 0x70 }
  - { offset: 0x10E7BE, size: 0x8, addend: 0x0, symName: __ZN7leveldb7OptionsC1Ev, symObjAddr: 0x70, symBinAddr: 0x1A6A0, symSize: 0x4 }
  - { offset: 0x10E7EA, size: 0x8, addend: 0x0, symName: __ZN7leveldb7OptionsC1Ev, symObjAddr: 0x70, symBinAddr: 0x1A6A0, symSize: 0x4 }
  - { offset: 0x1194CC, size: 0x8, addend: 0x0, symName: __ZN7leveldb12_GLOBAL__N_18Repairer11ArchiveFileERKNSt3__112basic_stringIcNS2_11char_traitsIcEENS2_9allocatorIcEEEE, symObjAddr: 0x21C8, symBinAddr: 0x1C214, symSize: 0x208 }
  - { offset: 0x11BA46, size: 0x8, addend: 0x0, symName: __ZN7leveldb8RepairDBERKNSt3__112basic_stringIcNS0_11char_traitsIcEENS0_9allocatorIcEEEERKNS_7OptionsE, symObjAddr: 0x0, symBinAddr: 0x1A6A4, symSize: 0x18B4 }
  - { offset: 0x124D0D, size: 0x8, addend: 0x0, symName: __ZNSt3__16vectorINS_12basic_stringIcNS_11char_traitsIcEENS_9allocatorIcEEEENS4_IS6_EEE21__push_back_slow_pathIRKS6_EEPS6_OT_, symObjAddr: 0x1F60, symBinAddr: 0x1C0D4, symSize: 0x140 }
  - { offset: 0x12514D, size: 0x8, addend: 0x0, symName: __ZZN7leveldb12_GLOBAL__N_18Repairer17ConvertLogToTableEyEN11LogReporter10CorruptionEmRKNS_6StatusE, symObjAddr: 0x23D0, symBinAddr: 0x1C41C, symSize: 0x94 }
  - { offset: 0x125480, size: 0x8, addend: 0x0, symName: __ZZN7leveldb12_GLOBAL__N_18Repairer17ConvertLogToTableEyEN11LogReporterD1Ev, symObjAddr: 0x24A0, symBinAddr: 0x1C4B0, symSize: 0x4 }
  - { offset: 0x12548B, size: 0x8, addend: 0x0, symName: __ZN7leveldb12_GLOBAL__N_18Repairer11ArchiveFileERKNSt3__112basic_stringIcNS2_11char_traitsIcEENS2_9allocatorIcEEEE, symObjAddr: 0x21C8, symBinAddr: 0x1C214, symSize: 0x208 }
  - { offset: 0x125FD1, size: 0x8, addend: 0x0, symName: __ZNSt3__16vectorIN7leveldb12_GLOBAL__N_18Repairer9TableInfoENS_9allocatorIS4_EEE9push_backB8ne190102ERKS4_, symObjAddr: 0x24B8, symBinAddr: 0x1C4C8, symSize: 0x1DC }
  - { offset: 0x126E5C, size: 0x8, addend: 0x0, symName: __ZN7leveldb12_GLOBAL__N_18RepairerD1Ev, symObjAddr: 0x18B4, symBinAddr: 0x1BF58, symSize: 0xD8 }
  - { offset: 0x1273B2, size: 0x8, addend: 0x0, symName: __ZNSt3__16vectorIN7leveldb12_GLOBAL__N_18Repairer9TableInfoENS_9allocatorIS4_EEED1B8ne190102Ev, symObjAddr: 0x198C, symBinAddr: 0x1C030, symSize: 0x60 }
  - { offset: 0x127B35, size: 0x8, addend: 0x0, symName: __ZNSt3__116allocator_traitsINS_9allocatorIN7leveldb12_GLOBAL__N_18Repairer9TableInfoEEEE7destroyB8ne190102IS5_Li0EEEvRS6_PT_, symObjAddr: 0x1DEC, symBinAddr: 0x1C090, symSize: 0x44 }
  - { offset: 0x12921A, size: 0x8, addend: 0x0, symName: __ZZN7leveldb12_GLOBAL__N_18Repairer17ConvertLogToTableEyEN11LogReporterD1Ev, symObjAddr: 0x24A0, symBinAddr: 0x1C4B0, symSize: 0x4 }
  - { offset: 0x12923C, size: 0x8, addend: 0x0, symName: __ZZN7leveldb12_GLOBAL__N_18Repairer17ConvertLogToTableEyEN11LogReporterD1Ev, symObjAddr: 0x24A0, symBinAddr: 0x1C4B0, symSize: 0x4 }
  - { offset: 0x129255, size: 0x8, addend: 0x0, symName: __ZZN7leveldb12_GLOBAL__N_18Repairer17ConvertLogToTableEyEN11LogReporterD0Ev, symObjAddr: 0x24A4, symBinAddr: 0x1C4B4, symSize: 0x14 }
  - { offset: 0x1296A4, size: 0x8, addend: 0x0, symName: __ZNSt3__116allocator_traitsINS_9allocatorIN7leveldb12_GLOBAL__N_18Repairer9TableInfoEEEE9constructB8ne190102IS5_JRKS5_ELi0EEEvRS6_PT_DpOT0_, symObjAddr: 0x2694, symBinAddr: 0x1C6A4, symSize: 0xA4 }
  - { offset: 0x129998, size: 0x8, addend: 0x0, symName: __ZNSt3__114__split_bufferIN7leveldb12_GLOBAL__N_18Repairer9TableInfoERNS_9allocatorIS4_EEED1Ev, symObjAddr: 0x2738, symBinAddr: 0x1C748, symSize: 0x4C }
  - { offset: 0x12C80F, size: 0x8, addend: 0x0, symName: __ZN7leveldb6Status9CopyStateEPKc, symObjAddr: 0x0, symBinAddr: 0x1C794, symSize: 0x34 }
  - { offset: 0x12F3F0, size: 0x8, addend: 0x0, symName: __ZN7leveldb6Status9CopyStateEPKc, symObjAddr: 0x0, symBinAddr: 0x1C794, symSize: 0x34 }
  - { offset: 0x12F460, size: 0x8, addend: 0x0, symName: __ZN7leveldb6StatusC2ENS0_4CodeERKNS_5SliceES4_, symObjAddr: 0x34, symBinAddr: 0x1C7C8, symSize: 0xC0 }
  - { offset: 0x12F56E, size: 0x8, addend: 0x0, symName: __ZN7leveldb6StatusC1ENS0_4CodeERKNS_5SliceES4_, symObjAddr: 0xF4, symBinAddr: 0x1C888, symSize: 0x4 }
  - { offset: 0x12F579, size: 0x8, addend: 0x0, symName: __ZN7leveldb6StatusC2ENS0_4CodeERKNS_5SliceES4_.cold.1, symObjAddr: 0x33C, symBinAddr: 0x276AC, symSize: 0x28 }
  - { offset: 0x12F590, size: 0x8, addend: 0x0, symName: __ZN7leveldb6StatusC1ENS0_4CodeERKNS_5SliceES4_, symObjAddr: 0xF4, symBinAddr: 0x1C888, symSize: 0x4 }
  - { offset: 0x12F5E6, size: 0x8, addend: 0x0, symName: __ZN7leveldb6StatusC1ENS0_4CodeERKNS_5SliceES4_, symObjAddr: 0xF4, symBinAddr: 0x1C888, symSize: 0x4 }
  - { offset: 0x12F711, size: 0x8, addend: 0x0, symName: __ZNK7leveldb6Status8ToStringEv, symObjAddr: 0xF8, symBinAddr: 0x1C88C, symSize: 0x114 }
  - { offset: 0x131B43, size: 0x8, addend: 0x0, symName: __ZN7leveldb5Table4OpenERKNS_7OptionsEPNS_16RandomAccessFileEyPPS0_, symObjAddr: 0x0, symBinAddr: 0x1C9A0, symSize: 0x238 }
  - { offset: 0x134C87, size: 0x8, addend: 0x0, symName: __ZN7leveldbL17DeleteCachedBlockERKNS_5SliceEPv, symObjAddr: 0x7E4, symBinAddr: 0x1D184, symSize: 0x20 }
  - { offset: 0x134CCB, size: 0x8, addend: 0x0, symName: __ZN7leveldbL11DeleteBlockEPvS0_, symObjAddr: 0x804, symBinAddr: 0x1D1A4, symSize: 0x1C }
  - { offset: 0x134CFF, size: 0x8, addend: 0x0, symName: __ZN7leveldbL12ReleaseBlockEPvS0_, symObjAddr: 0x820, symBinAddr: 0x1D1C0, symSize: 0xC }
  - { offset: 0x135278, size: 0x8, addend: 0x0, symName: __ZN7leveldb5Table4OpenERKNS_7OptionsEPNS_16RandomAccessFileEyPPS0_, symObjAddr: 0x0, symBinAddr: 0x1C9A0, symSize: 0x238 }
  - { offset: 0x135841, size: 0x8, addend: 0x0, symName: __ZN7leveldb5Table8ReadMetaERKNS_6FooterE, symObjAddr: 0x238, symBinAddr: 0x1CBD8, symSize: 0x1F0 }
  - { offset: 0x1360E0, size: 0x8, addend: 0x0, symName: __ZN7leveldb5Table10ReadFilterERKNS_5SliceE, symObjAddr: 0x428, symBinAddr: 0x1CDC8, symSize: 0xF0 }
  - { offset: 0x13638A, size: 0x8, addend: 0x0, symName: __ZN7leveldb5TableD2Ev, symObjAddr: 0x518, symBinAddr: 0x1CEB8, symSize: 0x30 }
  - { offset: 0x1363DF, size: 0x8, addend: 0x0, symName: __ZN7leveldb5Table3RepD2Ev, symObjAddr: 0xB3C, symBinAddr: 0x1D4DC, symSize: 0x54 }
  - { offset: 0x136446, size: 0x8, addend: 0x0, symName: __ZN7leveldb5TableD1Ev, symObjAddr: 0x548, symBinAddr: 0x1CEE8, symSize: 0x4 }
  - { offset: 0x136472, size: 0x8, addend: 0x0, symName: __ZN7leveldb5TableD1Ev, symObjAddr: 0x548, symBinAddr: 0x1CEE8, symSize: 0x4 }
  - { offset: 0x136518, size: 0x8, addend: 0x0, symName: __ZN7leveldb5Table11BlockReaderEPvRKNS_11ReadOptionsERKNS_5SliceE, symObjAddr: 0x54C, symBinAddr: 0x1CEEC, symSize: 0x298 }
  - { offset: 0x136A24, size: 0x8, addend: 0x0, symName: __ZNK7leveldb5Table11NewIteratorERKNS_11ReadOptionsE, symObjAddr: 0x82C, symBinAddr: 0x1D1CC, symSize: 0x40 }
  - { offset: 0x136A82, size: 0x8, addend: 0x0, symName: __ZN7leveldb5Table11InternalGetERKNS_11ReadOptionsERKNS_5SliceEPvPFvS7_S6_S6_E, symObjAddr: 0x86C, symBinAddr: 0x1D20C, symSize: 0x200 }
  - { offset: 0x136E36, size: 0x8, addend: 0x0, symName: __ZNK7leveldb5Table19ApproximateOffsetOfERKNS_5SliceE, symObjAddr: 0xA6C, symBinAddr: 0x1D40C, symSize: 0xD0 }
  - { offset: 0x13E376, size: 0x8, addend: 0x0, symName: __ZN7leveldb12TableBuilderC2ERKNS_7OptionsEPNS_12WritableFileE, symObjAddr: 0x0, symBinAddr: 0x1D530, symSize: 0x70 }
  - { offset: 0x13E404, size: 0x8, addend: 0x0, symName: __ZN7leveldb12TableBuilder3RepC2ERKNS_7OptionsEPNS_12WritableFileE, symObjAddr: 0xABC, symBinAddr: 0x1DFDC, symSize: 0x12C }
  - { offset: 0x13E6C7, size: 0x8, addend: 0x0, symName: __ZN7leveldb12TableBuilderC1ERKNS_7OptionsEPNS_12WritableFileE, symObjAddr: 0x70, symBinAddr: 0x1D5A0, symSize: 0x4 }
  - { offset: 0x13E70F, size: 0x8, addend: 0x0, symName: __ZN7leveldb12TableBuilderC1ERKNS_7OptionsEPNS_12WritableFileE, symObjAddr: 0x70, symBinAddr: 0x1D5A0, symSize: 0x4 }
  - { offset: 0x13EAF1, size: 0x8, addend: 0x0, symName: __ZN7leveldb12TableBuilderD2Ev, symObjAddr: 0x74, symBinAddr: 0x1D5A4, symSize: 0xC4 }
  - { offset: 0x13F1AF, size: 0x8, addend: 0x0, symName: __ZN7leveldb12TableBuilder3RepD2Ev, symObjAddr: 0xBE8, symBinAddr: 0x1E108, symSize: 0xAC }
  - { offset: 0x13FC3B, size: 0x8, addend: 0x0, symName: __ZN7leveldb12TableBuilderD1Ev, symObjAddr: 0x148, symBinAddr: 0x1D668, symSize: 0x4 }
  - { offset: 0x13FC67, size: 0x8, addend: 0x0, symName: __ZN7leveldb12TableBuilderD1Ev, symObjAddr: 0x148, symBinAddr: 0x1D668, symSize: 0x4 }
  - { offset: 0x13FD48, size: 0x8, addend: 0x0, symName: __ZN7leveldb12TableBuilder13ChangeOptionsERKNS_7OptionsE, symObjAddr: 0x14C, symBinAddr: 0x1D66C, symSize: 0xA4 }
  - { offset: 0x140027, size: 0x8, addend: 0x0, symName: __ZN7leveldb12TableBuilder3AddERKNS_5SliceES3_, symObjAddr: 0x1F0, symBinAddr: 0x1D710, symSize: 0x1CC }
  - { offset: 0x1406E0, size: 0x8, addend: 0x0, symName: __ZNK7leveldb12TableBuilder2okEv, symObjAddr: 0x3BC, symBinAddr: 0x1D8DC, symSize: 0x34 }
  - { offset: 0x14078B, size: 0x8, addend: 0x0, symName: __ZN7leveldb12TableBuilder5FlushEv, symObjAddr: 0x3F0, symBinAddr: 0x1D910, symSize: 0xC8 }
  - { offset: 0x14090E, size: 0x8, addend: 0x0, symName: __ZN7leveldb12TableBuilder10WriteBlockEPNS_12BlockBuilderEPNS_11BlockHandleE, symObjAddr: 0x4B8, symBinAddr: 0x1D9D8, symSize: 0xA4 }
  - { offset: 0x140919, size: 0x8, addend: 0x0, symName: __ZN7leveldb12TableBuilder3AddERKNS_5SliceES3_.cold.3, symObjAddr: 0xE14, symBinAddr: 0x27724, symSize: 0x28 }
  - { offset: 0x140931, size: 0x8, addend: 0x0, symName: __ZN7leveldb12TableBuilder3AddERKNS_5SliceES3_.cold.2, symObjAddr: 0xDEC, symBinAddr: 0x276FC, symSize: 0x28 }
  - { offset: 0x140949, size: 0x8, addend: 0x0, symName: __ZN7leveldb12TableBuilder3AddERKNS_5SliceES3_.cold.1, symObjAddr: 0xDC4, symBinAddr: 0x276D4, symSize: 0x28 }
  - { offset: 0x140A1C, size: 0x8, addend: 0x0, symName: __ZN7leveldb12TableBuilder10WriteBlockEPNS_12BlockBuilderEPNS_11BlockHandleE, symObjAddr: 0x4B8, symBinAddr: 0x1D9D8, symSize: 0xA4 }
  - { offset: 0x140C15, size: 0x8, addend: 0x0, symName: __ZN7leveldb12TableBuilder13WriteRawBlockERKNS_5SliceENS_15CompressionTypeEPNS_11BlockHandleE, symObjAddr: 0x55C, symBinAddr: 0x1DA7C, symSize: 0x100 }
  - { offset: 0x140C20, size: 0x8, addend: 0x0, symName: __ZN7leveldb12TableBuilder5FlushEv.cold.2, symObjAddr: 0xE64, symBinAddr: 0x27774, symSize: 0x28 }
  - { offset: 0x140C38, size: 0x8, addend: 0x0, symName: __ZN7leveldb12TableBuilder5FlushEv.cold.1, symObjAddr: 0xE3C, symBinAddr: 0x2774C, symSize: 0x28 }
  - { offset: 0x140CCE, size: 0x8, addend: 0x0, symName: __ZN7leveldb12TableBuilder13WriteRawBlockERKNS_5SliceENS_15CompressionTypeEPNS_11BlockHandleE, symObjAddr: 0x55C, symBinAddr: 0x1DA7C, symSize: 0x100 }
  - { offset: 0x14106A, size: 0x8, addend: 0x0, symName: __ZN7leveldb12TableBuilder10WriteBlockEPNS_12BlockBuilderEPNS_11BlockHandleE.cold.1, symObjAddr: 0xE8C, symBinAddr: 0x2779C, symSize: 0x28 }
  - { offset: 0x14114E, size: 0x8, addend: 0x0, symName: __ZNK7leveldb12TableBuilder6statusEv, symObjAddr: 0x65C, symBinAddr: 0x1DB7C, symSize: 0x30 }
  - { offset: 0x14126B, size: 0x8, addend: 0x0, symName: __ZN7leveldb12TableBuilder6FinishEv, symObjAddr: 0x68C, symBinAddr: 0x1DBAC, symSize: 0x3A0 }
  - { offset: 0x142A58, size: 0x8, addend: 0x0, symName: __ZN7leveldb12TableBuilder6FinishEv.cold.1, symObjAddr: 0xEB4, symBinAddr: 0x277C4, symSize: 0x28 }
  - { offset: 0x142A70, size: 0x8, addend: 0x0, symName: __ZN7leveldb12BlockBuilderD1Ev, symObjAddr: 0xA2C, symBinAddr: 0x1DF4C, symSize: 0x50 }
  - { offset: 0x142E3D, size: 0x8, addend: 0x0, symName: __ZN7leveldb12TableBuilder7AbandonEv, symObjAddr: 0xA7C, symBinAddr: 0x1DF9C, symSize: 0x28 }
  - { offset: 0x142E78, size: 0x8, addend: 0x0, symName: __ZNK7leveldb12TableBuilder10NumEntriesEv, symObjAddr: 0xAA4, symBinAddr: 0x1DFC4, symSize: 0xC }
  - { offset: 0x142E83, size: 0x8, addend: 0x0, symName: __ZN7leveldb12TableBuilder7AbandonEv.cold.1, symObjAddr: 0xEDC, symBinAddr: 0x277EC, symSize: 0x28 }
  - { offset: 0x142E9B, size: 0x8, addend: 0x0, symName: __ZNK7leveldb12TableBuilder10NumEntriesEv, symObjAddr: 0xAA4, symBinAddr: 0x1DFC4, symSize: 0xC }
  - { offset: 0x142EC4, size: 0x8, addend: 0x0, symName: __ZNK7leveldb12TableBuilder8FileSizeEv, symObjAddr: 0xAB0, symBinAddr: 0x1DFD0, symSize: 0xC }
  - { offset: 0x144F3E, size: 0x8, addend: 0x0, symName: __ZN7leveldb10TableCacheC2ERKNSt3__112basic_stringIcNS1_11char_traitsIcEENS1_9allocatorIcEEEERKNS_7OptionsEi, symObjAddr: 0x0, symBinAddr: 0x1E1B4, symSize: 0x94 }
  - { offset: 0x147FBC, size: 0x8, addend: 0x0, symName: __ZN7leveldbL11DeleteEntryERKNS_5SliceEPv, symObjAddr: 0x330, symBinAddr: 0x1E4E4, symSize: 0x44 }
  - { offset: 0x148021, size: 0x8, addend: 0x0, symName: __ZN7leveldbL10UnrefEntryEPvS0_, symObjAddr: 0x460, symBinAddr: 0x1E614, symSize: 0xC }
  - { offset: 0x1483AB, size: 0x8, addend: 0x0, symName: __ZN7leveldb10TableCacheC2ERKNSt3__112basic_stringIcNS1_11char_traitsIcEENS1_9allocatorIcEEEERKNS_7OptionsEi, symObjAddr: 0x0, symBinAddr: 0x1E1B4, symSize: 0x94 }
  - { offset: 0x1486DE, size: 0x8, addend: 0x0, symName: __ZN7leveldb10TableCacheC1ERKNSt3__112basic_stringIcNS1_11char_traitsIcEENS1_9allocatorIcEEEERKNS_7OptionsEi, symObjAddr: 0x94, symBinAddr: 0x1E248, symSize: 0x4 }
  - { offset: 0x148734, size: 0x8, addend: 0x0, symName: __ZN7leveldb10TableCacheC1ERKNSt3__112basic_stringIcNS1_11char_traitsIcEENS1_9allocatorIcEEEERKNS_7OptionsEi, symObjAddr: 0x94, symBinAddr: 0x1E248, symSize: 0x4 }
  - { offset: 0x14875B, size: 0x8, addend: 0x0, symName: __ZN7leveldb10TableCacheD2Ev, symObjAddr: 0x98, symBinAddr: 0x1E24C, symSize: 0x44 }
  - { offset: 0x1488B5, size: 0x8, addend: 0x0, symName: __ZN7leveldb10TableCacheD1Ev, symObjAddr: 0xDC, symBinAddr: 0x1E290, symSize: 0x4 }
  - { offset: 0x1488E1, size: 0x8, addend: 0x0, symName: __ZN7leveldb10TableCacheD1Ev, symObjAddr: 0xDC, symBinAddr: 0x1E290, symSize: 0x4 }
  - { offset: 0x1489F8, size: 0x8, addend: 0x0, symName: __ZN7leveldb10TableCache9FindTableEyyPPNS_5Cache6HandleE, symObjAddr: 0xE0, symBinAddr: 0x1E294, symSize: 0x250 }
  - { offset: 0x1492D0, size: 0x8, addend: 0x0, symName: __ZN7leveldb10TableCache11NewIteratorERKNS_11ReadOptionsEyyPPNS_5TableE, symObjAddr: 0x374, symBinAddr: 0x1E528, symSize: 0xEC }
  - { offset: 0x14944A, size: 0x8, addend: 0x0, symName: __ZN7leveldb10TableCache3GetERKNS_11ReadOptionsEyyRKNS_5SliceEPvPFvS7_S6_S6_E, symObjAddr: 0x46C, symBinAddr: 0x1E620, symSize: 0xD8 }
  - { offset: 0x1495E8, size: 0x8, addend: 0x0, symName: __ZN7leveldb10TableCache5EvictEy, symObjAddr: 0x544, symBinAddr: 0x1E6F8, symSize: 0x68 }
  - { offset: 0x14B6E3, size: 0x8, addend: 0x0, symName: __ZN7leveldb19NewTwoLevelIteratorEPNS_8IteratorEPFS1_PvRKNS_11ReadOptionsERKNS_5SliceEES2_S5_, symObjAddr: 0x0, symBinAddr: 0x1E760, symSize: 0xD0 }
  - { offset: 0x14B925, size: 0x8, addend: 0x0, symName: __ZN7leveldb19NewTwoLevelIteratorEPNS_8IteratorEPFS1_PvRKNS_11ReadOptionsERKNS_5SliceEES2_S5_, symObjAddr: 0x0, symBinAddr: 0x1E760, symSize: 0xD0 }
  - { offset: 0x14E9DA, size: 0x8, addend: 0x0, symName: __ZN7leveldb12_GLOBAL__N_116TwoLevelIteratorD1Ev, symObjAddr: 0xD0, symBinAddr: 0x1E830, symSize: 0x70 }
  - { offset: 0x14EC1E, size: 0x8, addend: 0x0, symName: __ZN7leveldb12_GLOBAL__N_116TwoLevelIteratorD0Ev, symObjAddr: 0x140, symBinAddr: 0x1E8A0, symSize: 0x14 }
  - { offset: 0x14EC75, size: 0x8, addend: 0x0, symName: __ZNK7leveldb12_GLOBAL__N_116TwoLevelIterator5ValidEv, symObjAddr: 0x154, symBinAddr: 0x1E8B4, symSize: 0x8 }
  - { offset: 0x14EC9D, size: 0x8, addend: 0x0, symName: __ZNK7leveldb12_GLOBAL__N_116TwoLevelIterator5ValidEv, symObjAddr: 0x154, symBinAddr: 0x1E8B4, symSize: 0x8 }
  - { offset: 0x14ECCE, size: 0x8, addend: 0x0, symName: __ZN7leveldb12_GLOBAL__N_116TwoLevelIterator11SeekToFirstEv, symObjAddr: 0x15C, symBinAddr: 0x1E8BC, symSize: 0x40 }
  - { offset: 0x14ED8F, size: 0x8, addend: 0x0, symName: __ZN7leveldb12_GLOBAL__N_116TwoLevelIterator13InitDataBlockEv, symObjAddr: 0x478, symBinAddr: 0x1EB08, symSize: 0xCC }
  - { offset: 0x14ED9A, size: 0x8, addend: 0x0, symName: __ZN7leveldb12_GLOBAL__N_116TwoLevelIterator13InitDataBlockEv, symObjAddr: 0x478, symBinAddr: 0x1EB08, symSize: 0xCC }
  - { offset: 0x14EF92, size: 0x8, addend: 0x0, symName: __ZN7leveldb12_GLOBAL__N_116TwoLevelIterator26SkipEmptyDataBlocksForwardEv, symObjAddr: 0x544, symBinAddr: 0x1EBD4, symSize: 0x6C }
  - { offset: 0x14F068, size: 0x8, addend: 0x0, symName: __ZN7leveldb12_GLOBAL__N_116TwoLevelIterator10SeekToLastEv, symObjAddr: 0x19C, symBinAddr: 0x1E8FC, symSize: 0x40 }
  - { offset: 0x14F129, size: 0x8, addend: 0x0, symName: __ZN7leveldb12_GLOBAL__N_116TwoLevelIterator27SkipEmptyDataBlocksBackwardEv, symObjAddr: 0x744, symBinAddr: 0x1ECD0, symSize: 0x6C }
  - { offset: 0x14F134, size: 0x8, addend: 0x0, symName: __ZN7leveldb12_GLOBAL__N_116TwoLevelIterator27SkipEmptyDataBlocksBackwardEv, symObjAddr: 0x744, symBinAddr: 0x1ECD0, symSize: 0x6C }
  - { offset: 0x14F20A, size: 0x8, addend: 0x0, symName: __ZN7leveldb12_GLOBAL__N_116TwoLevelIterator4SeekERKNS_5SliceE, symObjAddr: 0x1DC, symBinAddr: 0x1E93C, symSize: 0x48 }
  - { offset: 0x14F2F4, size: 0x8, addend: 0x0, symName: __ZN7leveldb12_GLOBAL__N_116TwoLevelIterator4NextEv.cold.1, symObjAddr: 0x870, symBinAddr: 0x27814, symSize: 0x28 }
  - { offset: 0x14F2FF, size: 0x8, addend: 0x0, symName: __ZN7leveldb12_GLOBAL__N_116TwoLevelIterator4NextEv, symObjAddr: 0x224, symBinAddr: 0x1E984, symSize: 0x3C }
  - { offset: 0x14F35E, size: 0x8, addend: 0x0, symName: __ZN7leveldb12_GLOBAL__N_116TwoLevelIterator4PrevEv, symObjAddr: 0x260, symBinAddr: 0x1E9C0, symSize: 0x3C }
  - { offset: 0x14F3BE, size: 0x8, addend: 0x0, symName: __ZN7leveldb12_GLOBAL__N_116TwoLevelIterator4NextEv.cold.1, symObjAddr: 0x870, symBinAddr: 0x27814, symSize: 0x28 }
  - { offset: 0x14F3D6, size: 0x8, addend: 0x0, symName: __ZN7leveldb12_GLOBAL__N_116TwoLevelIterator4PrevEv, symObjAddr: 0x260, symBinAddr: 0x1E9C0, symSize: 0x3C }
  - { offset: 0x14F435, size: 0x8, addend: 0x0, symName: __ZNK7leveldb12_GLOBAL__N_116TwoLevelIterator3keyEv, symObjAddr: 0x29C, symBinAddr: 0x1E9FC, symSize: 0x40 }
  - { offset: 0x14F495, size: 0x8, addend: 0x0, symName: __ZN7leveldb12_GLOBAL__N_116TwoLevelIterator4PrevEv.cold.1, symObjAddr: 0x898, symBinAddr: 0x2783C, symSize: 0x28 }
  - { offset: 0x14F4C1, size: 0x8, addend: 0x0, symName: __ZNK7leveldb12_GLOBAL__N_116TwoLevelIterator3keyEv, symObjAddr: 0x29C, symBinAddr: 0x1E9FC, symSize: 0x40 }
  - { offset: 0x14F53F, size: 0x8, addend: 0x0, symName: __ZNK7leveldb12_GLOBAL__N_116TwoLevelIterator5valueEv, symObjAddr: 0x2DC, symBinAddr: 0x1EA3C, symSize: 0x34 }
  - { offset: 0x14F54A, size: 0x8, addend: 0x0, symName: __ZNK7leveldb12_GLOBAL__N_116TwoLevelIterator3keyEv.cold.1, symObjAddr: 0x8C0, symBinAddr: 0x27864, symSize: 0x28 }
  - { offset: 0x14F562, size: 0x8, addend: 0x0, symName: __ZNK7leveldb12_GLOBAL__N_116TwoLevelIterator3keyEv.cold.2, symObjAddr: 0x8E8, symBinAddr: 0x2788C, symSize: 0x28 }
  - { offset: 0x14F590, size: 0x8, addend: 0x0, symName: __ZNK7leveldb12_GLOBAL__N_116TwoLevelIterator5valueEv, symObjAddr: 0x2DC, symBinAddr: 0x1EA3C, symSize: 0x34 }
  - { offset: 0x14F5D9, size: 0x8, addend: 0x0, symName: __ZNK7leveldb12_GLOBAL__N_116TwoLevelIterator6statusEv, symObjAddr: 0x310, symBinAddr: 0x1EA70, symSize: 0x98 }
  - { offset: 0x14F621, size: 0x8, addend: 0x0, symName: __ZNK7leveldb12_GLOBAL__N_116TwoLevelIterator5valueEv.cold.1, symObjAddr: 0x910, symBinAddr: 0x278B4, symSize: 0x28 }
  - { offset: 0x14F69C, size: 0x8, addend: 0x0, symName: __ZNK7leveldb12_GLOBAL__N_116TwoLevelIterator6statusEv, symObjAddr: 0x310, symBinAddr: 0x1EA70, symSize: 0x98 }
  - { offset: 0x14F950, size: 0x8, addend: 0x0, symName: __ZN7leveldb12_GLOBAL__N_116TwoLevelIterator15SetDataIteratorEPNS_8IteratorE, symObjAddr: 0x5B0, symBinAddr: 0x1EC40, symSize: 0x90 }
  - { offset: 0x157038, size: 0x8, addend: 0x0, symName: __ZNSt3__119__allocate_at_leastB8ne190102INS_9allocatorINS_4pairIiN7leveldb11InternalKeyEEEEEEENS_19__allocation_resultINS_16allocator_traitsIT_E7pointerEEERS9_m, symObjAddr: 0x1130, symBinAddr: 0x1FB4C, symSize: 0x34 }
  - { offset: 0x1570D5, size: 0x8, addend: 0x0, symName: __ZNSt3__134__uninitialized_allocator_relocateB8ne190102INS_9allocatorINS_4pairIiN7leveldb11InternalKeyEEEEES5_EEvRT_PT0_SA_SA_, symObjAddr: 0x1164, symBinAddr: 0x1FB80, symSize: 0xB8 }
  - { offset: 0x1570E9, size: 0x8, addend: 0x0, symName: __ZNSt3__134__uninitialized_allocator_relocateB8ne190102INS_9allocatorINS_4pairIiN7leveldb11InternalKeyEEEEES5_EEvRT_PT0_SA_SA_, symObjAddr: 0x1164, symBinAddr: 0x1FB80, symSize: 0xB8 }
  - { offset: 0x158C65, size: 0x8, addend: 0x0, symName: __ZN7leveldbL14GetInternalKeyEPNS_5SliceEPNS_11InternalKeyE, symObjAddr: 0x878, symBinAddr: 0x1F5B4, symSize: 0x5C }
  - { offset: 0x15945C, size: 0x8, addend: 0x0, symName: __ZN7leveldb11VersionEdit5ClearEv, symObjAddr: 0x0, symBinAddr: 0x1ED3C, symSize: 0x90 }
  - { offset: 0x159A7A, size: 0x8, addend: 0x0, symName: __ZNK7leveldb11VersionEdit8EncodeToEPNSt3__112basic_stringIcNS1_11char_traitsIcEENS1_9allocatorIcEEEE, symObjAddr: 0x90, symBinAddr: 0x1EDCC, symSize: 0x280 }
  - { offset: 0x159FE5, size: 0x8, addend: 0x0, symName: __ZNK7leveldb11InternalKey6EncodeEv, symObjAddr: 0x310, symBinAddr: 0x1F04C, symSize: 0x38 }
  - { offset: 0x15A038, size: 0x8, addend: 0x0, symName: __ZNK7leveldb11InternalKey6EncodeEv, symObjAddr: 0x310, symBinAddr: 0x1F04C, symSize: 0x38 }
  - { offset: 0x15A0FE, size: 0x8, addend: 0x0, symName: __ZN7leveldb11VersionEdit10DecodeFromERKNS_5SliceE, symObjAddr: 0x348, symBinAddr: 0x1F084, symSize: 0x530 }
  - { offset: 0x15A131, size: 0x8, addend: 0x0, symName: __ZNK7leveldb11InternalKey6EncodeEv.cold.1, symObjAddr: 0x1A18, symBinAddr: 0x278DC, symSize: 0x28 }
  - { offset: 0x15AB44, size: 0x8, addend: 0x0, symName: __ZN7leveldb11VersionEdit10DecodeFromERKNS_5SliceE, symObjAddr: 0x348, symBinAddr: 0x1F084, symSize: 0x530 }
  - { offset: 0x15CD4D, size: 0x8, addend: 0x0, symName: __ZNSt3__16vectorINS_4pairIiN7leveldb11InternalKeyEEENS_9allocatorIS4_EEE21__push_back_slow_pathIS4_EEPS4_OT_, symObjAddr: 0xFF8, symBinAddr: 0x1FA28, symSize: 0x124 }
  - { offset: 0x15D551, size: 0x8, addend: 0x0, symName: __ZNK7leveldb11VersionEdit11DebugStringEv, symObjAddr: 0x954, symBinAddr: 0x1F610, symSize: 0x418 }
  - { offset: 0x15E40F, size: 0x8, addend: 0x0, symName: __ZNSt3__114__split_bufferINS_4pairIiN7leveldb11InternalKeyEEERNS_9allocatorIS4_EEED2Ev, symObjAddr: 0x1294, symBinAddr: 0x1FCB0, symSize: 0x34 }
  - { offset: 0x15E519, size: 0x8, addend: 0x0, symName: __ZNSt3__119__allocate_at_leastB8ne190102INS_9allocatorINS_4pairIiN7leveldb11InternalKeyEEEEEEENS_19__allocation_resultINS_16allocator_traitsIT_E7pointerEEERS9_m, symObjAddr: 0x1130, symBinAddr: 0x1FB4C, symSize: 0x34 }
  - { offset: 0x15E5C1, size: 0x8, addend: 0x0, symName: __ZNSt3__128__exception_guard_exceptionsINS_29_AllocatorDestroyRangeReverseINS_9allocatorINS_4pairIiN7leveldb11InternalKeyEEEEEPS6_EEED2B8ne190102Ev, symObjAddr: 0x121C, symBinAddr: 0x1FC38, symSize: 0x34 }
  - { offset: 0x15E5FF, size: 0x8, addend: 0x0, symName: __ZNKSt3__129_AllocatorDestroyRangeReverseINS_9allocatorINS_4pairIiN7leveldb11InternalKeyEEEEEPS5_EclB8ne190102Ev, symObjAddr: 0x1250, symBinAddr: 0x1FC6C, symSize: 0x44 }
  - { offset: 0x15E861, size: 0x8, addend: 0x0, symName: __ZNSt3__114__split_bufferINS_4pairIiN7leveldb11InternalKeyEEERNS_9allocatorIS4_EEE17__destruct_at_endB8ne190102EPS4_, symObjAddr: 0x12C8, symBinAddr: 0x1FCE4, symSize: 0x54 }
  - { offset: 0x15E898, size: 0x8, addend: 0x0, symName: __ZNSt3__114__split_bufferINS_4pairIiN7leveldb11InternalKeyEEERNS_9allocatorIS4_EEE17__destruct_at_endB8ne190102EPS4_, symObjAddr: 0x12C8, symBinAddr: 0x1FCE4, symSize: 0x54 }
  - { offset: 0x162664, size: 0x8, addend: 0x0, symName: __ZN7leveldb8FindFileERKNS_21InternalKeyComparatorERKNSt3__16vectorIPNS_12FileMetaDataENS3_9allocatorIS6_EEEERKNS_5SliceE, symObjAddr: 0x184, symBinAddr: 0x1FE6C, symSize: 0x94 }
  - { offset: 0x162771, size: 0x8, addend: 0x0, symName: __ZN7leveldb21SomeFileOverlapsRangeERKNS_21InternalKeyComparatorEbRKNSt3__16vectorIPNS_12FileMetaDataENS3_9allocatorIS6_EEEEPKNS_5SliceESE_, symObjAddr: 0x250, symBinAddr: 0x1FF00, symSize: 0x15C }
  - { offset: 0x162C70, size: 0x8, addend: 0x0, symName: __ZN7leveldbL10BeforeFileEPKNS_10ComparatorEPKNS_5SliceEPKNS_12FileMetaDataE, symObjAddr: 0x3AC, symBinAddr: 0x2005C, symSize: 0x5C }
  - { offset: 0x162D33, size: 0x8, addend: 0x0, symName: __ZN7leveldbL15GetFileIteratorEPvRKNS_11ReadOptionsERKNS_5SliceE, symObjAddr: 0x4C0, symBinAddr: 0x20170, symSize: 0xA8 }
  - { offset: 0x162F4C, size: 0x8, addend: 0x0, symName: __ZN7leveldbL11NewestFirstEPNS_12FileMetaDataES1_, symObjAddr: 0xB34, symBinAddr: 0x207A8, symSize: 0x14 }
  - { offset: 0x163196, size: 0x8, addend: 0x0, symName: __ZN7leveldb17AddBoundaryInputsERKNS_21InternalKeyComparatorERKNSt3__16vectorIPNS_12FileMetaDataENS3_9allocatorIS6_EEEEPS9_, symObjAddr: 0x4458, symBinAddr: 0x23F1C, symSize: 0x168 }
  - { offset: 0x163920, size: 0x8, addend: 0x0, symName: __ZN7leveldb14FindLargestKeyERKNS_21InternalKeyComparatorERKNSt3__16vectorIPNS_12FileMetaDataENS3_9allocatorIS6_EEEEPNS_11InternalKeyE, symObjAddr: 0x4250, symBinAddr: 0x23D14, symSize: 0xD8 }
  - { offset: 0x163A84, size: 0x8, addend: 0x0, symName: __ZN7leveldb24FindSmallestBoundaryFileERKNS_21InternalKeyComparatorERKNSt3__16vectorIPNS_12FileMetaDataENS3_9allocatorIS6_EEEERKNS_11InternalKeyE, symObjAddr: 0x4328, symBinAddr: 0x23DEC, symSize: 0x130 }
  - { offset: 0x163CA1, size: 0x8, addend: 0x0, symName: __ZN7leveldbL9SaveValueEPvRKNS_5SliceES3_, symObjAddr: 0x4E14, symBinAddr: 0x24874, symSize: 0xA8 }
  - { offset: 0x16DE63, size: 0x8, addend: 0x0, symName: __ZNSt3__111__introsortINS_17_ClassicAlgPolicyERPFbPN7leveldb12FileMetaDataES4_EPS4_Lb0EEEvT1_S9_T0_NS_15iterator_traitsIS9_E15difference_typeEb, symObjAddr: 0x6A30, symBinAddr: 0x24FC8, symSize: 0x350 }
  - { offset: 0x16E2EB, size: 0x8, addend: 0x0, symName: __ZNSt3__126__insertion_sort_unguardedB8ne190102INS_17_ClassicAlgPolicyERPFbPN7leveldb12FileMetaDataES4_EPS4_EEvT1_S9_T0_, symObjAddr: 0x6E40, symBinAddr: 0x253D8, symSize: 0x94 }
  - { offset: 0x16E403, size: 0x8, addend: 0x0, symName: __ZNSt3__111__sift_downB8ne190102INS_17_ClassicAlgPolicyERPFbPN7leveldb12FileMetaDataES4_EPS4_EEvT1_OT0_NS_15iterator_traitsIS9_E15difference_typeES9_, symObjAddr: 0x7660, symBinAddr: 0x25BF8, symSize: 0x120 }
  - { offset: 0x16E4EE, size: 0x8, addend: 0x0, symName: __ZNSt3__117__floyd_sift_downB8ne190102INS_17_ClassicAlgPolicyERPFbPN7leveldb12FileMetaDataES4_EPS4_EET1_S9_OT0_NS_15iterator_traitsIS9_E15difference_typeE, symObjAddr: 0x7780, symBinAddr: 0x25D18, symSize: 0xA8 }
  - { offset: 0x16E599, size: 0x8, addend: 0x0, symName: __ZNSt3__131__partition_with_equals_on_leftB8ne190102INS_17_ClassicAlgPolicyEPPN7leveldb12FileMetaDataERPFbS4_S4_EEET0_S9_S9_T1_, symObjAddr: 0x6FC0, symBinAddr: 0x25558, symSize: 0x10C }
  - { offset: 0x16E737, size: 0x8, addend: 0x0, symName: __ZNSt3__132__partition_with_equals_on_rightB8ne190102INS_17_ClassicAlgPolicyEPPN7leveldb12FileMetaDataERPFbS4_S4_EEENS_4pairIT0_bEESA_SA_T1_, symObjAddr: 0x70CC, symBinAddr: 0x25664, symSize: 0x118 }
  - { offset: 0x16E8D3, size: 0x8, addend: 0x0, symName: __ZNSt3__127__insertion_sort_incompleteB8ne190102INS_17_ClassicAlgPolicyERPFbPN7leveldb12FileMetaDataES4_EPS4_EEbT1_S9_T0_, symObjAddr: 0x71E4, symBinAddr: 0x2577C, symSize: 0x1AC }
  - { offset: 0x16F05F, size: 0x8, addend: 0x0, symName: __ZNSt3__111__introsortINS_17_ClassicAlgPolicyERPFbPN7leveldb12FileMetaDataES4_EPS4_Lb0EEEvT1_S9_T0_NS_15iterator_traitsIS9_E15difference_typeEb, symObjAddr: 0x6A30, symBinAddr: 0x24FC8, symSize: 0x350 }
  - { offset: 0x16F17D, size: 0x8, addend: 0x0, symName: __ZNSt3__113__upper_boundB8ne190102INS_17_ClassicAlgPolicyEN7leveldb10VersionSet7Builder13BySmallestKeyENS_11__wrap_iterIPKPNS2_12FileMetaDataEEESB_S8_NS_10__identityEEET1_SD_T2_RKT3_OT0_OT4_, symObjAddr: 0x5928, symBinAddr: 0x24CC4, symSize: 0x80 }
  - { offset: 0x17097E, size: 0x8, addend: 0x0, symName: __ZNSt3__17__sort3B8ne190102INS_17_ClassicAlgPolicyERPFbPN7leveldb12FileMetaDataES4_EPS4_EEjT1_S9_S9_T0_, symObjAddr: 0x6ED4, symBinAddr: 0x2546C, symSize: 0xEC }
  - { offset: 0x170C62, size: 0x8, addend: 0x0, symName: __ZNSt3__17__sort5B8ne190102INS_17_ClassicAlgPolicyERPFbPN7leveldb12FileMetaDataES4_EPS4_EEvT1_S9_S9_S9_S9_T0_, symObjAddr: 0x7440, symBinAddr: 0x259D8, symSize: 0xD8 }
  - { offset: 0x170EE3, size: 0x8, addend: 0x0, symName: __ZNSt3__17__sort4B8ne190102INS_17_ClassicAlgPolicyERPFbPN7leveldb12FileMetaDataES4_EPS4_EEvT1_S9_S9_S9_T0_, symObjAddr: 0x7390, symBinAddr: 0x25928, symSize: 0xB0 }
  - { offset: 0x1710DE, size: 0x8, addend: 0x0, symName: __ZNSt3__116__insertion_sortB8ne190102INS_17_ClassicAlgPolicyERPFbPN7leveldb12FileMetaDataES4_EPS4_EEvT1_S9_T0_, symObjAddr: 0x6D80, symBinAddr: 0x25318, symSize: 0xC0 }
  - { offset: 0x1711CE, size: 0x8, addend: 0x0, symName: __ZNSt3__119__partial_sort_implB8ne190102INS_17_ClassicAlgPolicyERPFbPN7leveldb12FileMetaDataES4_EPS4_S8_EET1_S9_S9_T2_OT0_, symObjAddr: 0x7518, symBinAddr: 0x25AB0, symSize: 0x148 }
  - { offset: 0x1715F3, size: 0x8, addend: 0x0, symName: __ZNSt3__19__sift_upB8ne190102INS_17_ClassicAlgPolicyERPFbPN7leveldb12FileMetaDataES4_EPS4_EEvT1_S9_OT0_NS_15iterator_traitsIS9_E15difference_typeE, symObjAddr: 0x7828, symBinAddr: 0x25DC0, symSize: 0x9C }
  - { offset: 0x1716C1, size: 0x8, addend: 0x0, symName: __ZNSt3__120__throw_out_of_rangeB8ne190102EPKc, symObjAddr: 0x7A60, symBinAddr: 0x25E70, symSize: 0x50 }
  - { offset: 0x1739F1, size: 0x8, addend: 0x0, symName: __ZN7leveldb7Version3GetERKNS_11ReadOptionsERKNS_9LookupKeyEPNSt3__112basic_stringIcNS7_11char_traitsIcEENS7_9allocatorIcEEEEPNS0_8GetStatsE, symObjAddr: 0xB48, symBinAddr: 0x207BC, symSize: 0xE8 }
  - { offset: 0x173DDE, size: 0x8, addend: 0x0, symName: __ZN7leveldb7Version16RecordReadSampleENS_5SliceE, symObjAddr: 0xD90, symBinAddr: 0x20A04, symSize: 0xA4 }
  - { offset: 0x17446B, size: 0x8, addend: 0x0, symName: __ZN7leveldb7VersionD2Ev, symObjAddr: 0x0, symBinAddr: 0x1FD38, symSize: 0x130 }
  - { offset: 0x174B50, size: 0x8, addend: 0x0, symName: __ZN7leveldb7VersionD1Ev, symObjAddr: 0x180, symBinAddr: 0x1FE68, symSize: 0x4 }
  - { offset: 0x174B72, size: 0x8, addend: 0x0, symName: __ZN7leveldb7VersionD1Ev, symObjAddr: 0x180, symBinAddr: 0x1FE68, symSize: 0x4 }
  - { offset: 0x174C4A, size: 0x8, addend: 0x0, symName: __ZN7leveldb21SomeFileOverlapsRangeERKNS_21InternalKeyComparatorEbRKNSt3__16vectorIPNS_12FileMetaDataENS3_9allocatorIS6_EEEEPKNS_5SliceESE_, symObjAddr: 0x250, symBinAddr: 0x1FF00, symSize: 0x15C }
  - { offset: 0x174F5A, size: 0x8, addend: 0x0, symName: __ZN7leveldbL11NewestFirstEPNS_12FileMetaDataES1_, symObjAddr: 0xB34, symBinAddr: 0x207A8, symSize: 0x14 }
  - { offset: 0x17502D, size: 0x8, addend: 0x0, symName: __ZNK7leveldb7Version24NewConcatenatingIteratorERKNS_11ReadOptionsEi, symObjAddr: 0x408, symBinAddr: 0x200B8, symSize: 0xB8 }
  - { offset: 0x17554B, size: 0x8, addend: 0x0, symName: __ZN7leveldb7Version12AddIteratorsERKNS_11ReadOptionsEPNSt3__16vectorIPNS_8IteratorENS4_9allocatorIS7_EEEE, symObjAddr: 0x568, symBinAddr: 0x20218, symSize: 0x1FC }
  - { offset: 0x175CCD, size: 0x8, addend: 0x0, symName: __ZN7leveldb7Version18ForEachOverlappingENS_5SliceES1_PvPFbS2_iPNS_12FileMetaDataEE, symObjAddr: 0x764, symBinAddr: 0x20414, symSize: 0x304 }
  - { offset: 0x175FED, size: 0x8, addend: 0x0, symName: __ZN7leveldb7Version18ForEachOverlappingENS_5SliceES1_PvPFbS2_iPNS_12FileMetaDataEE, symObjAddr: 0x764, symBinAddr: 0x20414, symSize: 0x304 }
  - { offset: 0x1769A1, size: 0x8, addend: 0x0, symName: __ZNSt3__16vectorIPN7leveldb12FileMetaDataENS_9allocatorIS3_EEE7reserveEm, symObjAddr: 0xA68, symBinAddr: 0x20718, symSize: 0x90 }
  - { offset: 0x176DBD, size: 0x8, addend: 0x0, symName: __ZZN7leveldb7Version3GetERKNS_11ReadOptionsERKNS_9LookupKeyEPNSt3__112basic_stringIcNS7_11char_traitsIcEENS7_9allocatorIcEEEEPNS0_8GetStatsEEN5State5MatchEPviPNS_12FileMetaDataE, symObjAddr: 0xC30, symBinAddr: 0x208A4, symSize: 0x124 }
  - { offset: 0x176FC2, size: 0x8, addend: 0x0, symName: __ZN7leveldb7Version11UpdateStatsERKNS0_8GetStatsE, symObjAddr: 0xD54, symBinAddr: 0x209C8, symSize: 0x3C }
  - { offset: 0x177029, size: 0x8, addend: 0x0, symName: __ZZN7leveldb7Version16RecordReadSampleENS_5SliceEEN5State5MatchEPviPNS_12FileMetaDataE, symObjAddr: 0xE34, symBinAddr: 0x20AA8, symSize: 0x24 }
  - { offset: 0x177081, size: 0x8, addend: 0x0, symName: __ZN7leveldb7Version3RefEv, symObjAddr: 0xE58, symBinAddr: 0x20ACC, symSize: 0x10 }
  - { offset: 0x1770BB, size: 0x8, addend: 0x0, symName: __ZN7leveldb7Version5UnrefEv, symObjAddr: 0xE68, symBinAddr: 0x20ADC, symSize: 0x4C }
  - { offset: 0x17711D, size: 0x8, addend: 0x0, symName: __ZN7leveldb7Version14OverlapInLevelEiPKNS_5SliceES3_, symObjAddr: 0xEB4, symBinAddr: 0x20B28, symSize: 0x2C }
  - { offset: 0x177128, size: 0x8, addend: 0x0, symName: __ZN7leveldb7Version5UnrefEv.cold.2, symObjAddr: 0x7FFC, symBinAddr: 0x2792C, symSize: 0x28 }
  - { offset: 0x177140, size: 0x8, addend: 0x0, symName: __ZN7leveldb7Version5UnrefEv.cold.1, symObjAddr: 0x7FD4, symBinAddr: 0x27904, symSize: 0x28 }
  - { offset: 0x177157, size: 0x8, addend: 0x0, symName: __ZN7leveldb7Version14OverlapInLevelEiPKNS_5SliceES3_, symObjAddr: 0xEB4, symBinAddr: 0x20B28, symSize: 0x2C }
  - { offset: 0x1771EC, size: 0x8, addend: 0x0, symName: __ZN7leveldb7Version26PickLevelForMemTableOutputERKNS_5SliceES3_, symObjAddr: 0xEE0, symBinAddr: 0x20B54, symSize: 0x1C0 }
  - { offset: 0x177CC4, size: 0x8, addend: 0x0, symName: __ZN7leveldb7Version20GetOverlappingInputsEiPKNS_11InternalKeyES3_PNSt3__16vectorIPNS_12FileMetaDataENS4_9allocatorIS7_EEEE, symObjAddr: 0x10A0, symBinAddr: 0x20D14, symSize: 0x240 }
  - { offset: 0x178316, size: 0x8, addend: 0x0, symName: __ZNK7leveldb7Version11DebugStringEv, symObjAddr: 0x12E0, symBinAddr: 0x20F54, symSize: 0x204 }
  - { offset: 0x178348, size: 0x8, addend: 0x0, symName: __ZN7leveldb7Version20GetOverlappingInputsEiPKNS_11InternalKeyES3_PNSt3__16vectorIPNS_12FileMetaDataENS4_9allocatorIS7_EEEE.cold.2, symObjAddr: 0x804C, symBinAddr: 0x2797C, symSize: 0x28 }
  - { offset: 0x178360, size: 0x8, addend: 0x0, symName: __ZN7leveldb7Version20GetOverlappingInputsEiPKNS_11InternalKeyES3_PNSt3__16vectorIPNS_12FileMetaDataENS4_9allocatorIS7_EEEE.cold.1, symObjAddr: 0x8024, symBinAddr: 0x27954, symSize: 0x28 }
  - { offset: 0x178472, size: 0x8, addend: 0x0, symName: __ZNK7leveldb7Version11DebugStringEv, symObjAddr: 0x12E0, symBinAddr: 0x20F54, symSize: 0x204 }
  - { offset: 0x178C27, size: 0x8, addend: 0x0, symName: __ZN7leveldb10VersionSetC2ERKNSt3__112basic_stringIcNS1_11char_traitsIcEENS1_9allocatorIcEEEEPKNS_7OptionsEPNS_10TableCacheEPKNS_21InternalKeyComparatorE, symObjAddr: 0x14E4, symBinAddr: 0x21158, symSize: 0x174 }
  - { offset: 0x179021, size: 0x8, addend: 0x0, symName: __ZN7leveldb10VersionSet13AppendVersionEPNS_7VersionE, symObjAddr: 0x1658, symBinAddr: 0x212CC, symSize: 0x74 }
  - { offset: 0x17908E, size: 0x8, addend: 0x0, symName: __ZN7leveldb10VersionSetC1ERKNSt3__112basic_stringIcNS1_11char_traitsIcEENS1_9allocatorIcEEEEPKNS_7OptionsEPNS_10TableCacheEPKNS_21InternalKeyComparatorE, symObjAddr: 0x16CC, symBinAddr: 0x21340, symSize: 0x4 }
  - { offset: 0x179099, size: 0x8, addend: 0x0, symName: __ZN7leveldb10VersionSetC2ERKNSt3__112basic_stringIcNS1_11char_traitsIcEENS1_9allocatorIcEEEEPKNS_7OptionsEPNS_10TableCacheEPKNS_21InternalKeyComparatorE.cold.1, symObjAddr: 0x8074, symBinAddr: 0x279A4, symSize: 0x8C }
  - { offset: 0x1791F3, size: 0x8, addend: 0x0, symName: __ZN7leveldb10VersionSet13AppendVersionEPNS_7VersionE.cold.1, symObjAddr: 0x8100, symBinAddr: 0x27A30, symSize: 0x28 }
  - { offset: 0x17920B, size: 0x8, addend: 0x0, symName: __ZN7leveldb10VersionSet13AppendVersionEPNS_7VersionE.cold.2, symObjAddr: 0x8128, symBinAddr: 0x27A58, symSize: 0x28 }
  - { offset: 0x179223, size: 0x8, addend: 0x0, symName: __ZN7leveldb10VersionSetC1ERKNSt3__112basic_stringIcNS1_11char_traitsIcEENS1_9allocatorIcEEEEPKNS_7OptionsEPNS_10TableCacheEPKNS_21InternalKeyComparatorE, symObjAddr: 0x16CC, symBinAddr: 0x21340, symSize: 0x4 }
  - { offset: 0x17928C, size: 0x8, addend: 0x0, symName: __ZN7leveldb10VersionSetC1ERKNSt3__112basic_stringIcNS1_11char_traitsIcEENS1_9allocatorIcEEEEPKNS_7OptionsEPNS_10TableCacheEPKNS_21InternalKeyComparatorE, symObjAddr: 0x16CC, symBinAddr: 0x21340, symSize: 0x4 }
  - { offset: 0x1792EF, size: 0x8, addend: 0x0, symName: __ZN7leveldb10VersionSetD2Ev, symObjAddr: 0x16D0, symBinAddr: 0x21344, symSize: 0xD0 }
  - { offset: 0x17963C, size: 0x8, addend: 0x0, symName: __ZN7leveldb10VersionSetD1Ev, symObjAddr: 0x17A0, symBinAddr: 0x21414, symSize: 0x4 }
  - { offset: 0x179669, size: 0x8, addend: 0x0, symName: __ZN7leveldb10VersionSetD1Ev, symObjAddr: 0x17A0, symBinAddr: 0x21414, symSize: 0x4 }
  - { offset: 0x1797E4, size: 0x8, addend: 0x0, symName: __ZN7leveldb10VersionSet11LogAndApplyEPNS_11VersionEditEPNS_4port5MutexE, symObjAddr: 0x17A4, symBinAddr: 0x21418, symSize: 0x4C8 }
  - { offset: 0x17AAF1, size: 0x8, addend: 0x0, symName: __ZN7leveldb10VersionSet11LogAndApplyEPNS_11VersionEditEPNS_4port5MutexE.cold.1, symObjAddr: 0x8150, symBinAddr: 0x27A80, symSize: 0x28 }
  - { offset: 0x17AB09, size: 0x8, addend: 0x0, symName: __ZN7leveldb10VersionSet7BuilderC2EPS0_PNS_7VersionE, symObjAddr: 0x4EBC, symBinAddr: 0x2491C, symSize: 0x9C }
  - { offset: 0x17ADE9, size: 0x8, addend: 0x0, symName: __ZN7leveldb10VersionSet7Builder5ApplyEPNS_11VersionEditE, symObjAddr: 0x1C6C, symBinAddr: 0x218E0, symSize: 0x254 }
  - { offset: 0x17B5DD, size: 0x8, addend: 0x0, symName: __ZN7leveldb10VersionSet7Builder6SaveToEPNS_7VersionE, symObjAddr: 0x1EC0, symBinAddr: 0x21B34, symSize: 0x26C }
  - { offset: 0x17BBFA, size: 0x8, addend: 0x0, symName: __ZN7leveldb10VersionSet7BuilderD2Ev, symObjAddr: 0x59A8, symBinAddr: 0x24D44, symSize: 0x23C }
  - { offset: 0x17C7A3, size: 0x8, addend: 0x0, symName: __ZN7leveldb10VersionSet8FinalizeEPNS_7VersionE, symObjAddr: 0x212C, symBinAddr: 0x21DA0, symSize: 0xBC }
  - { offset: 0x17C8CF, size: 0x8, addend: 0x0, symName: __ZN7leveldb10VersionSet13WriteSnapshotEPNS_3log6WriterE, symObjAddr: 0x21E8, symBinAddr: 0x21E5C, symSize: 0x1DC }
  - { offset: 0x17D0E6, size: 0x8, addend: 0x0, symName: __ZN7leveldb10VersionSet11LogAndApplyEPNS_11VersionEditEPNS_4port5MutexE.cold.2, symObjAddr: 0x8178, symBinAddr: 0x27AA8, symSize: 0x28 }
  - { offset: 0x17D77A, size: 0x8, addend: 0x0, symName: __ZNSt3__16__treeIPN7leveldb12FileMetaDataENS1_10VersionSet7Builder13BySmallestKeyENS_9allocatorIS3_EEE25__emplace_unique_key_argsIS3_JRKS3_EEENS_4pairINS_15__tree_iteratorIS3_PNS_11__tree_nodeIS3_PvEElEEbEERKT_DpOT0_, symObjAddr: 0x5404, symBinAddr: 0x249B8, symSize: 0x80 }
  - { offset: 0x17DA8C, size: 0x8, addend: 0x0, symName: __ZN7leveldb10VersionSet7Builder12MaybeAddFileEPNS_7VersionEiPNS_12FileMetaDataE, symObjAddr: 0x57B4, symBinAddr: 0x24B50, symSize: 0x174 }
  - { offset: 0x17DF1E, size: 0x8, addend: 0x0, symName: __ZNSt3__113__upper_boundB8ne190102INS_17_ClassicAlgPolicyEN7leveldb10VersionSet7Builder13BySmallestKeyENS_11__wrap_iterIPKPNS2_12FileMetaDataEEESB_S8_NS_10__identityEEET1_SD_T2_RKT3_OT0_OT4_, symObjAddr: 0x5928, symBinAddr: 0x24CC4, symSize: 0x80 }
  - { offset: 0x17E578, size: 0x8, addend: 0x0, symName: __ZN7leveldb11VersionEdit17SetCompactPointerEiRKNS_11InternalKeyE, symObjAddr: 0x2EB0, symBinAddr: 0x22AC8, symSize: 0xC0 }
  - { offset: 0x17F448, size: 0x8, addend: 0x0, symName: __ZN7leveldb10VersionSet7RecoverEPb, symObjAddr: 0x23C4, symBinAddr: 0x22038, symSize: 0x864 }
  - { offset: 0x1820A2, size: 0x8, addend: 0x0, symName: __ZNKSt3__112basic_stringIcNS_11char_traitsIcEENS_9allocatorIcEEE20__throw_out_of_rangeB8ne190102Ev, symObjAddr: 0x7A4C, symBinAddr: 0x25E5C, symSize: 0x14 }
  - { offset: 0x1820CF, size: 0x8, addend: 0x0, symName: __ZN7leveldb10VersionSet13ReuseManifestERKNSt3__112basic_stringIcNS1_11char_traitsIcEENS1_9allocatorIcEEEES9_, symObjAddr: 0x2C44, symBinAddr: 0x228B8, symSize: 0x210 }
  - { offset: 0x18259C, size: 0x8, addend: 0x0, symName: __ZNKSt3__112basic_stringIcNS_11char_traitsIcEENS_9allocatorIcEEE20__throw_out_of_rangeB8ne190102Ev, symObjAddr: 0x7A4C, symBinAddr: 0x25E5C, symSize: 0x14 }
  - { offset: 0x1825C4, size: 0x8, addend: 0x0, symName: __ZNSt3__120__throw_out_of_rangeB8ne190102EPKc, symObjAddr: 0x7A60, symBinAddr: 0x25E70, symSize: 0x50 }
  - { offset: 0x1825CE, size: 0x8, addend: 0x0, symName: __ZZN7leveldb10VersionSet7RecoverEPbEN11LogReporterD1Ev, symObjAddr: 0x2C28, symBinAddr: 0x2289C, symSize: 0x4 }
  - { offset: 0x1825F0, size: 0x8, addend: 0x0, symName: __ZZN7leveldb10VersionSet7RecoverEPbEN11LogReporterD1Ev, symObjAddr: 0x2C28, symBinAddr: 0x2289C, symSize: 0x4 }
  - { offset: 0x18260A, size: 0x8, addend: 0x0, symName: __ZN7leveldb10VersionSet18MarkFileNumberUsedEy, symObjAddr: 0x2C2C, symBinAddr: 0x228A0, symSize: 0x18 }
  - { offset: 0x182636, size: 0x8, addend: 0x0, symName: __ZN7leveldb10VersionSet13ReuseManifestERKNSt3__112basic_stringIcNS1_11char_traitsIcEENS1_9allocatorIcEEEES9_.cold.1, symObjAddr: 0x81A0, symBinAddr: 0x27AD0, symSize: 0x28 }
  - { offset: 0x18264E, size: 0x8, addend: 0x0, symName: __ZN7leveldb10VersionSet13ReuseManifestERKNSt3__112basic_stringIcNS1_11char_traitsIcEENS1_9allocatorIcEEEES9_.cold.2, symObjAddr: 0x81C8, symBinAddr: 0x27AF8, symSize: 0x28 }
  - { offset: 0x183460, size: 0x8, addend: 0x0, symName: __ZNK7leveldb10VersionSet13NumLevelFilesEi, symObjAddr: 0x30C4, symBinAddr: 0x22B88, symSize: 0x3C }
  - { offset: 0x1834C8, size: 0x8, addend: 0x0, symName: __ZNK7leveldb10VersionSet12LevelSummaryEPNS0_19LevelSummaryStorageE, symObjAddr: 0x3100, symBinAddr: 0x22BC4, symSize: 0xA4 }
  - { offset: 0x1834D3, size: 0x8, addend: 0x0, symName: __ZNK7leveldb10VersionSet13NumLevelFilesEi.cold.2, symObjAddr: 0x8218, symBinAddr: 0x27B48, symSize: 0x28 }
  - { offset: 0x1834EB, size: 0x8, addend: 0x0, symName: __ZNK7leveldb10VersionSet13NumLevelFilesEi.cold.1, symObjAddr: 0x81F0, symBinAddr: 0x27B20, symSize: 0x28 }
  - { offset: 0x183503, size: 0x8, addend: 0x0, symName: __ZNK7leveldb10VersionSet12LevelSummaryEPNS0_19LevelSummaryStorageE, symObjAddr: 0x3100, symBinAddr: 0x22BC4, symSize: 0xA4 }
  - { offset: 0x183689, size: 0x8, addend: 0x0, symName: __ZN7leveldb10VersionSet19ApproximateOffsetOfEPNS_7VersionERKNS_11InternalKeyE, symObjAddr: 0x31A4, symBinAddr: 0x22C68, symSize: 0x184 }
  - { offset: 0x1838DD, size: 0x8, addend: 0x0, symName: __ZN7leveldb10VersionSet12AddLiveFilesEPNSt3__13setIyNS1_4lessIyEENS1_9allocatorIyEEEE, symObjAddr: 0x3328, symBinAddr: 0x22DEC, symSize: 0xA4 }
  - { offset: 0x1839F6, size: 0x8, addend: 0x0, symName: __ZNK7leveldb10VersionSet13NumLevelBytesEi, symObjAddr: 0x33CC, symBinAddr: 0x22E90, symSize: 0x60 }
  - { offset: 0x183A75, size: 0x8, addend: 0x0, symName: __ZN7leveldb10VersionSet28MaxNextLevelOverlappingBytesEv, symObjAddr: 0x342C, symBinAddr: 0x22EF0, symSize: 0x11C }
  - { offset: 0x183A80, size: 0x8, addend: 0x0, symName: __ZNK7leveldb10VersionSet13NumLevelBytesEi.cold.2, symObjAddr: 0x8268, symBinAddr: 0x27B98, symSize: 0x28 }
  - { offset: 0x183A98, size: 0x8, addend: 0x0, symName: __ZNK7leveldb10VersionSet13NumLevelBytesEi.cold.1, symObjAddr: 0x8240, symBinAddr: 0x27B70, symSize: 0x28 }
  - { offset: 0x183AB0, size: 0x8, addend: 0x0, symName: __ZN7leveldb10VersionSet28MaxNextLevelOverlappingBytesEv, symObjAddr: 0x342C, symBinAddr: 0x22EF0, symSize: 0x11C }
  - { offset: 0x183F33, size: 0x8, addend: 0x0, symName: __ZN7leveldb10VersionSet8GetRangeERKNSt3__16vectorIPNS_12FileMetaDataENS1_9allocatorIS4_EEEEPNS_11InternalKeyESB_, symObjAddr: 0x3548, symBinAddr: 0x2300C, symSize: 0x158 }
  - { offset: 0x184340, size: 0x8, addend: 0x0, symName: __ZN7leveldb10VersionSet9GetRange2ERKNSt3__16vectorIPNS_12FileMetaDataENS1_9allocatorIS4_EEEES9_PNS_11InternalKeyESB_, symObjAddr: 0x36A0, symBinAddr: 0x23164, symSize: 0xB4 }
  - { offset: 0x18434B, size: 0x8, addend: 0x0, symName: __ZN7leveldb10VersionSet8GetRangeERKNSt3__16vectorIPNS_12FileMetaDataENS1_9allocatorIS4_EEEEPNS_11InternalKeyESB_.cold.1, symObjAddr: 0x8290, symBinAddr: 0x27BC0, symSize: 0x28 }
  - { offset: 0x184411, size: 0x8, addend: 0x0, symName: __ZN7leveldb10VersionSet9GetRange2ERKNSt3__16vectorIPNS_12FileMetaDataENS1_9allocatorIS4_EEEES9_PNS_11InternalKeyESB_, symObjAddr: 0x36A0, symBinAddr: 0x23164, symSize: 0xB4 }
  - { offset: 0x184897, size: 0x8, addend: 0x0, symName: __ZNSt3__16vectorIPN7leveldb12FileMetaDataENS_9allocatorIS3_EEE16__init_with_sizeB8ne190102IPS3_S8_EEvT_T0_m, symObjAddr: 0x7AD4, symBinAddr: 0x25EE4, symSize: 0x78 }
  - { offset: 0x184C6F, size: 0x8, addend: 0x0, symName: __ZNSt3__16vectorIPN7leveldb12FileMetaDataENS_9allocatorIS3_EEE18__insert_with_sizeB8ne190102INS_11__wrap_iterIPKS3_EESB_EENS8_IPS3_EESB_T_T0_l, symObjAddr: 0x7B8C, symBinAddr: 0x25F5C, symSize: 0x1C8 }
  - { offset: 0x1855E6, size: 0x8, addend: 0x0, symName: __ZNSt3__16vectorIPN7leveldb12FileMetaDataENS_9allocatorIS3_EEE18__assign_with_sizeB8ne190102IPS3_S8_EEvT_T0_l, symObjAddr: 0x7D54, symBinAddr: 0x26124, symSize: 0x12C }
  - { offset: 0x185623, size: 0x8, addend: 0x0, symName: __ZN7leveldb10VersionSet17MakeInputIteratorEPNS_10CompactionE, symObjAddr: 0x3754, symBinAddr: 0x23218, symSize: 0x1D4 }
  - { offset: 0x1858DD, size: 0x8, addend: 0x0, symName: __ZN7leveldb10VersionSet17MakeInputIteratorEPNS_10CompactionE.cold.1, symObjAddr: 0x82B8, symBinAddr: 0x27BE8, symSize: 0x28 }
  - { offset: 0x18596B, size: 0x8, addend: 0x0, symName: __ZN7leveldb10VersionSet14PickCompactionEv, symObjAddr: 0x3928, symBinAddr: 0x233EC, symSize: 0x440 }
  - { offset: 0x186D60, size: 0x8, addend: 0x0, symName: __ZN7leveldb10VersionSet16SetupOtherInputsEPNS_10CompactionE, symObjAddr: 0x3DC0, symBinAddr: 0x23884, symSize: 0x490 }
  - { offset: 0x1890D6, size: 0x8, addend: 0x0, symName: __ZN7leveldb10VersionSet14PickCompactionEv.cold.2, symObjAddr: 0x8308, symBinAddr: 0x27C38, symSize: 0x28 }
  - { offset: 0x1890EE, size: 0x8, addend: 0x0, symName: __ZN7leveldb10VersionSet14PickCompactionEv.cold.1, symObjAddr: 0x82E0, symBinAddr: 0x27C10, symSize: 0x28 }
  - { offset: 0x189106, size: 0x8, addend: 0x0, symName: __ZN7leveldb10CompactionC1EPKNS_7OptionsEi, symObjAddr: 0x3D68, symBinAddr: 0x2382C, symSize: 0x58 }
  - { offset: 0x189261, size: 0x8, addend: 0x0, symName: __ZNSt3__16vectorIPN7leveldb12FileMetaDataENS_9allocatorIS3_EEE18__assign_with_sizeB8ne190102IPS3_S8_EEvT_T0_l, symObjAddr: 0x7D54, symBinAddr: 0x26124, symSize: 0x12C }
  - { offset: 0x189B43, size: 0x8, addend: 0x0, symName: __ZNSt3__16vectorIPN7leveldb12FileMetaDataENS_9allocatorIS3_EEE8__appendEm, symObjAddr: 0x7E80, symBinAddr: 0x26250, symSize: 0x104 }
  - { offset: 0x189B67, size: 0x8, addend: 0x0, symName: __ZN7leveldb10VersionSet12CompactRangeEiPKNS_11InternalKeyES3_, symObjAddr: 0x45C0, symBinAddr: 0x24084, symSize: 0x174 }
  - { offset: 0x18A15E, size: 0x8, addend: 0x0, symName: __ZNSt3__16vectorIPN7leveldb12FileMetaDataENS_9allocatorIS3_EEE6resizeEm, symObjAddr: 0x4734, symBinAddr: 0x241F8, symSize: 0x30 }
  - { offset: 0x18A1A8, size: 0x8, addend: 0x0, symName: __ZNSt3__16vectorIPN7leveldb12FileMetaDataENS_9allocatorIS3_EEE6resizeEm, symObjAddr: 0x4734, symBinAddr: 0x241F8, symSize: 0x30 }
  - { offset: 0x18A244, size: 0x8, addend: 0x0, symName: __ZNSt3__16vectorIPN7leveldb12FileMetaDataENS_9allocatorIS3_EEE8__appendEm, symObjAddr: 0x7E80, symBinAddr: 0x26250, symSize: 0x104 }
  - { offset: 0x18A5D8, size: 0x8, addend: 0x0, symName: __ZN7leveldb10CompactionC2EPKNS_7OptionsEi, symObjAddr: 0x4764, symBinAddr: 0x24228, symSize: 0x58 }
  - { offset: 0x18A6A7, size: 0x8, addend: 0x0, symName: __ZN7leveldb10CompactionD2Ev, symObjAddr: 0x47BC, symBinAddr: 0x24280, symSize: 0x6C }
  - { offset: 0x18A9CA, size: 0x8, addend: 0x0, symName: __ZN7leveldb10CompactionD1Ev, symObjAddr: 0x4828, symBinAddr: 0x242EC, symSize: 0x4 }
  - { offset: 0x18A9F7, size: 0x8, addend: 0x0, symName: __ZN7leveldb10CompactionD1Ev, symObjAddr: 0x4828, symBinAddr: 0x242EC, symSize: 0x4 }
  - { offset: 0x18AA2A, size: 0x8, addend: 0x0, symName: __ZNK7leveldb10Compaction13IsTrivialMoveEv, symObjAddr: 0x482C, symBinAddr: 0x242F0, symSize: 0x84 }
  - { offset: 0x18AA66, size: 0x8, addend: 0x0, symName: __ZNK7leveldb10Compaction13IsTrivialMoveEv, symObjAddr: 0x482C, symBinAddr: 0x242F0, symSize: 0x84 }
  - { offset: 0x18AA89, size: 0x8, addend: 0x0, symName: __ZNK7leveldb10Compaction13IsTrivialMoveEv, symObjAddr: 0x482C, symBinAddr: 0x242F0, symSize: 0x84 }
  - { offset: 0x18ABD1, size: 0x8, addend: 0x0, symName: __ZN7leveldb10Compaction17AddInputDeletionsEPNS_11VersionEditE, symObjAddr: 0x48B0, symBinAddr: 0x24374, symSize: 0xAC }
  - { offset: 0x18AE51, size: 0x8, addend: 0x0, symName: __ZN7leveldb10Compaction17IsBaseLevelForKeyERKNS_5SliceE, symObjAddr: 0x495C, symBinAddr: 0x24420, symSize: 0x11C }
  - { offset: 0x18AF68, size: 0x8, addend: 0x0, symName: __ZN7leveldb10Compaction16ShouldStopBeforeERKNS_5SliceE, symObjAddr: 0x4A78, symBinAddr: 0x2453C, symSize: 0xEC }
  - { offset: 0x18B03D, size: 0x8, addend: 0x0, symName: __ZN7leveldb10Compaction13ReleaseInputsEv, symObjAddr: 0x4B64, symBinAddr: 0x24628, symSize: 0x2C }
  - { offset: 0x18B0FF, size: 0x8, addend: 0x0, symName: __ZN7leveldb7Version20LevelFileNumIteratorD1Ev, symObjAddr: 0x4BF4, symBinAddr: 0x24654, symSize: 0x34 }
  - { offset: 0x18B190, size: 0x8, addend: 0x0, symName: __ZN7leveldb7Version20LevelFileNumIteratorD0Ev, symObjAddr: 0x4C28, symBinAddr: 0x24688, symSize: 0x38 }
  - { offset: 0x18B22C, size: 0x8, addend: 0x0, symName: __ZNK7leveldb7Version20LevelFileNumIterator5ValidEv, symObjAddr: 0x4C60, symBinAddr: 0x246C0, symSize: 0x1C }
  - { offset: 0x18B270, size: 0x8, addend: 0x0, symName: __ZN7leveldb7Version20LevelFileNumIterator11SeekToFirstEv, symObjAddr: 0x4C7C, symBinAddr: 0x246DC, symSize: 0x8 }
  - { offset: 0x18B294, size: 0x8, addend: 0x0, symName: __ZN7leveldb7Version20LevelFileNumIterator10SeekToLastEv, symObjAddr: 0x4C84, symBinAddr: 0x246E4, symSize: 0x24 }
  - { offset: 0x18B2D4, size: 0x8, addend: 0x0, symName: __ZN7leveldb7Version20LevelFileNumIterator4SeekERKNS_5SliceE, symObjAddr: 0x4CA8, symBinAddr: 0x24708, symSize: 0x30 }
  - { offset: 0x18B31E, size: 0x8, addend: 0x0, symName: __ZN7leveldb7Version20LevelFileNumIterator4NextEv, symObjAddr: 0x4CD8, symBinAddr: 0x24738, symSize: 0x3C }
  - { offset: 0x18B35A, size: 0x8, addend: 0x0, symName: __ZN7leveldb7Version20LevelFileNumIterator4PrevEv, symObjAddr: 0x4D14, symBinAddr: 0x24774, symSize: 0x54 }
  - { offset: 0x18B365, size: 0x8, addend: 0x0, symName: __ZN7leveldb7Version20LevelFileNumIterator4NextEv.cold.1, symObjAddr: 0x8330, symBinAddr: 0x27C60, symSize: 0x28 }
  - { offset: 0x18B37D, size: 0x8, addend: 0x0, symName: __ZN7leveldb7Version20LevelFileNumIterator4PrevEv, symObjAddr: 0x4D14, symBinAddr: 0x24774, symSize: 0x54 }
  - { offset: 0x18B3D7, size: 0x8, addend: 0x0, symName: __ZNK7leveldb7Version20LevelFileNumIterator3keyEv, symObjAddr: 0x4D68, symBinAddr: 0x247C8, symSize: 0x44 }
  - { offset: 0x18B3E2, size: 0x8, addend: 0x0, symName: __ZN7leveldb7Version20LevelFileNumIterator4PrevEv.cold.1, symObjAddr: 0x8358, symBinAddr: 0x27C88, symSize: 0x28 }
  - { offset: 0x18B3FA, size: 0x8, addend: 0x0, symName: __ZNK7leveldb7Version20LevelFileNumIterator3keyEv, symObjAddr: 0x4D68, symBinAddr: 0x247C8, symSize: 0x44 }
  - { offset: 0x18B466, size: 0x8, addend: 0x0, symName: __ZNK7leveldb7Version20LevelFileNumIterator5valueEv, symObjAddr: 0x4DAC, symBinAddr: 0x2480C, symSize: 0x60 }
  - { offset: 0x18B471, size: 0x8, addend: 0x0, symName: __ZNK7leveldb7Version20LevelFileNumIterator3keyEv.cold.1, symObjAddr: 0x8380, symBinAddr: 0x27CB0, symSize: 0x28 }
  - { offset: 0x18B48E, size: 0x8, addend: 0x0, symName: __ZNK7leveldb7Version20LevelFileNumIterator5valueEv, symObjAddr: 0x4DAC, symBinAddr: 0x2480C, symSize: 0x60 }
  - { offset: 0x18B55A, size: 0x8, addend: 0x0, symName: __ZNK7leveldb7Version20LevelFileNumIterator6statusEv, symObjAddr: 0x4E0C, symBinAddr: 0x2486C, symSize: 0x8 }
  - { offset: 0x18B565, size: 0x8, addend: 0x0, symName: __ZNK7leveldb7Version20LevelFileNumIterator5valueEv.cold.1, symObjAddr: 0x83A8, symBinAddr: 0x27CD8, symSize: 0x28 }
  - { offset: 0x18B584, size: 0x8, addend: 0x0, symName: __ZNK7leveldb7Version20LevelFileNumIterator6statusEv, symObjAddr: 0x4E0C, symBinAddr: 0x2486C, symSize: 0x8 }
  - { offset: 0x18B5AA, size: 0x8, addend: 0x0, symName: __ZNK7leveldb7Version20LevelFileNumIterator6statusEv, symObjAddr: 0x4E0C, symBinAddr: 0x2486C, symSize: 0x8 }
  - { offset: 0x18B5BE, size: 0x8, addend: 0x0, symName: __ZNK7leveldb7Version20LevelFileNumIterator6statusEv, symObjAddr: 0x4E0C, symBinAddr: 0x2486C, symSize: 0x8 }
  - { offset: 0x18B5D9, size: 0x8, addend: 0x0, symName: __ZNK7leveldb7Version20LevelFileNumIterator6statusEv, symObjAddr: 0x4E0C, symBinAddr: 0x2486C, symSize: 0x8 }
  - { offset: 0x18B87E, size: 0x8, addend: 0x0, symName: __ZN7leveldb10VersionSet7BuilderC2EPS0_PNS_7VersionE.cold.1, symObjAddr: 0x83D0, symBinAddr: 0x27D00, symSize: 0x38 }
  - { offset: 0x18BD24, size: 0x8, addend: 0x0, symName: __ZNSt3__16__treeIPN7leveldb12FileMetaDataENS1_10VersionSet7Builder13BySmallestKeyENS_9allocatorIS3_EEE12__find_equalIS3_EERPNS_16__tree_node_baseIPvEERPNS_15__tree_end_nodeISE_EERKT_, symObjAddr: 0x5484, symBinAddr: 0x24A38, symSize: 0x98 }
  - { offset: 0x18BE37, size: 0x8, addend: 0x0, symName: __ZNK7leveldb10VersionSet7Builder13BySmallestKeyclEPNS_12FileMetaDataES4_, symObjAddr: 0x5570, symBinAddr: 0x24AD0, symSize: 0x80 }
  - { offset: 0x18BF3F, size: 0x8, addend: 0x0, symName: __ZN7leveldb10VersionSet7Builder12MaybeAddFileEPNS_7VersionEiPNS_12FileMetaDataE.cold.1, symObjAddr: 0x8408, symBinAddr: 0x27D38, symSize: 0x28 }
  - { offset: 0x18C1CE, size: 0x8, addend: 0x0, symName: __ZZN7leveldb10VersionSet7RecoverEPbEN11LogReporterD0Ev, symObjAddr: 0x5C24, symBinAddr: 0x24F80, symSize: 0x14 }
  - { offset: 0x18C254, size: 0x8, addend: 0x0, symName: __ZZN7leveldb10VersionSet7RecoverEPbEN11LogReporter10CorruptionEmRKNS_6StatusE, symObjAddr: 0x5C38, symBinAddr: 0x24F94, symSize: 0x34 }
  - { offset: 0x18DCC4, size: 0x8, addend: 0x0, symName: __ZNSt12out_of_rangeC1B8ne190102EPKc, symObjAddr: 0x7AB0, symBinAddr: 0x25EC0, symSize: 0x24 }
  - { offset: 0x18DF2F, size: 0x8, addend: 0x0, symName: __ZNSt3__16vectorIPN7leveldb12FileMetaDataENS_9allocatorIS3_EEE18__insert_with_sizeB8ne190102INS_11__wrap_iterIPKS3_EESB_EENS8_IPS3_EESB_T_T0_l, symObjAddr: 0x7B8C, symBinAddr: 0x25F5C, symSize: 0x1C8 }
  - { offset: 0x1900BA, size: 0x8, addend: 0x0, symName: __ZN7leveldb10WriteBatchC2Ev, symObjAddr: 0x0, symBinAddr: 0x26354, symSize: 0x48 }
  - { offset: 0x193C73, size: 0x8, addend: 0x0, symName: __ZN7leveldb10WriteBatchC2Ev, symObjAddr: 0x0, symBinAddr: 0x26354, symSize: 0x48 }
  - { offset: 0x193E4B, size: 0x8, addend: 0x0, symName: __ZN7leveldb10WriteBatch5ClearEv, symObjAddr: 0x48, symBinAddr: 0x2639C, symSize: 0x2C }
  - { offset: 0x193E73, size: 0x8, addend: 0x0, symName: __ZN7leveldb10WriteBatch5ClearEv, symObjAddr: 0x48, symBinAddr: 0x2639C, symSize: 0x2C }
  - { offset: 0x193E8E, size: 0x8, addend: 0x0, symName: __ZN7leveldb10WriteBatch5ClearEv, symObjAddr: 0x48, symBinAddr: 0x2639C, symSize: 0x2C }
  - { offset: 0x193EAA, size: 0x8, addend: 0x0, symName: __ZN7leveldb10WriteBatch5ClearEv, symObjAddr: 0x48, symBinAddr: 0x2639C, symSize: 0x2C }
  - { offset: 0x194038, size: 0x8, addend: 0x0, symName: __ZN7leveldb10WriteBatchC1Ev, symObjAddr: 0x74, symBinAddr: 0x263C8, symSize: 0x4 }
  - { offset: 0x194064, size: 0x8, addend: 0x0, symName: __ZN7leveldb10WriteBatchC1Ev, symObjAddr: 0x74, symBinAddr: 0x263C8, symSize: 0x4 }
  - { offset: 0x194077, size: 0x8, addend: 0x0, symName: __ZN7leveldb10WriteBatchD2Ev, symObjAddr: 0x78, symBinAddr: 0x263CC, symSize: 0x30 }
  - { offset: 0x1941CE, size: 0x8, addend: 0x0, symName: __ZN7leveldb10WriteBatchD1Ev, symObjAddr: 0xA8, symBinAddr: 0x263FC, symSize: 0x30 }
  - { offset: 0x19432C, size: 0x8, addend: 0x0, symName: __ZN7leveldb10WriteBatch7HandlerD2Ev, symObjAddr: 0xD8, symBinAddr: 0x2642C, symSize: 0x4 }
  - { offset: 0x194355, size: 0x8, addend: 0x0, symName: __ZN7leveldb10WriteBatch7HandlerD1Ev, symObjAddr: 0xDC, symBinAddr: 0x26430, symSize: 0x4 }
  - { offset: 0x19437C, size: 0x8, addend: 0x0, symName: __ZN7leveldb10WriteBatch7HandlerD0Ev, symObjAddr: 0xE0, symBinAddr: 0x26434, symSize: 0x4 }
  - { offset: 0x1943B8, size: 0x8, addend: 0x0, symName: __ZNK7leveldb10WriteBatch15ApproximateSizeEv, symObjAddr: 0xE4, symBinAddr: 0x26438, symSize: 0x18 }
  - { offset: 0x1946C8, size: 0x8, addend: 0x0, symName: __ZNK7leveldb10WriteBatch7IterateEPNS0_7HandlerE, symObjAddr: 0xFC, symBinAddr: 0x26450, symSize: 0x1BC }
  - { offset: 0x194CCA, size: 0x8, addend: 0x0, symName: __ZN7leveldb18WriteBatchInternal5CountEPKNS_10WriteBatchE, symObjAddr: 0x2B8, symBinAddr: 0x2660C, symSize: 0x14 }
  - { offset: 0x194CEA, size: 0x8, addend: 0x0, symName: __ZN7leveldb18WriteBatchInternal5CountEPKNS_10WriteBatchE, symObjAddr: 0x2B8, symBinAddr: 0x2660C, symSize: 0x14 }
  - { offset: 0x194D05, size: 0x8, addend: 0x0, symName: __ZN7leveldb18WriteBatchInternal5CountEPKNS_10WriteBatchE, symObjAddr: 0x2B8, symBinAddr: 0x2660C, symSize: 0x14 }
  - { offset: 0x194D21, size: 0x8, addend: 0x0, symName: __ZN7leveldb18WriteBatchInternal5CountEPKNS_10WriteBatchE, symObjAddr: 0x2B8, symBinAddr: 0x2660C, symSize: 0x14 }
  - { offset: 0x194DBB, size: 0x8, addend: 0x0, symName: __ZN7leveldb18WriteBatchInternal8SetCountEPNS_10WriteBatchEi, symObjAddr: 0x2CC, symBinAddr: 0x26620, symSize: 0x14 }
  - { offset: 0x194DE2, size: 0x8, addend: 0x0, symName: __ZN7leveldb18WriteBatchInternal8SetCountEPNS_10WriteBatchEi, symObjAddr: 0x2CC, symBinAddr: 0x26620, symSize: 0x14 }
  - { offset: 0x194E03, size: 0x8, addend: 0x0, symName: __ZN7leveldb18WriteBatchInternal8SetCountEPNS_10WriteBatchEi, symObjAddr: 0x2CC, symBinAddr: 0x26620, symSize: 0x14 }
  - { offset: 0x194E1F, size: 0x8, addend: 0x0, symName: __ZN7leveldb18WriteBatchInternal8SetCountEPNS_10WriteBatchEi, symObjAddr: 0x2CC, symBinAddr: 0x26620, symSize: 0x14 }
  - { offset: 0x194E6A, size: 0x8, addend: 0x0, symName: __ZN7leveldb18WriteBatchInternal8SequenceEPKNS_10WriteBatchE, symObjAddr: 0x2E0, symBinAddr: 0x26634, symSize: 0x14 }
  - { offset: 0x194E8A, size: 0x8, addend: 0x0, symName: __ZN7leveldb18WriteBatchInternal8SequenceEPKNS_10WriteBatchE, symObjAddr: 0x2E0, symBinAddr: 0x26634, symSize: 0x14 }
  - { offset: 0x194EA5, size: 0x8, addend: 0x0, symName: __ZN7leveldb18WriteBatchInternal8SequenceEPKNS_10WriteBatchE, symObjAddr: 0x2E0, symBinAddr: 0x26634, symSize: 0x14 }
  - { offset: 0x194EC1, size: 0x8, addend: 0x0, symName: __ZN7leveldb18WriteBatchInternal8SequenceEPKNS_10WriteBatchE, symObjAddr: 0x2E0, symBinAddr: 0x26634, symSize: 0x14 }
  - { offset: 0x194F1E, size: 0x8, addend: 0x0, symName: __ZN7leveldb18WriteBatchInternal11SetSequenceEPNS_10WriteBatchEy, symObjAddr: 0x2F4, symBinAddr: 0x26648, symSize: 0x14 }
  - { offset: 0x194F54, size: 0x8, addend: 0x0, symName: __ZN7leveldb18WriteBatchInternal11SetSequenceEPNS_10WriteBatchEy, symObjAddr: 0x2F4, symBinAddr: 0x26648, symSize: 0x14 }
  - { offset: 0x194F75, size: 0x8, addend: 0x0, symName: __ZN7leveldb18WriteBatchInternal11SetSequenceEPNS_10WriteBatchEy, symObjAddr: 0x2F4, symBinAddr: 0x26648, symSize: 0x14 }
  - { offset: 0x194F91, size: 0x8, addend: 0x0, symName: __ZN7leveldb18WriteBatchInternal11SetSequenceEPNS_10WriteBatchEy, symObjAddr: 0x2F4, symBinAddr: 0x26648, symSize: 0x14 }
  - { offset: 0x194FF7, size: 0x8, addend: 0x0, symName: __ZN7leveldb10WriteBatch3PutERKNS_5SliceES3_, symObjAddr: 0x308, symBinAddr: 0x2665C, symSize: 0x68 }
  - { offset: 0x19514A, size: 0x8, addend: 0x0, symName: __ZN7leveldb10WriteBatch6DeleteERKNS_5SliceE, symObjAddr: 0x370, symBinAddr: 0x266C4, symSize: 0x50 }
  - { offset: 0x195275, size: 0x8, addend: 0x0, symName: __ZN7leveldb10WriteBatch6AppendERKS0_, symObjAddr: 0x3C0, symBinAddr: 0x26714, symSize: 0x4 }
  - { offset: 0x1952AB, size: 0x8, addend: 0x0, symName: __ZN7leveldb10WriteBatch6AppendERKS0_, symObjAddr: 0x3C0, symBinAddr: 0x26714, symSize: 0x4 }
  - { offset: 0x1952C5, size: 0x8, addend: 0x0, symName: __ZN7leveldb18WriteBatchInternal6AppendEPNS_10WriteBatchEPKS1_, symObjAddr: 0x3C4, symBinAddr: 0x26718, symSize: 0x78 }
  - { offset: 0x1952FC, size: 0x8, addend: 0x0, symName: __ZN7leveldb18WriteBatchInternal6AppendEPNS_10WriteBatchEPKS1_, symObjAddr: 0x3C4, symBinAddr: 0x26718, symSize: 0x78 }
  - { offset: 0x195317, size: 0x8, addend: 0x0, symName: __ZN7leveldb18WriteBatchInternal6AppendEPNS_10WriteBatchEPKS1_, symObjAddr: 0x3C4, symBinAddr: 0x26718, symSize: 0x78 }
  - { offset: 0x195332, size: 0x8, addend: 0x0, symName: __ZN7leveldb18WriteBatchInternal6AppendEPNS_10WriteBatchEPKS1_, symObjAddr: 0x3C4, symBinAddr: 0x26718, symSize: 0x78 }
  - { offset: 0x19534E, size: 0x8, addend: 0x0, symName: __ZN7leveldb18WriteBatchInternal6AppendEPNS_10WriteBatchEPKS1_, symObjAddr: 0x3C4, symBinAddr: 0x26718, symSize: 0x78 }
  - { offset: 0x19559E, size: 0x8, addend: 0x0, symName: __ZN7leveldb18WriteBatchInternal10InsertIntoEPKNS_10WriteBatchEPNS_8MemTableE, symObjAddr: 0x43C, symBinAddr: 0x26790, symSize: 0x44 }
  - { offset: 0x1955A9, size: 0x8, addend: 0x0, symName: __ZN7leveldb18WriteBatchInternal6AppendEPNS_10WriteBatchEPKS1_.cold.1, symObjAddr: 0x53C, symBinAddr: 0x27D60, symSize: 0x28 }
  - { offset: 0x195614, size: 0x8, addend: 0x0, symName: __ZN7leveldb18WriteBatchInternal10InsertIntoEPKNS_10WriteBatchEPNS_8MemTableE, symObjAddr: 0x43C, symBinAddr: 0x26790, symSize: 0x44 }
  - { offset: 0x195759, size: 0x8, addend: 0x0, symName: __ZN7leveldb12_GLOBAL__N_116MemTableInserterD1Ev, symObjAddr: 0x480, symBinAddr: 0x267D4, symSize: 0x4 }
  - { offset: 0x1957AB, size: 0x8, addend: 0x0, symName: __ZN7leveldb18WriteBatchInternal11SetContentsEPNS_10WriteBatchERKNS_5SliceE, symObjAddr: 0x484, symBinAddr: 0x267D8, symSize: 0x20 }
  - { offset: 0x1957E2, size: 0x8, addend: 0x0, symName: __ZN7leveldb18WriteBatchInternal11SetContentsEPNS_10WriteBatchERKNS_5SliceE, symObjAddr: 0x484, symBinAddr: 0x267D8, symSize: 0x20 }
  - { offset: 0x19581A, size: 0x8, addend: 0x0, symName: __ZN7leveldb12_GLOBAL__N_116MemTableInserterD0Ev, symObjAddr: 0x4A4, symBinAddr: 0x267F8, symSize: 0x4 }
  - { offset: 0x195825, size: 0x8, addend: 0x0, symName: __ZN7leveldb18WriteBatchInternal11SetContentsEPNS_10WriteBatchERKNS_5SliceE.cold.1, symObjAddr: 0x564, symBinAddr: 0x27D88, symSize: 0x28 }
  - { offset: 0x19583C, size: 0x8, addend: 0x0, symName: __ZN7leveldb12_GLOBAL__N_116MemTableInserterD0Ev, symObjAddr: 0x4A4, symBinAddr: 0x267F8, symSize: 0x4 }
  - { offset: 0x195866, size: 0x8, addend: 0x0, symName: __ZN7leveldb12_GLOBAL__N_116MemTableInserter3PutERKNS_5SliceES4_, symObjAddr: 0x4A8, symBinAddr: 0x267FC, symSize: 0x40 }
  - { offset: 0x1958AA, size: 0x8, addend: 0x0, symName: __ZN7leveldb12_GLOBAL__N_116MemTableInserter6DeleteERKNS_5SliceE, symObjAddr: 0x4E8, symBinAddr: 0x2683C, symSize: 0x54 }
...
